 PhysXCooking_64

 Timestamp is 631959f1 (Thu Sep  8 10:56:49 2022)

 Preferred load address is 0000000180000000

 Start         Length     Name                   Class
 0001:00000000 000003c0H .text$di                CODE
 0001:000003c0 00043ff0H .text$mn                CODE
 0001:000443b0 00000040H .text$mn$00             CODE
 0001:000443f0 00000490H .text$x                 CODE
 0002:00000000 00000258H .idata$5                DATA
 0002:00000258 00000028H .00cfg                  DATA
 0002:00000280 00000008H .CRT$XCA                DATA
 0002:00000288 000001e0H .CRT$XCU                DATA
 0002:00000468 00000008H .CRT$XCZ                DATA
 0002:00000470 00000008H .CRT$XIA                DATA
 0002:00000478 00000018H .CRT$XIC                DATA
 0002:00000490 00000008H .CRT$XIZ                DATA
 0002:00000498 00000008H .CRT$XPA                DATA
 0002:000004a0 00000010H .CRT$XPX                DATA
 0002:000004b0 00000008H .CRT$XPXA               DATA
 0002:000004b8 00000008H .CRT$XPZ                DATA
 0002:000004c0 00000008H .CRT$XTA                DATA
 0002:000004c8 00000008H .CRT$XTZ                DATA
 0002:000004d0 00000000H .gehcont$y              DATA
 0002:000004d0 00000000H .gfids$y                DATA
 0002:000004d0 0000b5b0H .rdata                  DATA
 0002:0000ba80 00000000H .rdata$CastGuardVftablesA DATA
 0002:0000ba80 00000000H .rdata$CastGuardVftablesC DATA
 0002:0000ba80 0000043cH .rdata$r                DATA
 0002:0000bebc 00000024H .rdata$voltmd           DATA
 0002:0000bee0 00000418H .rdata$zzzdbg           DATA
 0002:0000c2f8 00000008H .rtc$IAA                DATA
 0002:0000c300 00000008H .rtc$IZZ                DATA
 0002:0000c308 00000008H .rtc$TAA                DATA
 0002:0000c310 00000008H .rtc$TZZ                DATA
 0002:0000c318 00003df0H .xdata                  DATA
 0002:00010108 00000084H .xdata$x                DATA
 0002:0001018c 00000040H .didat$2                DATA
 0002:000101cc 00000024H .didat$3                DATA
 0002:000101f0 00000188H .didat$4                DATA
 0002:00010378 00000950H .didat$6                DATA
 0002:00010cc8 00000188H .didat$7                DATA
 0002:00010e50 00001d00H .edata                  DATA
 0002:00012b50 00000014H .idata$2                DATA
 0002:00012b64 00000014H .idata$3                DATA
 0002:00012b78 00000258H .idata$4                DATA
 0002:00012dd0 0000057cH .idata$6                DATA
 0003:00000000 00000a30H .data                   DATA
 0003:00000a30 000005e8H .data$r                 DATA
 0003:00001018 000000f0H .data$rs                DATA
 0003:00001108 00000188H .didat$5                DATA
 0003:00001290 000015e0H .bss                    DATA
 0004:00000000 000032f4H .pdata                  DATA
 0005:00000000 0000230cH _RDATA                  DATA
 0006:00000000 000000a0H .rsrc$01                DATA
 0006:000000a0 000004b0H .rsrc$02                DATA

  Address         Publics by Value              Rva+Base               Lib:Object

 0000:00000000       __guard_longjmp_table      0000000000000000     <absolute>
 0000:00000000       __x64_code_ranges_to_entry_points_count 0000000000000000     <absolute>
 0000:00000000       __arm64x_redirection_metadata 0000000000000000     <absolute>
 0000:00000000       __guard_fids_count         0000000000000000     <absolute>
 0000:00000000       __guard_iat_table          0000000000000000     <absolute>
 0000:00000000       __arm64x_extra_rfe_table   0000000000000000     <absolute>
 0000:00000000       ___safe_se_handler_table   0000000000000000     <absolute>
 0000:00000000       __guard_iat_count          0000000000000000     <absolute>
 0000:00000000       __guard_longjmp_count      0000000000000000     <absolute>
 0000:00000000       __hybrid_code_map          0000000000000000     <absolute>
 0000:00000000       __dynamic_value_reloc_table 0000000000000000     <absolute>
 0000:00000000       __arm64x_extra_rfe_table_size 0000000000000000     <absolute>
 0000:00000000       ___safe_se_handler_count   0000000000000000     <absolute>
 0000:00000000       __hybrid_auxiliary_iat     0000000000000000     <absolute>
 0000:00000000       __x64_code_ranges_to_entry_points 0000000000000000     <absolute>
 0000:00000000       __hybrid_auxiliary_iat_copy 0000000000000000     <absolute>
 0000:00000000       __AbsoluteZero             0000000000000000     <absolute>
 0000:00000000       __guard_check_icall_a64n_fptr 0000000000000000     <absolute>
 0000:00000000       __guard_eh_cont_count      0000000000000000     <absolute>
 0000:00000000       __guard_fids_table         0000000000000000     <absolute>
 0000:00000000       __arm64x_redirection_metadata_count 0000000000000000     <absolute>
 0000:00000000       __enclave_config           0000000000000000     <absolute>
 0000:00000000       __guard_eh_cont_table      0000000000000000     <absolute>
 0000:00000000       __arm64x_native_entrypoint 0000000000000000     <absolute>
 0000:00000000       __hybrid_code_map_count    0000000000000000     <absolute>
 0000:00000100       __guard_flags              0000000000000100     <absolute>
 0000:00000000       __ImageBase                0000000180000000     <linker-defined>
 0001:000003c0       ??$?_UV?$ReflectionAllocator@VAdjTriangle@physx@@@shdfnd@physx@@@UserAllocated@shdfnd@physx@@SAPEAX_KV?$ReflectionAllocator@VAdjTriangle@physx@@@12@PEBDH@Z 00000001800013c0 f i Adjacencies.obj
 0001:00000460       ??0AdjacenciesBuilder@physx@@QEAA@XZ 0000000180001460 f   Adjacencies.obj
 0001:00000470       ??4Allocator@shdfnd@physx@@QEAAAEAV012@AEBV012@@Z 0000000180001470 f i Adjacencies.obj
 0001:00000470       ??0AABBTreeBuildNode@Gu@physx@@QEAA@XZ 0000000180001470 f i BVHStructureBuilder.obj
 0001:00000470       ??$forward@_K@std@@YA$$QEA_KAEA_K@Z 0000000180001470 f i libvcruntime:undname.obj
 0001:00000470       ??0HeightFieldData@Gu@physx@@QEAA@W4PxEMPTY@2@@Z 0000000180001470 f i Cooking.obj
 0001:00000470       ?getPaddedBounds@HeightFieldData@Gu@physx@@QEBAAEBVCenterExtentsPadded@23@XZ 0000000180001470 f i Cooking.obj
 0001:00000470       ??4Allocator@shdfnd@physx@@QEAAAEAV012@$$QEAV012@@Z 0000000180001470 f i Adjacencies.obj
 0001:00000470       ??0Box@Gu@physx@@QEAA@XZ   0000000180001470 f i ConvexHullUtils.obj
 0001:00000470       ??0BigConvexData@physx@@QEAA@W4PxEMPTY@1@@Z 0000000180001470 f i BigConvexDataBuilder.obj
 0001:00000470       ??4MutexImpl@shdfnd@physx@@QEAAAEAV012@AEBV012@@Z 0000000180001470 f i Adjacencies.obj
 0001:00000470       ??0Allocator@shdfnd@physx@@QEAA@PEBD@Z 0000000180001470 f i Adjacencies.obj
 0001:00000470       ?getAABB@AABBTreeBuildNode@Gu@physx@@QEBAAEBVPxBounds3@3@XZ 0000000180001470 f i BVHStructureBuilder.obj
 0001:00000470       ??4PxFoundation@physx@@QEAAAEAV01@AEBV01@@Z 0000000180001470 f i Adjacencies.obj
 0001:00000480       ??0PxFoundation@physx@@QEAA@XZ 0000000180001480 f i Adjacencies.obj
 0001:00000480       ??0PxFoundation@physx@@QEAA@AEBV01@@Z 0000000180001480 f i Adjacencies.obj
 0001:00000490       ??1Adjacencies@physx@@QEAA@XZ 0000000180001490 f   Adjacencies.obj
 0001:00000500       ??1AdjacenciesBuilder@physx@@QEAA@XZ 0000000180001500 f   Adjacencies.obj
 0001:00000510       ??1PxFoundation@physx@@MEAA@XZ 0000000180001510 f i Adjacencies.obj
 0001:00000520       ??_EPxFoundation@physx@@MEAAPEAXI@Z 0000000180001520 f i Adjacencies.obj
 0001:000005b0       ??1Box@Gu@physx@@QEAA@XZ   00000001800015b0 f i ConvexHullUtils.obj
 0001:000005b0       ??_FAllocator@shdfnd@physx@@QEAAXXZ 00000001800015b0 f i Adjacencies.obj
 0001:000005b0       ??1BigConvexDataBuilder@physx@@QEAA@XZ 00000001800015b0 f i BigConvexDataBuilder.obj
 0001:000005b0       ??1AABBTreeBuildNode@Gu@physx@@QEAA@XZ 00000001800015b0 f i BVHStructureBuilder.obj
 0001:000005b0       ??1HeightFieldData@Gu@physx@@QEAA@XZ 00000001800015b0 f i Cooking.obj
 0001:000005b0       ?onMeshIndexFormatChange@TriangleMeshBuilder@physx@@UEAAXXZ 00000001800015b0 f i TriangleMeshBuilder.obj
 0001:000005b0       _guard_check_icall_nop     00000001800015b0 f i LIBCMT:guard_support.obj
 0001:000005c0       ?ComputeNbBoundaryEdges@Adjacencies@physx@@QEBAIXZ 00000001800015c0 f   Adjacencies.obj
 0001:000008a0       ?GetNbHits@RadixSort@Cm@physx@@QEBAIXZ 00000001800018a0 f i Adjacencies.obj
 0001:000008b0       ?GetNbTotalCalls@RadixSort@Cm@physx@@QEBAIXZ 00000001800018b0 f i Adjacencies.obj
 0001:000008c0       ?GetRanks@RadixSort@Cm@physx@@QEBAPEBIXZ 00000001800018c0 f i Adjacencies.obj
 0001:000008c0       ?getErrorCallback@Foundation@shdfnd@physx@@UEAAAEAVPxErrorCallback@3@XZ 00000001800018c0 f i Adjacencies.obj
 0001:000008d0       ?getPos@AABBTreeBuildNode@Gu@physx@@QEBAPEBV123@XZ 00000001800018d0 f i BVHStructureBuilder.obj
 0001:000008d0       ?GetRecyclable@RadixSort@Cm@physx@@QEBAPEAIXZ 00000001800018d0 f i Adjacencies.obj
 0001:000008d0       ?GetValencies@BigConvexData@physx@@QEBAPEBUValency@Gu@2@XZ 00000001800018d0 f i BigConvexDataBuilder.obj
 0001:000008e0       ?Init@AdjacenciesBuilder@physx@@QEAA_NAEBUADJACENCIESCREATE@2@@Z 00000001800018e0 f   Adjacencies.obj
 0001:00000e90       ?getAllocator@Foundation@shdfnd@physx@@QEAAAEAVPxAllocatorCallback@3@XZ 0000000180001e90 f i Adjacencies.obj
 0001:00000ea0       ?getAllocatorCallback@Foundation@shdfnd@physx@@UEAAAEAVPxAllocatorCallback@3@XZ 0000000180001ea0 f i Adjacencies.obj
 0001:00000eb0       ?getErrorLevel@Foundation@shdfnd@physx@@UEBA?AW4Enum@PxErrorCode@3@XZ 0000000180001eb0 f i Adjacencies.obj
 0001:00000ec0       ?getInternalErrorCallback@Foundation@shdfnd@physx@@QEAAAEAVPxErrorCallback@3@XZ 0000000180001ec0 f i Adjacencies.obj
 0001:00000ed0       ?getNamedAllocMap@Foundation@shdfnd@physx@@QEAAAEAV?$HashMap@PEBVNamedAllocator@shdfnd@physx@@PEBDU?$Hash@PEBVNamedAllocator@shdfnd@physx@@@23@VNonTrackingAllocator@23@@23@XZ 0000000180001ed0 f i Adjacencies.obj
 0001:00000ee0       ?getNamedAllocMutex@Foundation@shdfnd@physx@@QEAAAEAV?$MutexT@VAllocator@shdfnd@physx@@@23@XZ 0000000180001ee0 f i Adjacencies.obj
 0001:00000ef0       ?getReportAllocationNames@Foundation@shdfnd@physx@@UEBA_NXZ 0000000180001ef0 f i Adjacencies.obj
 0001:00000f00       ?getTempAllocFreeTable@Foundation@shdfnd@physx@@QEAAAEAV?$Array@PEATTempAllocatorChunk@shdfnd@physx@@VAllocator@23@@23@XZ 0000000180001f00 f i Adjacencies.obj
 0001:00000f10       ?getTempAllocMutex@Foundation@shdfnd@physx@@QEAAAEAV?$MutexT@VAllocator@shdfnd@physx@@@23@XZ 0000000180001f10 f i Adjacencies.obj
 0001:00000f20       ?invalidateRanks@RadixSort@Cm@physx@@QEAAXXZ 0000000180001f20 f i Adjacencies.obj
 0001:00000f30       ?setErrorLevel@Foundation@shdfnd@physx@@UEAAXW4Enum@PxErrorCode@3@@Z 0000000180001f30 f i Adjacencies.obj
 0001:00000f40       ?setReportAllocationNames@Foundation@shdfnd@physx@@UEAAX_N@Z 0000000180001f40 f i Adjacencies.obj
 0001:00000f50       ??0DebugText@Cm@physx@@QEAA@$$QEAU012@@Z 0000000180001f50 f i Cooking.obj
 0001:00000f50       ??0DebugText@Cm@physx@@QEAA@AEBU012@@Z 0000000180001f50 f i Cooking.obj
 0001:00001030       ??4HeightFieldData@Gu@physx@@QEAAAEAU012@AEBU012@@Z 0000000180002030 f i Cooking.obj
 0001:00001030       ??0HeightFieldData@Gu@physx@@QEAA@AEBU012@@Z 0000000180002030 f i Cooking.obj
 0001:00001030       ??0HeightFieldData@Gu@physx@@QEAA@$$QEAU012@@Z 0000000180002030 f i Cooking.obj
 0001:00001030       ??4HeightFieldData@Gu@physx@@QEAAAEAU012@$$QEAU012@@Z 0000000180002030 f i Cooking.obj
 0001:00001090       ??0HeightFieldData@Gu@physx@@QEAA@XZ 0000000180002090 f i Cooking.obj
 0001:000010a0       ??0RenderOutput@Cm@physx@@QEAA@AEAVRenderBuffer@12@@Z 00000001800020a0 f i Cooking.obj
 0001:000010f0       ??0RenderOutput@Cm@physx@@QEAA@AEBV012@@Z 00000001800020f0 f i Cooking.obj
 0001:00001190       ??1PxHeightField@physx@@MEAA@XZ 0000000180002190 f i Cooking.obj
 0001:00001190       ??1PxConvexMesh@physx@@MEAA@XZ 0000000180002190 f i Cooking.obj
 0001:000011a0       ??4DebugText@Cm@physx@@QEAAAEAU012@AEBU012@@Z 00000001800021a0 f i Cooking.obj
 0001:000011a0       ??4DebugText@Cm@physx@@QEAAAEAU012@$$QEAU012@@Z 00000001800021a0 f i Cooking.obj
 0001:000012d0       ??4FPUGuard@shdfnd@physx@@QEAAAEAV012@AEBV012@@Z 00000001800022d0 f i Cooking.obj
 0001:000012f0       ??_ECooking@physx@@UEAAPEAXI@Z 00000001800022f0 f i Cooking.obj
 0001:000012f0       ??_GCooking@physx@@UEAAPEAXI@Z 00000001800022f0 f i Cooking.obj
 0001:00001340       ??_GPxBase@physx@@MEAAPEAXI@Z 0000000180002340 f i Cooking.obj
 0001:00001340       ??_EPxBase@physx@@MEAAPEAXI@Z 0000000180002340 f i Cooking.obj
 0001:00001370       ??_GPxCooking@physx@@MEAAPEAXI@Z 0000000180002370 f i Cooking.obj
 0001:00001370       ??_EPxCooking@physx@@MEAAPEAXI@Z 0000000180002370 f i Cooking.obj
 0001:000013a0       ?allocate@?$Array@UPxDebugLine@physx@@V?$ReflectionAllocator@UPxDebugLine@physx@@@shdfnd@2@@shdfnd@physx@@IEAAPEAUPxDebugLine@3@I@Z 00000001800023a0 f i Cooking.obj
 0001:00001440       ?computeHullPolygons@Cooking@physx@@UEBA_NAEBVPxSimpleTriangleMesh@2@AEAVPxAllocatorCallback@2@AEAIAEAPEAVPxVec3@2@2AEAPEAI2AEAPEAUPxHullPolygon@2@@Z 0000000180002440 f   Cooking.obj
 0001:00001620       ?cookBVHStructure@Cooking@physx@@UEBA_NAEBVPxBVHStructureDesc@2@AEAVPxOutputStream@2@@Z 0000000180002620 f   Cooking.obj
 0001:000016d0       ?cookConvexMesh@Cooking@physx@@UEBA_NAEBVPxConvexMeshDesc@2@AEAVPxOutputStream@2@PEAW4Enum@PxConvexMeshCookingResult@2@@Z 00000001800026d0 f   Cooking.obj
 0001:000018b0       ?cookConvexMeshInternal@Cooking@physx@@AEBA_NAEBVPxConvexMeshDesc@2@AEAVConvexMeshBuilder@2@PEAVConvexHullLib@2@PEAW4Enum@PxConvexMeshCookingResult@2@@Z 00000001800028b0 f   Cooking.obj
 0001:00001b20       ?cookHeightField@Cooking@physx@@UEBA_NAEBVPxHeightFieldDesc@2@AEAVPxOutputStream@2@@Z 0000000180002b20 f   Cooking.obj
 0001:00001bf0       ?cookTriangleMesh@Cooking@physx@@UEBA_NAEBVPxTriangleMeshDesc@2@AEAVPxOutputStream@2@PEAW4Enum@PxTriangleMeshCookingResult@2@@Z 0000000180002bf0 f   Cooking.obj
 0001:00001d30       ?copy@?$Array@UPxDebugLine@physx@@V?$ReflectionAllocator@UPxDebugLine@physx@@@shdfnd@2@@shdfnd@physx@@KAXPEAUPxDebugLine@3@0PEBU43@@Z 0000000180002d30 f i Cooking.obj
 0001:00001ee0       ?createBVHStructure@Cooking@physx@@UEBAPEAVPxBVHStructure@2@AEBVPxBVHStructureDesc@2@AEAVPxPhysicsInsertionCallback@2@@Z 0000000180002ee0 f   Cooking.obj
 0001:00001f90       ?createConvexMesh@Cooking@physx@@UEBAPEAVPxConvexMesh@2@AEBVPxConvexMeshDesc@2@AEAVPxPhysicsInsertionCallback@2@PEAW4Enum@PxConvexMeshCookingResult@2@@Z 0000000180002f90 f   Cooking.obj
 0001:00002190       ?createHeightField@Cooking@physx@@UEBAPEAVPxHeightField@2@AEBVPxHeightFieldDesc@2@AEAVPxPhysicsInsertionCallback@2@@Z 0000000180003190 f   Cooking.obj
 0001:000022f0       ?createTriangleMesh@Cooking@physx@@UEBAPEAVPxTriangleMesh@2@AEBVPxTriangleMeshDesc@2@AEAVPxPhysicsInsertionCallback@2@PEAW4Enum@PxTriangleMeshCookingResult@2@@Z 00000001800032f0 f   Cooking.obj
 0001:00002440       ?getConcreteTypeName@PxConvexMesh@physx@@UEBAPEBDXZ 0000000180003440 f i Cooking.obj
 0001:00002450       ?getConcreteTypeName@PxHeightField@physx@@UEBAPEBDXZ 0000000180003450 f i Cooking.obj
 0001:00002460       ?getConvexEdgeThreshold@HeightField@Gu@physx@@UEBAMXZ 0000000180003460 f i Cooking.obj
 0001:00002470       ?getFlags@HeightField@Gu@physx@@UEBA?AV?$PxFlags@W4Enum@PxHeightFieldFlag@physx@@G@3@XZ 0000000180003470 f i Cooking.obj
 0001:00002480       ?getFormat@HeightField@Gu@physx@@UEBA?AW4Enum@PxHeightFieldFormat@3@XZ 0000000180003480 f i Cooking.obj
 0001:00002490       ?getHeight@HeightField@Gu@physx@@UEBAMMM@Z 0000000180003490 f i Cooking.obj
 0001:000024d0       ?getHeightInternal2@HeightField@Gu@physx@@QEBAMIMM@Z 00000001800034d0 f i Cooking.obj
 0001:00002640       ?getIndexBuffer@ConvexMesh@Gu@physx@@UEBAPEBEXZ 0000000180003640 f i Cooking.obj
 0001:00002680       ?getNbColumns@HeightField@Gu@physx@@UEBAIXZ 0000000180003680 f i Cooking.obj
 0001:00002690       ?getNbPolygons@ConvexMesh@Gu@physx@@UEBAIXZ 0000000180003690 f i Cooking.obj
 0001:000026a0       ?getNbRows@HeightField@Gu@physx@@UEBAIXZ 00000001800036a0 f i Cooking.obj
 0001:000026b0       ?getNbVertices@ConvexMesh@Gu@physx@@UEBAIXZ 00000001800036b0 f i Cooking.obj
 0001:000026c0       ?getDenormalizeScale@QuantizerImpl@@UEBAAEBVPxVec3@physx@@XZ 00000001800036c0 f   Quantizer.obj
 0001:000026c0       ?getParams@Cooking@physx@@UEBAAEBUPxCookingParams@2@XZ 00000001800036c0 f   Cooking.obj
 0001:000026d0       ?getSample@HeightField@Gu@physx@@UEBAAEBUPxHeightFieldSample@3@II@Z 00000001800036d0 f i Cooking.obj
 0001:000026e0       ?getSampleStride@HeightField@Gu@physx@@UEBAIXZ 00000001800036e0 f i Cooking.obj
 0001:000026f0       ?getTimestamp@HeightField@Gu@physx@@UEBAIXZ 00000001800036f0 f i Cooking.obj
 0001:00002700       ?getTriangleMaterialIndex@HeightField@Gu@physx@@UEBAGI@Z 0000000180003700 f i Cooking.obj
 0001:00002730       ?getTriangleNormal@HeightField@Gu@physx@@UEBA?AVPxVec3@3@I@Z 0000000180003730 f i Cooking.obj
 0001:00002830       ?getVertices@ConvexMesh@Gu@physx@@UEBAPEBVPxVec3@3@XZ 0000000180003830 f i Cooking.obj
 0001:00002850       ?isKindOf@PxBase@physx@@MEBA_NPEBD@Z 0000000180003850 f i Cooking.obj
 0001:00002880       ?isKindOf@PxConvexMesh@physx@@MEBA_NPEBD@Z 0000000180003880 f i Cooking.obj
 0001:000028d0       ?isKindOf@PxHeightField@physx@@MEBA_NPEBD@Z 00000001800038d0 f i Cooking.obj
 0001:00002920       ?isReleasable@PxBase@physx@@UEBA_NXZ 0000000180003920 f i Cooking.obj
 0001:00002930       ?outputSegment@RenderOutput@Cm@physx@@QEAAXAEBVPxVec3@3@0@Z 0000000180003930 f i Cooking.obj
 0001:000029f0       ?platformMismatch@Cooking@physx@@UEBA_NXZ 00000001800039f0 f   Cooking.obj
 0001:00002a00       ?preExportDataReset@ConvexMesh@Gu@physx@@QEAAXXZ 0000000180003a00 f i Cooking.obj
 0001:00002a00       ?preExportDataReset@HeightField@Gu@physx@@QEAAXXZ 0000000180003a00 f i Cooking.obj
 0001:00002a10       ?recreate@?$Array@UPxDebugLine@physx@@V?$ReflectionAllocator@UPxDebugLine@physx@@@shdfnd@2@@shdfnd@physx@@IEAAXI@Z 0000000180003a10 f i Cooking.obj
 0001:00002aa0       ?release@Cooking@physx@@UEAAXXZ 0000000180003aa0 f   Cooking.obj
 0001:00002ac0       ?reserveSegments@RenderOutput@Cm@physx@@QEAAPEAUPxDebugLine@3@I@Z 0000000180003ac0 f i Cooking.obj
 0001:00002b30       ?setParams@Cooking@physx@@UEAAXAEBUPxCookingParams@2@@Z 0000000180003b30 f   Cooking.obj
 0001:00002b90       ?validateConvexMesh@Cooking@physx@@UEBA_NAEBVPxConvexMeshDesc@2@@Z 0000000180003b90 f   Cooking.obj
 0001:00002bf0       ?validateTriangleMesh@Cooking@physx@@UEBA_NAEBVPxTriangleMeshDesc@2@@Z 0000000180003bf0 f   Cooking.obj
 0001:00002d00       PxCreateCooking            0000000180003d00 f   Cooking.obj
 0001:00002df0       ??0ReducedVertexCloud@physx@@QEAA@PEBVPxVec3@1@I@Z 0000000180003df0 f   CookingUtils.obj
 0001:00002e10       ??1ReducedVertexCloud@physx@@QEAA@XZ 0000000180003e10 f   CookingUtils.obj
 0001:00002e20       ?Clean@ReducedVertexCloud@physx@@QEAAAEAV12@XZ 0000000180003e20 f   CookingUtils.obj
 0001:00002e90       ?Reduce@ReducedVertexCloud@physx@@QEAA_NPEAUREDUCEDCLOUD@2@@Z 0000000180003e90 f   CookingUtils.obj
 0001:000031b0       ??$?_UI@@YAPEAX_KV?$ReflectionAllocator@I@shdfnd@physx@@PEBDH@Z 00000001800041b0 f i EdgeList.obj
 0001:00003250       ??0EdgeListBuilder@Gu@physx@@QEAA@XZ 0000000180004250 f   EdgeList.obj
 0001:00003270       ??1EdgeList@Gu@physx@@QEAA@XZ 0000000180004270 f   EdgeList.obj
 0001:00003310       ??1EdgeListBuilder@Gu@physx@@QEAA@XZ 0000000180004310 f   EdgeList.obj
 0001:00003320       ?computeActiveEdges@EdgeListBuilder@Gu@physx@@AEAA_NIPEBIPEBGPEBVPxVec3@3@M@Z 0000000180004320 f   EdgeList.obj
 0001:00004960       ?createEdgesToFaces@EdgeListBuilder@Gu@physx@@AEAA_NIPEBIPEBG@Z 0000000180005960 f   EdgeList.obj
 0001:00004bc0       ?createFacesToEdges@EdgeListBuilder@Gu@physx@@AEAA_NIPEBIPEBG@Z 0000000180005bc0 f   EdgeList.obj
 0001:00005030       ?init@EdgeListBuilder@Gu@physx@@QEAA_NAEBUEDGELISTCREATE@23@@Z 0000000180006030 f   EdgeList.obj
 0001:00005160       ??0MeshCleaner@physx@@QEAA@IPEBVPxVec3@1@IPEBIM@Z 0000000180006160 f   MeshCleaner.obj
 0001:00005b00       ??1MeshCleaner@physx@@QEAA@XZ 0000000180006b00 f   MeshCleaner.obj
 0001:00005b90       ??$kmeans_cluster@VPxVec3@physx@@M@@YAIPEBVPxVec3@physx@@IIPEAV01@PEAIMM@Z 0000000180006b90 f i Quantizer.obj
 0001:000064b0       ??_EQuantizer@physx@@MEAAPEAXI@Z 00000001800074b0 f i Quantizer.obj
 0001:000064b0       ??_GQuantizer@physx@@MEAAPEAXI@Z 00000001800074b0 f i Quantizer.obj
 0001:000064e0       ??_EQuantizerImpl@@EEAAPEAXI@Z 00000001800074e0 f i Quantizer.obj
 0001:000064e0       ??_GQuantizerImpl@@EEAAPEAXI@Z 00000001800074e0 f i Quantizer.obj
 0001:000065b0       ?createQuantizer@physx@@YAPEAVQuantizer@1@XZ 00000001800075b0 f   Quantizer.obj
 0001:00006660       ?getDenormalizeCenter@QuantizerImpl@@UEBAAEBVPxVec3@physx@@XZ 0000000180007660 f i Quantizer.obj
 0001:00006670       ?growAndPushBack@?$Array@VPxVec3@physx@@V?$ReflectionAllocator@VPxVec3@physx@@@shdfnd@2@@shdfnd@physx@@IEAAAEAVPxVec3@3@AEBV43@@Z 0000000180007670 f i Quantizer.obj
 0001:00006840       ?kmeansQuantize3D@QuantizerImpl@@UEAAPEBVPxVec3@physx@@IPEBV23@I_NIAEAI@Z 0000000180007840 f i Quantizer.obj
 0001:00006aa0       ?normalizeInput@QuantizerImpl@@AEAAXIPEBVPxVec3@physx@@I@Z 0000000180007aa0 f i Quantizer.obj
 0001:00006ed0       ?release@QuantizerImpl@@UEAAXXZ 0000000180007ed0 f i Quantizer.obj
 0001:00006ef0       ??$copy@V?$ReflectionAllocator@USlab@NodeAllocator@Gu@physx@@@shdfnd@physx@@@?$Array@USlab@NodeAllocator@Gu@physx@@V?$ReflectionAllocator@USlab@NodeAllocator@Gu@physx@@@shdfnd@4@@shdfnd@physx@@IEAAXAEBV012@@Z 0000000180007ef0 f i BVHStructureBuilder.obj
 0001:00006f70       ??0AABBTreeBuildNode@Gu@physx@@QEAA@AEBV012@@Z 0000000180007f70 f i BVHStructureBuilder.obj
 0001:00006f70       ??4AABBTreeBuildNode@Gu@physx@@QEAAAEAV012@AEBV012@@Z 0000000180007f70 f i BVHStructureBuilder.obj
 0001:00006fb0       ??0AABBTreeBuildParams@Gu@physx@@QEAA@IIPEBVPxBounds3@2@@Z 0000000180007fb0 f i BVHStructureBuilder.obj
 0001:00006fd0       ??0BVHStructureBuilder@physx@@QEAA@XZ 0000000180007fd0 f   BVHStructureBuilder.obj
 0001:00006ff0       ??0BuildStats@Gu@physx@@QEAA@XZ 0000000180007ff0 f i BVHStructureBuilder.obj
 0001:00007000       ??0NodeAllocator@Gu@physx@@QEAA@AEBV012@@Z 0000000180008000 f i BVHStructureBuilder.obj
 0001:00007040       ??1AABBTreeBuildParams@Gu@physx@@QEAA@XZ 0000000180008040 f i BVHStructureBuilder.obj
 0001:00007040       ?reset@AABBTreeBuildParams@Gu@physx@@QEAAXXZ 0000000180008040 f i BVHStructureBuilder.obj
 0001:000070a0       ??1BVHStructureBuilder@physx@@QEAA@XZ 00000001800080a0 f   BVHStructureBuilder.obj
 0001:00007120       ??4AABBTreeBuildParams@Gu@physx@@QEAAAEAV012@AEBV012@@Z 0000000180008120 f i BVHStructureBuilder.obj
 0001:00007140       ??4BuildStats@Gu@physx@@QEAAAEAU012@$$QEAU012@@Z 0000000180008140 f i BVHStructureBuilder.obj
 0001:00007150       ??4BuildStats@Gu@physx@@QEAAAEAU012@AEBU012@@Z 0000000180008150 f i BVHStructureBuilder.obj
 0001:00007160       ??4NodeAllocator@Gu@physx@@QEAAAEAV012@AEBV012@@Z 0000000180008160 f i BVHStructureBuilder.obj
 0001:00007210       ??_FAABBTreeBuildParams@Gu@physx@@QEAAXXZ 0000000180008210 f i BVHStructureBuilder.obj
 0001:00007230       ??_V@YAXPEAX_K@Z           0000000180008230 f i LIBCMT:delete_array_size.obj
 0001:00007230       ?__global_delete@@YAXPEAX_K@Z 0000000180008230 f i BVHStructureBuilder.obj
 0001:00007240       ?allocate@?$Array@USlab@NodeAllocator@Gu@physx@@V?$ReflectionAllocator@USlab@NodeAllocator@Gu@physx@@@shdfnd@4@@shdfnd@physx@@IEAAPEAUSlab@NodeAllocator@Gu@3@I@Z 0000000180008240 f i BVHStructureBuilder.obj
 0001:000072e0       ?getCount@BuildStats@Gu@physx@@QEBAIXZ 00000001800082e0 f i BVHStructureBuilder.obj
 0001:000072f0       ?getNbRuntimePrimitives@AABBTreeBuildNode@Gu@physx@@QEBAIXZ 00000001800082f0 f i BVHStructureBuilder.obj
 0001:000072f0       ?getNbPrimitives@AABBTreeBuildNode@Gu@physx@@QEBAIXZ 00000001800082f0 f i BVHStructureBuilder.obj
 0001:00007300       ?getNeg@AABBTreeBuildNode@Gu@physx@@QEBAPEBV123@XZ 0000000180008300 f i BVHStructureBuilder.obj
 0001:00007320       ?getPrimitives@AABBTreeBuildNode@Gu@physx@@QEBAPEBIPEBI@Z 0000000180008320 f i BVHStructureBuilder.obj
 0001:00007320       ?getPrimitives@AABBTreeBuildNode@Gu@physx@@QEAAPEAIPEAI@Z 0000000180008320 f i BVHStructureBuilder.obj
 0001:00007330       ?increaseCount@BuildStats@Gu@physx@@QEAAXI@Z 0000000180008330 f i BVHStructureBuilder.obj
 0001:00007340       ?isLeaf@AABBTreeBuildNode@Gu@physx@@QEBA_NXZ 0000000180008340 f i BVHStructureBuilder.obj
 0001:00007350       ?loadFromDesc@BVHStructureBuilder@physx@@QEAA_NAEBVPxBVHStructureDesc@2@@Z 0000000180008350 f   BVHStructureBuilder.obj
 0001:00007820       ?moveData@BVHStructureBuilder@physx@@QEAAXAEAUBVHStructureData@Gu@2@@Z 0000000180008820 f   BVHStructureBuilder.obj
 0001:00007860       ?recreate@?$Array@USlab@NodeAllocator@Gu@physx@@V?$ReflectionAllocator@USlab@NodeAllocator@Gu@physx@@@shdfnd@4@@shdfnd@physx@@IEAAXI@Z 0000000180008860 f i BVHStructureBuilder.obj
 0001:00007910       ?reset@BuildStats@Gu@physx@@QEAAXXZ 0000000180008910 f i BVHStructureBuilder.obj
 0001:00007920       ?save@BVHStructureBuilder@physx@@QEBA_NAEAVPxOutputStream@2@_N@Z 0000000180008920 f   BVHStructureBuilder.obj
 0001:00007aa0       ?setCount@BuildStats@Gu@physx@@QEAAXI@Z 0000000180008aa0 f i BVHStructureBuilder.obj
 0001:00007ab0       ?setNbRunTimePrimitives@AABBTreeBuildNode@Gu@physx@@QEAAXI@Z 0000000180008ab0 f i BVHStructureBuilder.obj
 0001:00007ac0       ?saveHeightField@physx@@YA_NAEBVHeightField@Gu@1@AEAVPxOutputStream@1@_N@Z 0000000180008ac0 f   HeightFieldCooking.obj
 0001:00007d00       ??$quickSelectFirstK@UBoundsLTE@physx@@@quickSelect@physx@@YAXPEIAIIIIAEBUBoundsLTE@1@@Z 0000000180008d00 f i RTreeCooking.obj
 0001:00007ee0       ??$smallSort@I$$CBUSortBoundsPredicate@physx@@@internal@shdfnd@physx@@YAXPEAIHHAEBUSortBoundsPredicate@2@@Z 0000000180008ee0 f i RTreeCooking.obj
 0001:000081b0       ??$sort@IU?$Less@I@shdfnd@physx@@V?$ReflectionAllocator@I@23@@shdfnd@physx@@YAXPEAIIAEBU?$Less@I@01@AEBV?$ReflectionAllocator@I@01@I@Z 00000001800091b0 f i RTreeCooking.obj
 0001:00008600       ??$sort@IUSortBoundsPredicate@physx@@V?$ReflectionAllocator@I@shdfnd@2@@shdfnd@physx@@YAXPEAIIAEBUSortBoundsPredicate@1@AEBV?$ReflectionAllocator@I@01@I@Z 0000000180009600 f i RTreeCooking.obj
 0001:00008b00       ?allocate@?$Array@UInterval@physx@@V?$InlineAllocator@$0CAAA@V?$ReflectionAllocator@UInterval@physx@@@shdfnd@physx@@@shdfnd@2@@shdfnd@physx@@IEAAPEAUInterval@3@I@Z 0000000180009b00 f i RTreeCooking.obj
 0001:00008bc0       ?allocate@?$Array@UPxBounds3V@physx@@V?$ReflectionAllocator@UPxBounds3V@physx@@@shdfnd@2@@shdfnd@physx@@IEAAPEAUPxBounds3V@3@I@Z 0000000180009bc0 f i RTreeCooking.obj
 0001:00008c60       ?allocate@?$Array@URTreeNodeNQ@physx@@V?$ReflectionAllocator@URTreeNodeNQ@physx@@@shdfnd@2@@shdfnd@physx@@IEAAPEAURTreeNodeNQ@3@I@Z 0000000180009c60 f i RTreeCooking.obj
 0001:00008d00       ?allocate@?$Array@URTreeNodeQ@Gu@physx@@V?$ReflectionAllocator@URTreeNodeQ@Gu@physx@@@shdfnd@3@@shdfnd@physx@@IEAAPEAURTreeNodeQ@Gu@3@I@Z 0000000180009d00 f i RTreeCooking.obj
 0001:00008da0       ?allocate@?$Array@VPxVec3@physx@@V?$ReflectionAllocator@VPxVec3@physx@@@shdfnd@2@@shdfnd@physx@@IEAAPEAVPxVec3@3@I@Z 0000000180009da0 f i RTreeCooking.obj
 0001:00008e40       ?allocate@?$ReflectionAllocator@I@shdfnd@physx@@QEAAPEAX_KPEBDH@Z 0000000180009e40 f i RTreeCooking.obj
 0001:00009b10       ?buildFromTriangles@RTreeCooker@physx@@SAXAEAURTree@Gu@2@PEBVPxVec3@2@IPEBGPEBIIAEAV?$Array@IV?$ReflectionAllocator@I@shdfnd@physx@@@shdfnd@2@PEAURemapCallback@12@MW4Enum@PxMeshCookingHint@2@@Z 000000018000ab10 f   RTreeCooking.obj
 0001:00009db0       ?copy@?$Array@URTreeNodeNQ@physx@@V?$ReflectionAllocator@URTreeNodeNQ@physx@@@shdfnd@2@@shdfnd@physx@@KAXPEAURTreeNodeNQ@3@0PEBU43@@Z 000000018000adb0 f i RTreeCooking.obj
 0001:00009f70       ?copy@?$Array@VPxVec3@physx@@V?$ReflectionAllocator@VPxVec3@physx@@@shdfnd@2@@shdfnd@physx@@KAXPEAVPxVec3@3@0PEBV43@@Z 000000018000af70 f i RTreeCooking.obj
 0001:0000a040       ?growAndPushBack@?$Array@IV?$ReflectionAllocator@I@shdfnd@physx@@@shdfnd@physx@@IEAAAEAIAEBI@Z 000000018000b040 f i RTreeCooking.obj
 0001:0000a110       ?growAndPushBack@?$Array@UInterval@physx@@V?$InlineAllocator@$0CAAA@V?$ReflectionAllocator@UInterval@physx@@@shdfnd@physx@@@shdfnd@2@@shdfnd@physx@@IEAAAEAUInterval@3@AEBU43@@Z 000000018000b110 f i RTreeCooking.obj
 0001:0000a1f0       ?growAndPushBack@?$Array@UPxBounds3V@physx@@V?$ReflectionAllocator@UPxBounds3V@physx@@@shdfnd@2@@shdfnd@physx@@IEAAAEAUPxBounds3V@3@AEBU43@@Z 000000018000b1f0 f i RTreeCooking.obj
 0001:0000a2c0       ?growAndPushBack@?$Array@URTreeNodeNQ@physx@@V?$ReflectionAllocator@URTreeNodeNQ@physx@@@shdfnd@2@@shdfnd@physx@@IEAAAEAURTreeNodeNQ@3@AEBU43@@Z 000000018000b2c0 f i RTreeCooking.obj
 0001:0000a390       ?growAndPushBack@?$Array@URTreeNodeQ@Gu@physx@@V?$ReflectionAllocator@URTreeNodeQ@Gu@physx@@@shdfnd@3@@shdfnd@physx@@IEAAAEAURTreeNodeQ@Gu@3@AEBU453@@Z 000000018000b390 f i RTreeCooking.obj
 0001:0000a470       ?recreate@?$Array@IV?$ReflectionAllocator@I@shdfnd@physx@@@shdfnd@physx@@IEAAXI@Z 000000018000b470 f i RTreeCooking.obj
 0001:0000a530       ?recreate@?$Array@UPxBounds3V@physx@@V?$ReflectionAllocator@UPxBounds3V@physx@@@shdfnd@2@@shdfnd@physx@@IEAAXI@Z 000000018000b530 f i RTreeCooking.obj
 0001:0000a5e0       ?recreate@?$Array@URTreeNodeNQ@physx@@V?$ReflectionAllocator@URTreeNodeNQ@physx@@@shdfnd@2@@shdfnd@physx@@IEAAXI@Z 000000018000b5e0 f i RTreeCooking.obj
 0001:0000a670       ?recreate@?$Array@URTreeNodeQ@Gu@physx@@V?$ReflectionAllocator@URTreeNodeQ@Gu@physx@@@shdfnd@3@@shdfnd@physx@@IEAAXI@Z 000000018000b670 f i RTreeCooking.obj
 0001:0000a730       ?recreate@?$Array@VPxVec3@physx@@V?$ReflectionAllocator@VPxVec3@physx@@@shdfnd@2@@shdfnd@physx@@IEAAXI@Z 000000018000b730 f i RTreeCooking.obj
 0001:0000a7c0       ?resize@?$Array@IV?$ReflectionAllocator@I@shdfnd@physx@@@shdfnd@physx@@QEAAXIAEBI@Z 000000018000b7c0 f i RTreeCooking.obj
 0001:0000a880       ?resizeUninitialized@?$Array@URTreeNodeNQ@physx@@V?$ReflectionAllocator@URTreeNodeNQ@physx@@@shdfnd@2@@shdfnd@physx@@QEAAXI@Z 000000018000b880 f i RTreeCooking.obj
 0001:0000a8c0       ?sort4@SubSortQuick@physx@@QEAAXPEIAIIAEAV?$Array@URTreeNodeNQ@physx@@V?$ReflectionAllocator@URTreeNodeNQ@physx@@@shdfnd@2@@shdfnd@2@AEAIAEAUPxBounds3V@2@I@Z 000000018000b8c0 f i RTreeCooking.obj
 0001:0000ac50       ?sort4@SubSortSAH@physx@@QEAAXPEAIIAEAV?$Array@URTreeNodeNQ@physx@@V?$ReflectionAllocator@URTreeNodeNQ@physx@@@shdfnd@2@@shdfnd@2@AEAIIPEAURTreeNodeNQ@2@@Z 000000018000bc50 f i RTreeCooking.obj
 0001:0000b4a0       ?split@SubSortSAH@physx@@QEAAIPEAII@Z 000000018000c4a0 f i RTreeCooking.obj
 0001:0000bea0       ?computeLocalBounds@MeshBulider@physx@@IEAAXAEAVMeshDataBase@Gu@2@@Z 000000018000cea0 f   MeshBuilder.obj
 0001:0000bf30       ??$?_UG@@YAPEAX_KV?$ReflectionAllocator@G@shdfnd@physx@@PEBDH@Z 000000018000cf30 f i TriangleMeshBuilder.obj
 0001:0000bfd0       ??$sort@UEdgeTriLookup@physx@@U?$Less@UEdgeTriLookup@physx@@@shdfnd@2@V?$ReflectionAllocator@UEdgeTriLookup@physx@@@42@@shdfnd@physx@@YAXPEAUEdgeTriLookup@1@IAEBU?$Less@UEdgeTriLookup@physx@@@01@AEBV?$ReflectionAllocator@UEdgeTriLookup@physx@@@01@I@Z 000000018000cfd0 f i TriangleMeshBuilder.obj
 0001:0000c550       ??0BV4TriangleMeshBuilder@physx@@QEAA@AEBUPxCookingParams@1@@Z 000000018000d550 f   TriangleMeshBuilder.obj
 0001:0000c620       ??0RTreeTriangleMeshBuilder@physx@@QEAA@AEBUPxCookingParams@1@@Z 000000018000d620 f   TriangleMeshBuilder.obj
 0001:0000c6e0       ??1BV4TriangleMeshBuilder@physx@@UEAA@XZ 000000018000d6e0 f   TriangleMeshBuilder.obj
 0001:0000c740       ??1MeshDataBase@Gu@physx@@UEAA@XZ 000000018000d740 f i TriangleMeshBuilder.obj
 0001:0000c820       ??1RTreeTriangleData@Gu@physx@@UEAA@XZ 000000018000d820 f i TriangleMeshBuilder.obj
 0001:0000c890       ??1RTreeTriangleMeshBuilder@physx@@UEAA@XZ 000000018000d890 f   TriangleMeshBuilder.obj
 0001:0000c8c0       ??1TriangleMeshBuilder@physx@@UEAA@XZ 000000018000d8c0 f   TriangleMeshBuilder.obj
 0001:0000c920       ??1TriangleMeshData@Gu@physx@@UEAA@XZ 000000018000d920 f i TriangleMeshBuilder.obj
 0001:0000c9f0       ??_EBV4TriangleData@Gu@physx@@UEAAPEAXI@Z 000000018000d9f0 f i TriangleMeshBuilder.obj
 0001:0000c9f0       ??_GBV4TriangleData@Gu@physx@@UEAAPEAXI@Z 000000018000d9f0 f i TriangleMeshBuilder.obj
 0001:0000ca70       ??_EBV4TriangleMeshBuilder@physx@@UEAAPEAXI@Z 000000018000da70 f i TriangleMeshBuilder.obj
 0001:0000ca70       ??_GBV4TriangleMeshBuilder@physx@@UEAAPEAXI@Z 000000018000da70 f i TriangleMeshBuilder.obj
 0001:0000caf0       ??_EMeshDataBase@Gu@physx@@UEAAPEAXI@Z 000000018000daf0 f i TriangleMeshBuilder.obj
 0001:0000caf0       ??_GMeshDataBase@Gu@physx@@UEAAPEAXI@Z 000000018000daf0 f i TriangleMeshBuilder.obj
 0001:0000cb50       ??_GRTreeCookerRemap@physx@@UEAAPEAXI@Z 000000018000db50 f i TriangleMeshBuilder.obj
 0001:0000cb50       ??_ERTreeCookerRemap@physx@@UEAAPEAXI@Z 000000018000db50 f i TriangleMeshBuilder.obj
 0001:0000cb80       ??_GRTreeTriangleData@Gu@physx@@UEAAPEAXI@Z 000000018000db80 f i TriangleMeshBuilder.obj
 0001:0000cb80       ??_ERTreeTriangleData@Gu@physx@@UEAAPEAXI@Z 000000018000db80 f i TriangleMeshBuilder.obj
 0001:0000cbe0       ??_ERTreeTriangleMeshBuilder@physx@@UEAAPEAXI@Z 000000018000dbe0 f i TriangleMeshBuilder.obj
 0001:0000cbe0       ??_GRTreeTriangleMeshBuilder@physx@@UEAAPEAXI@Z 000000018000dbe0 f i TriangleMeshBuilder.obj
 0001:0000cc30       ??_ERemapCallback@RTreeCooker@physx@@UEAAPEAXI@Z 000000018000dc30 f i TriangleMeshBuilder.obj
 0001:0000cc30       ??_GRemapCallback@RTreeCooker@physx@@UEAAPEAXI@Z 000000018000dc30 f i TriangleMeshBuilder.obj
 0001:0000cc60       ??_ETriangleMeshBuilder@physx@@UEAAPEAXI@Z 000000018000dc60 f i TriangleMeshBuilder.obj
 0001:0000cc60       ??_GTriangleMeshBuilder@physx@@UEAAPEAXI@Z 000000018000dc60 f i TriangleMeshBuilder.obj
 0001:0000cca0       ??_GTriangleMeshData@Gu@physx@@UEAAPEAXI@Z 000000018000dca0 f i TriangleMeshBuilder.obj
 0001:0000cca0       ??_ETriangleMeshData@Gu@physx@@UEAAPEAXI@Z 000000018000dca0 f i TriangleMeshBuilder.obj
 0001:0000cd00       ?allocateTriangles@TriangleMeshData@Gu@physx@@QEAAPEAXI_NI@Z 000000018000dd00 f i TriangleMeshBuilder.obj
 0001:0000cde0       ?allocateVertices@MeshDataBase@Gu@physx@@QEAAPEAVPxVec3@3@I@Z 000000018000dde0 f i TriangleMeshBuilder.obj
 0001:0000d320       ?checkMeshIndicesSize@TriangleMeshBuilder@physx@@QEAAXXZ 000000018000e320 f   TriangleMeshBuilder.obj
 0001:0000d430       ?cleanMesh@TriangleMeshBuilder@physx@@QEAA_N_NPEAW4Enum@PxTriangleMeshCookingResult@2@@Z 000000018000e430 f   TriangleMeshBuilder.obj
 0001:0000d920       ?createGRBMidPhaseAndData@TriangleMeshBuilder@physx@@QEAAXI@Z 000000018000e920 f   TriangleMeshBuilder.obj
 0001:0000dba0       ?createMidPhaseStructure@BV32TriangleMeshBuilder@physx@@SAXAEBUPxCookingParams@2@AEAVTriangleMeshData@Gu@2@AEAVBV32Tree@52@@Z 000000018000eba0 f   TriangleMeshBuilder.obj
 0001:0000dd70       ?createMidPhaseStructure@BV4TriangleMeshBuilder@physx@@UEAAXXZ 000000018000ed70 f   TriangleMeshBuilder.obj
 0001:0000e030       ?createMidPhaseStructure@RTreeTriangleMeshBuilder@physx@@UEAAXXZ 000000018000f030 f   TriangleMeshBuilder.obj
 0001:0000e110       ?createSharedEdgeData@TriangleMeshBuilder@physx@@QEAAX_N0@Z 000000018000f110 f   TriangleMeshBuilder.obj
 0001:0000e7c0       ?raw_length@charNode@@UEBAHXZ 000000018000f7c0 f i libvcruntime:undname.obj
 0001:0000e7c0       _get_startup_argv_mode     000000018000f7c0 f i LIBCMT:argv_mode.obj
 0001:0000e7c0       ?getMidphaseID@BV4TriangleMeshBuilder@physx@@UEBA?AW4Enum@PxMeshMidPhase@2@XZ 000000018000f7c0 f i TriangleMeshBuilder.obj
 0001:0000e7c0       DllMain                    000000018000f7c0 f i LIBCMT:dll_dllmain_stub.obj
 0001:0000e7c0       ?length@charNode@@UEBAHXZ  000000018000f7c0 f i libvcruntime:undname.obj
 0001:0000e7d0       ?getMidphaseID@RTreeTriangleMeshBuilder@physx@@UEBA?AW4Enum@PxMeshMidPhase@2@XZ 000000018000f7d0 f i TriangleMeshBuilder.obj
 0001:0000e7e0       ?importMesh@TriangleMeshBuilder@physx@@IEAA_NAEBVPxTriangleMeshDesc@2@AEBUPxCookingParams@2@PEAW4Enum@PxTriangleMeshCookingResult@2@_N@Z 000000018000f7e0 f   TriangleMeshBuilder.obj
 0001:0000eb60       ?loadFromDesc@TriangleMeshBuilder@physx@@QEAA_NAEBVPxTriangleMeshDesc@2@PEAW4Enum@PxTriangleMeshCookingResult@2@_N@Z 000000018000fb60 f   TriangleMeshBuilder.obj
 0001:0000efe0       ?onMeshIndexFormatChange@BV4TriangleMeshBuilder@physx@@UEAAXXZ 000000018000ffe0 f   TriangleMeshBuilder.obj
 0001:0000f020       ?remap@RTreeCookerRemap@physx@@UEAAXPEAIII@Z 0000000180010020 f i TriangleMeshBuilder.obj
 0001:0000f040       ?remapTopology@TriangleMeshBuilder@physx@@QEAAXPEBI@Z 0000000180010040 f   TriangleMeshBuilder.obj
 0001:0000f340       ?save@TriangleMeshBuilder@physx@@QEBA_NAEAVPxOutputStream@2@_NAEBUPxCookingParams@2@@Z 0000000180010340 f   TriangleMeshBuilder.obj
 0001:0000f910       ?saveMidPhaseStructure@BV4TriangleMeshBuilder@physx@@UEBAXAEAVPxOutputStream@2@_N@Z 0000000180010910 f   TriangleMeshBuilder.obj
 0001:0000fab0       ?saveMidPhaseStructure@RTreeTriangleMeshBuilder@physx@@UEBAXAEAVPxOutputStream@2@_N@Z 0000000180010ab0 f   TriangleMeshBuilder.obj
 0001:0000fcf0       ??0BigConvexDataBuilder@physx@@QEAA@PEBUConvexHullData@Gu@1@PEAVBigConvexData@1@PEBVPxVec3@1@@Z 0000000180010cf0 f   BigConvexDataBuilder.obj
 0001:0000fd00       ??4BigConvexData@physx@@QEAAAEAV01@AEBV01@@Z 0000000180010d00 f i BigConvexDataBuilder.obj
 0001:0000fd20       ?GetAdjacentVerts@BigConvexData@physx@@QEBAPEBEXZ 0000000180010d20 f i BigConvexDataBuilder.obj
 0001:0000fd30       ?GetNbNeighbors@BigConvexData@physx@@QEBAGI@Z 0000000180010d30 f i BigConvexDataBuilder.obj
 0001:0000fd30       ?GetValency@BigConvexData@physx@@QEBAGI@Z 0000000180010d30 f i BigConvexDataBuilder.obj
 0001:0000fd40       ?GetNbSamples@BigConvexData@physx@@QEBAIXZ 0000000180010d40 f i BigConvexDataBuilder.obj
 0001:0000fd50       ?raw_length@pcharNode@@UEBAHXZ 0000000180010d50 f i libvcruntime:undname.obj
 0001:0000fd50       ?GetNbVerts@BigConvexData@physx@@QEBAIXZ 0000000180010d50 f i BigConvexDataBuilder.obj
 0001:0000fd50       ?length@pcharNode@@UEBAHXZ 0000000180010d50 f i libvcruntime:undname.obj
 0001:0000fd60       ?GetNeighbors@BigConvexData@physx@@QEBAPEBEI@Z 0000000180010d60 f i BigConvexDataBuilder.obj
 0001:0000fd70       ?GetOffset@BigConvexData@physx@@QEBAGI@Z 0000000180010d70 f i BigConvexDataBuilder.obj
 0001:0000fd80       ?GetSubdiv@BigConvexData@physx@@QEBAIXZ 0000000180010d80 f i BigConvexDataBuilder.obj
 0001:0000fd90       ?computeValencies@BigConvexDataBuilder@physx@@QEAA_NAEBVConvexHullBuilder@2@@Z 0000000180010d90 f   BigConvexDataBuilder.obj
 0001:00010180       ?precompute@BigConvexDataBuilder@physx@@QEAA_NI@Z 0000000180011180 f   BigConvexDataBuilder.obj
 0001:00010dc0       ?save@BigConvexDataBuilder@physx@@QEBA_NAEAVPxOutputStream@2@_N@Z 0000000180011dc0 f   BigConvexDataBuilder.obj
 0001:00011000       ??$?_UE@@YAPEAX_KV?$ReflectionAllocator@E@shdfnd@physx@@PEBDH@Z 0000000180012000 f i ConvexHullBuilder.obj
 0001:000110a0       ??0ConvexHullBuilder@physx@@QEAA@PEAUConvexHullData@Gu@1@_N@Z 00000001800120a0 f   ConvexHullBuilder.obj
 0001:000110d0       ??1ConvexHullBuilder@physx@@QEAA@XZ 00000001800120d0 f   ConvexHullBuilder.obj
 0001:000111d0       ?calculateVertexMapTable@ConvexHullBuilder@physx@@QEAA_NI_N@Z 00000001800121d0 f   ConvexHullBuilder.obj
 0001:000113e0       ?checkHullPolygons@ConvexHullBuilder@physx@@QEBA_NXZ 00000001800123e0 f   ConvexHullBuilder.obj
 0001:000119c0       ?computeGeomCenter@ConvexHullBuilder@physx@@IEBA_NAEAVPxVec3@2@IPEAUHullTriangleData@2@@Z 00000001800129c0 f   ConvexHullBuilder.obj
 0001:00011c80       ?copy@ConvexHullBuilder@physx@@QEAA_NAEAUConvexHullData@Gu@2@AEAI@Z 0000000180012c80 f   ConvexHullBuilder.obj
 0001:00011f00       ?createEdgeList@ConvexHullBuilder@physx@@QEAA_N_NI@Z 0000000180012f00 f   ConvexHullBuilder.obj
 0001:00012770       ?init@ConvexHullBuilder@physx@@QEAA_NIPEBVPxVec3@2@PEBIIIPEBUPxHullPolygon@2@_NPEAVConvexHullLib@2@@Z 0000000180013770 f   ConvexHullBuilder.obj
 0001:000130d0       ?save@ConvexHullBuilder@physx@@QEBA_NAEAVPxOutputStream@2@_N@Z 00000001800140d0 f   ConvexHullBuilder.obj
 0001:000133f0       ??1ConvexHullLib@physx@@UEAA@XZ 00000001800143f0 f   ConvexHullLib.obj
 0001:00013450       ??_GConvexHullLib@physx@@UEAAPEAXI@Z 0000000180014450 f i ConvexHullLib.obj
 0001:00013450       ??_EConvexHullLib@physx@@UEAAPEAXI@Z 0000000180014450 f i ConvexHullLib.obj
 0001:000139c0       ?cleanupVertices@ConvexHullLib@physx@@IEAA_NIPEBVPxVec3@2@IAEAIPEAV32@AEAV32@3@Z 00000001800149c0 f   ConvexHullLib.obj
 0001:00013e40       ?shiftAndcleanupVertices@ConvexHullLib@physx@@IEAA_NIPEBVPxVec3@2@IAEAIPEAV32@AEAV32@3@Z 0000000180014e40 f   ConvexHullLib.obj
 0001:00014320       ?shiftConvexMeshDesc@ConvexHullLib@physx@@IEAAXAEAVPxConvexMeshDesc@2@@Z 0000000180015320 f   ConvexHullLib.obj
 0001:000143e0       ?swapLargestFace@ConvexHullLib@physx@@IEAAXAEAVPxConvexMeshDesc@2@@Z 00000001800153e0 f   ConvexHullLib.obj
 0001:000145d0       ??0Box@Gu@physx@@QEAA@AEBV012@@Z 00000001800155d0 f i ConvexHullUtils.obj
 0001:000145d0       ??4Box@Gu@physx@@QEAAAEBV012@AEBV012@@Z 00000001800155d0 f i ConvexHullUtils.obj
 0001:00014630       ??0Box@Gu@physx@@QEAA@AEBVPxVec3@2@0AEBVPxMat33@2@@Z 0000000180015630 f i ConvexHullUtils.obj
 0001:000146a0       ??0ConvexHull@physx@@QEAA@AEBVPxVec3@1@AEBVPxTransform@1@AEBV?$Array@VPxPlane@physx@@V?$ReflectionAllocator@VPxPlane@physx@@@shdfnd@2@@shdfnd@1@@Z 00000001800156a0 f   ConvexHullUtils.obj
 0001:00015800       ??0PxQuat@physx@@QEAA@AEBVPxMat33@1@@Z 0000000180016800 f i ConvexHullUtils.obj
 0001:000159e0       ?allocate@?$Array@VHalfEdge@ConvexHull@physx@@V?$ReflectionAllocator@VHalfEdge@ConvexHull@physx@@@shdfnd@3@@shdfnd@physx@@IEAAPEAVHalfEdge@ConvexHull@3@I@Z 00000001800169e0 f i ConvexHullUtils.obj
 0001:00015a80       ?allocate@?$Array@VPxPlane@physx@@V?$ReflectionAllocator@VPxPlane@physx@@@shdfnd@2@@shdfnd@physx@@IEAAPEAVPxPlane@3@I@Z 0000000180016a80 f i ConvexHullUtils.obj
 0001:00015b20       ?assertIntact@ConvexHull@physx@@QEBA_NM@Z 0000000180016b20 f   ConvexHullUtils.obj
 0001:00015e30       ?computeAABBExtent@Box@Gu@physx@@QEBA?AVPxVec3@3@XZ 0000000180016e30 f i ConvexHullUtils.obj
 0001:00015ef0       ?computeBoxPoints@Box@Gu@physx@@QEBAXPEIAVPxVec3@3@@Z 0000000180016ef0 f i ConvexHullUtils.obj
 0001:00015f30       ?computeOBBFromConvex@physx@@YA_NAEBVPxConvexMeshDesc@1@AEAVPxVec3@1@AEAVPxTransform@1@@Z 0000000180016f30 f   ConvexHullUtils.obj
 0001:00016640       ?computeOBBSIMD@local@@YAXIPEBT__m128@@AEAT2@AEBT2@1@Z 0000000180017640 f   ConvexHullUtils.obj
 0001:00016a50       ?convexHullCrop@physx@@YAPEAVConvexHull@1@AEBV21@AEBVPxPlane@1@M@Z 0000000180017a50 f   ConvexHullUtils.obj
 0001:00017830       ?copy@?$Array@VPxPlane@physx@@V?$ReflectionAllocator@VPxPlane@physx@@@shdfnd@2@@shdfnd@physx@@KAXPEAVPxPlane@3@0PEBV43@@Z 0000000180018830 f i ConvexHullUtils.obj
 0001:00017930       ?findCandidatePlane@ConvexHull@physx@@QEBAHMM@Z 0000000180018930 f   ConvexHullUtils.obj
 0001:00017da0       ?getInverse@PxMat33@physx@@QEBA?BV12@XZ 0000000180018da0 f i ConvexHullUtils.obj
 0001:00017ff0       ?getTransform@Box@Gu@physx@@QEBA?AVPxTransform@3@XZ 0000000180018ff0 f i ConvexHullUtils.obj
 0001:00018050       ?growAndPushBack@?$Array@VHalfEdge@ConvexHull@physx@@V?$ReflectionAllocator@VHalfEdge@ConvexHull@physx@@@shdfnd@3@@shdfnd@physx@@IEAAAEAVHalfEdge@ConvexHull@3@AEBV453@@Z 0000000180019050 f i ConvexHullUtils.obj
 0001:00018110       ?growAndPushBack@?$Array@VPxPlane@physx@@V?$ReflectionAllocator@VPxPlane@physx@@@shdfnd@2@@shdfnd@physx@@IEAAAEAVPxPlane@3@AEBV43@@Z 0000000180019110 f i ConvexHullUtils.obj
 0001:000181d0       ?isValid@Box@Gu@physx@@QEBA_NXZ 00000001800191d0 f i ConvexHullUtils.obj
 0001:000181f0       ?maxNumVertsPerFace@ConvexHull@physx@@QEBAIXZ 00000001800191f0 f   ConvexHullUtils.obj
 0001:00018260       ?recreate@?$Array@VHalfEdge@ConvexHull@physx@@V?$ReflectionAllocator@VHalfEdge@ConvexHull@physx@@@shdfnd@3@@shdfnd@physx@@IEAAXI@Z 0000000180019260 f i ConvexHullUtils.obj
 0001:00018300       ?recreate@?$Array@VPxPlane@physx@@V?$ReflectionAllocator@VPxPlane@physx@@@shdfnd@2@@shdfnd@physx@@IEAAXI@Z 0000000180019300 f i ConvexHullUtils.obj
 0001:00018390       ?resize@?$Array@VHalfEdge@ConvexHull@physx@@V?$ReflectionAllocator@VHalfEdge@ConvexHull@physx@@@shdfnd@3@@shdfnd@physx@@QEAAXIAEBVHalfEdge@ConvexHull@3@@Z 0000000180019390 f i ConvexHullUtils.obj
 0001:00018450       ?resize@?$Array@VPxPlane@physx@@V?$ReflectionAllocator@VPxPlane@physx@@@shdfnd@2@@shdfnd@physx@@QEAAXIAEBVPxPlane@3@@Z 0000000180019450 f i ConvexHullUtils.obj
 0001:00018570       ?resize@?$Array@VPxVec3@physx@@V?$ReflectionAllocator@VPxVec3@physx@@@shdfnd@2@@shdfnd@physx@@QEAAXIAEBVPxVec3@3@@Z 0000000180019570 f i ConvexHullUtils.obj
 0001:00018660       ?rotate@Box@Gu@physx@@QEBA?AVPxVec3@3@AEBV43@@Z 0000000180019660 f i ConvexHullUtils.obj
 0001:000186f0       ?rotateInv@Box@Gu@physx@@QEBA?AVPxVec3@3@AEBV43@@Z 00000001800196f0 f i ConvexHullUtils.obj
 0001:00018780       ?setAxes@Box@Gu@physx@@QEAAXAEBVPxVec3@3@00@Z 0000000180019780 f i ConvexHullUtils.obj
 0001:000187c0       ?setEmpty@Box@Gu@physx@@QEAAXXZ 00000001800197c0 f i ConvexHullUtils.obj
 0001:00018800       ?transform@Box@Gu@physx@@QEBA?AVPxVec3@3@AEBV43@@Z 0000000180019800 f i ConvexHullUtils.obj
 0001:000188a0       ??0ConvexMeshBuilder@physx@@QEAA@_N@Z 00000001800198a0 f   ConvexMeshBuilder.obj
 0001:00018900       ??1ConvexMeshBuilder@physx@@QEAA@XZ 0000000180019900 f   ConvexMeshBuilder.obj
 0001:00018d50       ?build@ConvexMeshBuilder@physx@@QEAA_NAEBVPxConvexMeshDesc@2@I_NPEAVConvexHullLib@2@@Z 0000000180019d50 f   ConvexMeshBuilder.obj
 0001:00019060       ?computeHullPolygons@ConvexMeshBuilder@physx@@QEAA_NAEBIPEBVPxVec3@2@0PEBIAEAVPxAllocatorCallback@2@AEAIAEAPEAV32@4AEAPEAI4AEAPEAUPxHullPolygon@2@@Z 000000018001a060 f   ConvexMeshBuilder.obj
 0001:00019280       ?computeMassInfo@ConvexMeshBuilder@physx@@QEAAX_N@Z 000000018001a280 f   ConvexMeshBuilder.obj
 0001:00019650       ?copy@ConvexMeshBuilder@physx@@QEAA_NAEAUConvexHullInitData@Gu@2@@Z 000000018001a650 f   ConvexMeshBuilder.obj
 0001:00019770       ?isFinite@PxVec3@physx@@QEBA_NXZ 000000018001a770 f i ConvexMeshBuilder.obj
 0001:000197d0       ?loadConvexHull@ConvexMeshBuilder@physx@@QEAA_NAEBVPxConvexMeshDesc@2@PEAVConvexHullLib@2@@Z 000000018001a7d0 f   ConvexMeshBuilder.obj
 0001:00019a50       ?save@ConvexMeshBuilder@physx@@QEBA_NAEAVPxOutputStream@2@_N@Z 000000018001aa50 f   ConvexMeshBuilder.obj
 0001:00019c60       ??$copy@V?$ReflectionAllocator@VPair@@@shdfnd@physx@@@?$Array@VPair@@V?$ReflectionAllocator@VPair@@@shdfnd@physx@@@shdfnd@physx@@IEAAXAEBV012@@Z 000000018001ac60 f i ConvexPolygonsBuilder.obj
 0001:00019ce0       ??0ConvexPolygonsBuilder@physx@@QEAA@PEAUConvexHullData@Gu@1@_N@Z 000000018001ace0 f   ConvexPolygonsBuilder.obj
 0001:00019d00       ??1ConvexPolygonsBuilder@physx@@QEAA@XZ 000000018001ad00 f   ConvexPolygonsBuilder.obj
 0001:0001a550       ?allocate@?$Array@VPair@@V?$ReflectionAllocator@VPair@@@shdfnd@physx@@@shdfnd@physx@@IEAAPEAVPair@@I@Z 000000018001b550 f i ConvexPolygonsBuilder.obj
 0001:0001ad70       ?computeHullPolygons@ConvexPolygonsBuilder@physx@@QEAA_NAEBIPEBVPxVec3@2@0PEBI@Z 000000018001bd70 f   ConvexPolygonsBuilder.obj
 0001:0001be10       ?createPolygonData@ConvexPolygonsBuilder@physx@@AEAA_NXZ 000000018001ce10 f   ConvexPolygonsBuilder.obj
 0001:0001c9f0       ?createTrianglesFromPolygons@ConvexPolygonsBuilder@physx@@AEAA_NXZ 000000018001d9f0 f   ConvexPolygonsBuilder.obj
 0001:0001e070       ?growAndPushBack@?$Array@VPair@@V?$ReflectionAllocator@VPair@@@shdfnd@physx@@@shdfnd@physx@@IEAAAEAVPair@@AEBV4@@Z 000000018001f070 f i ConvexPolygonsBuilder.obj
 0001:0001e130       ??0QuickHull@local@@QEAA@AEBUPxCookingParams@physx@@AEBVPxConvexMeshDesc@3@@Z 000000018001f130 f   QuickHullConvexHullLib.obj
 0001:0001e1e0       ??0QuickHullConvexHullLib@physx@@QEAA@AEBVPxConvexMeshDesc@1@AEBUPxCookingParams@1@@Z 000000018001f1e0 f   QuickHullConvexHullLib.obj
 0001:0001e2d0       ??1?$MemBlock@UQuickHullHalfEdge@local@@$0A@@local@@QEAA@XZ 000000018001f2d0 f i QuickHullConvexHullLib.obj
 0001:0001e2d0       ??1?$MemBlock@UQuickHullFace@local@@$00@local@@QEAA@XZ 000000018001f2d0 f i QuickHullConvexHullLib.obj
 0001:0001e360       ??1QuickHull@local@@QEAA@XZ 000000018001f360 f   QuickHullConvexHullLib.obj
 0001:0001e4a0       ??_GConvexHull@physx@@QEAAPEAXI@Z 000000018001f4a0 f i QuickHullConvexHullLib.obj
 0001:0001e580       ??_EQuickHullConvexHullLib@physx@@UEAAPEAXI@Z 000000018001f580 f i QuickHullConvexHullLib.obj
 0001:0001e580       ??_GQuickHullConvexHullLib@physx@@UEAAPEAXI@Z 000000018001f580 f i QuickHullConvexHullLib.obj
 0001:0001e680       ?addPointToHull@QuickHull@local@@IEAA_NPEBUQuickHullVertex@2@AEAUQuickHullFace@2@AEA_N@Z 000000018001f680 f   QuickHullConvexHullLib.obj
 0001:0001e950       ?addSimplex@QuickHull@local@@IEAAXPEAUQuickHullVertex@2@_N@Z 000000018001f950 f   QuickHullConvexHullLib.obj
 0001:0001ee20       ?allocate@?$Array@PEAUQuickHullFace@local@@V?$ReflectionAllocator@PEAUQuickHullFace@local@@@shdfnd@physx@@@shdfnd@physx@@IEAAPEAPEAUQuickHullFace@local@@I@Z 000000018001fe20 f i QuickHullConvexHullLib.obj
 0001:0001eec0       ?allocate@?$Array@PEAUQuickHullHalfEdge@local@@V?$ReflectionAllocator@PEAUQuickHullHalfEdge@local@@@shdfnd@physx@@@shdfnd@physx@@IEAAPEAPEAUQuickHullHalfEdge@local@@I@Z 000000018001fec0 f i QuickHullConvexHullLib.obj
 0001:0001ef60       ?allocate@?$Array@PEAUQuickHullVertex@local@@V?$ReflectionAllocator@PEAUQuickHullVertex@local@@@shdfnd@physx@@@shdfnd@physx@@IEAAPEAPEAUQuickHullVertex@local@@I@Z 000000018001ff60 f i QuickHullConvexHullLib.obj
 0001:0001f000       ?allocate@?$Array@UExpandPoint@local@@V?$ReflectionAllocator@UExpandPoint@local@@@shdfnd@physx@@@shdfnd@physx@@IEAAPEAUExpandPoint@local@@I@Z 0000000180020000 f i QuickHullConvexHullLib.obj
 0001:0001f0a0       ?buildHull@QuickHull@local@@QEAA?AW4Enum@QuickHullResult@2@XZ 00000001800200a0 f   QuickHullConvexHullLib.obj
 0001:0001f2b0       ?calculateHorizon@QuickHull@local@@IEAAXAEBVPxVec3@physx@@PEAUQuickHullHalfEdge@2@AEAUQuickHullFace@2@AEAV?$Array@PEAUQuickHullHalfEdge@local@@V?$ReflectionAllocator@PEAUQuickHullHalfEdge@local@@@shdfnd@physx@@@shdfnd@4@AEAV?$Array@PEAUQuickHullFace@local@@V?$ReflectionAllocator@PEAUQuickHullFace@local@@@shdfnd@physx@@@84@@Z 00000001800202b0 f   QuickHullConvexHullLib.obj
 0001:0001f460       ?canMergeFaces@QuickHull@local@@IEAA_NAEBUQuickHullHalfEdge@2@@Z 0000000180020460 f   QuickHullConvexHullLib.obj
 0001:0001fc90       ?cleanupForSimplex@QuickHullConvexHullLib@physx@@IEAA_NPEAVPxVec3@2@IPEAUQuickHullVertex@local@@1AEAM2@Z 0000000180020c90 f   QuickHullConvexHullLib.obj
 0001:00020860       ?computeMinMaxVerts@QuickHull@local@@IEAAXXZ 0000000180021860 f   QuickHullConvexHullLib.obj
 0001:00020c30       ?connectHalfEdges@QuickHullFace@local@@AEAAPEAU12@PEAUQuickHullHalfEdge@2@0@Z 0000000180021c30 f   QuickHullConvexHullLib.obj
 0001:00020f90       ?copy@?$Array@UExpandPoint@local@@V?$ReflectionAllocator@UExpandPoint@local@@@shdfnd@physx@@@shdfnd@physx@@KAXPEAUExpandPoint@local@@0PEBU45@@Z 0000000180021f90 f i QuickHullConvexHullLib.obj
 0001:00021040       ?createConvexHull@QuickHullConvexHullLib@physx@@UEAA?AW4Enum@PxConvexMeshCookingResult@2@XZ 0000000180022040 f   QuickHullConvexHullLib.obj
 0001:00021440       ?createEdgeList@QuickHullConvexHullLib@physx@@UEAA_NIPEBEPEAPEAEPEAPEAG2@Z 0000000180022440 f   QuickHullConvexHullLib.obj
 0001:00021670       ?createTriangle@QuickHull@local@@IEAAPEAUQuickHullFace@2@AEBUQuickHullVertex@2@00@Z 0000000180022670 f   QuickHullConvexHullLib.obj
 0001:00021a00       ?doAdjacentMerge@QuickHull@local@@IEAA_NAEAUQuickHullFace@2@_NAEA_N@Z 0000000180022a00 f   QuickHullConvexHullLib.obj
 0001:00021d40       ?expandHull@QuickHullConvexHullLib@physx@@IEAA?AW4Enum@PxConvexMeshCookingResult@2@XZ 0000000180022d40 f   QuickHullConvexHullLib.obj
 0001:00022a20       ?expandHullOBB@QuickHullConvexHullLib@physx@@IEAA?AW4Enum@PxConvexMeshCookingResult@2@XZ 0000000180023a20 f   QuickHullConvexHullLib.obj
 0001:00022e40       ?fillConvexMeshDesc@QuickHullConvexHullLib@physx@@UEAAXAEAVPxConvexMeshDesc@2@@Z 0000000180023e40 f   QuickHullConvexHullLib.obj
 0001:00022e90       ?fillConvexMeshDescFromCroppedHull@QuickHullConvexHullLib@physx@@IEAAXAEAVPxConvexMeshDesc@2@@Z 0000000180023e90 f   QuickHullConvexHullLib.obj
 0001:00023090       ?fillConvexMeshDescFromQuickHull@QuickHullConvexHullLib@physx@@IEAAXAEAVPxConvexMeshDesc@2@@Z 0000000180024090 f   QuickHullConvexHullLib.obj
 0001:00023420       ?findSimplex@QuickHull@local@@IEAA_NXZ 0000000180024420 f   QuickHullConvexHullLib.obj
 0001:000240d0       ?getFreeItem@?$MemBlock@UQuickHullFace@local@@$00@local@@QEAAPEAUQuickHullFace@2@XZ 00000001800250d0 f i QuickHullConvexHullLib.obj
 0001:00024200       ?getFreeItem@?$MemBlock@UQuickHullHalfEdge@local@@$0A@@local@@QEAAPEAUQuickHullHalfEdge@2@XZ 0000000180025200 f i QuickHullConvexHullLib.obj
 0001:000242d0       ?growAndPushBack@?$Array@PEAUQuickHullFace@local@@V?$ReflectionAllocator@PEAUQuickHullFace@local@@@shdfnd@physx@@@shdfnd@physx@@IEAAAEAPEAUQuickHullFace@local@@AEBQEAU45@@Z 00000001800252d0 f i QuickHullConvexHullLib.obj
 0001:00024390       ?growAndPushBack@?$Array@PEAUQuickHullHalfEdge@local@@V?$ReflectionAllocator@PEAUQuickHullHalfEdge@local@@@shdfnd@physx@@@shdfnd@physx@@IEAAAEAPEAUQuickHullHalfEdge@local@@AEBQEAU45@@Z 0000000180025390 f i QuickHullConvexHullLib.obj
 0001:00024450       ?growAndPushBack@?$Array@PEAUQuickHullVertex@local@@V?$ReflectionAllocator@PEAUQuickHullVertex@local@@@shdfnd@physx@@@shdfnd@physx@@IEAAAEAPEAUQuickHullVertex@local@@AEBQEAU45@@Z 0000000180025450 f i QuickHullConvexHullLib.obj
 0001:00024510       ?growAndPushBack@?$Array@UExpandPoint@local@@V?$ReflectionAllocator@UExpandPoint@local@@@shdfnd@physx@@@shdfnd@physx@@IEAAAEAUExpandPoint@local@@AEBU45@@Z 0000000180025510 f i QuickHullConvexHullLib.obj
 0001:00024610       ?init@?$MemBlock@UQuickHullFace@local@@$00@local@@QEAAXI@Z 0000000180025610 f i QuickHullConvexHullLib.obj
 0001:00024710       ?init@?$MemBlock@UQuickHullHalfEdge@local@@$0A@@local@@QEAAXI@Z 0000000180025710 f i QuickHullConvexHullLib.obj
 0001:000247b0       ?mergeAdjacentFace@QuickHullFace@local@@QEAA_NPEAUQuickHullHalfEdge@2@AEAV?$Array@PEAUQuickHullFace@local@@V?$ReflectionAllocator@PEAUQuickHullFace@local@@@shdfnd@physx@@@shdfnd@physx@@@Z 00000001800257b0 f   QuickHullConvexHullLib.obj
 0001:00024c00       ?nextPointToAdd@QuickHull@local@@IEAAPEAUQuickHullVertex@2@AEAPEAUQuickHullFace@2@@Z 0000000180025c00 f   QuickHullConvexHullLib.obj
 0001:00024d80       ?parseInputVertices@QuickHull@local@@QEAAXPEBVPxVec3@physx@@I@Z 0000000180025d80 f   QuickHullConvexHullLib.obj
 0001:00024f10       ?postMergeHull@QuickHull@local@@IEAAXXZ 0000000180025f10 f   QuickHullConvexHullLib.obj
 0001:00025160       ?preallocate@QuickHull@local@@QEAAXI@Z 0000000180026160 f   QuickHullConvexHullLib.obj
 0001:000252a0       ?recreate@?$Array@PEAUQuickHullFace@local@@V?$ReflectionAllocator@PEAUQuickHullFace@local@@@shdfnd@physx@@@shdfnd@physx@@IEAAXI@Z 00000001800262a0 f i QuickHullConvexHullLib.obj
 0001:00025340       ?recreate@?$Array@PEAUQuickHullHalfEdge@local@@V?$ReflectionAllocator@PEAUQuickHullHalfEdge@local@@@shdfnd@physx@@@shdfnd@physx@@IEAAXI@Z 0000000180026340 f i QuickHullConvexHullLib.obj
 0001:000253e0       ?recreate@?$Array@PEAUQuickHullVertex@local@@V?$ReflectionAllocator@PEAUQuickHullVertex@local@@@shdfnd@physx@@@shdfnd@physx@@IEAAXI@Z 00000001800263e0 f i QuickHullConvexHullLib.obj
 0001:00025480       ?recreate@?$Array@UExpandPoint@local@@V?$ReflectionAllocator@UExpandPoint@local@@@shdfnd@physx@@@shdfnd@physx@@IEAAXI@Z 0000000180026480 f i QuickHullConvexHullLib.obj
 0001:00025510       ?resolveUnclaimedPoints@QuickHull@local@@IEAAXAEBV?$Array@PEAUQuickHullFace@local@@V?$ReflectionAllocator@PEAUQuickHullFace@local@@@shdfnd@physx@@@shdfnd@physx@@@Z 0000000180026510 f   QuickHullConvexHullLib.obj
 0001:00026210       ?computeVolumeIntegralsEberly@physx@@YA_NAEBVPxConvexMeshDesc@1@MAEAUPxIntegrals@1@AEBVPxVec3@1@@Z 0000000180027210 f   VolumeIntegration.obj
 0001:00026250       ?computeVolumeIntegralsEberlySIMD@physx@@YA_NAEBVPxConvexMeshDesc@1@MAEAUPxIntegrals@1@AEBVPxVec3@1@@Z 0000000180027250 f   VolumeIntegration.obj
 0001:00026890       ?cookingDelayHook@@YAP6A_JXZIPEAUDelayLoadInfo@@@Z 0000000180027890 f   WindowsCookingDelayLoadHook.obj
 0001:00026970       PxSetPhysXCookingDelayLoadHook 0000000180027970 f   WindowsCookingDelayLoadHook.obj
 0001:00026978       __imp_load_??0RadixSortBuffered@Cm@physx@@QEAA@XZ 0000000180027978 f   PhysXCommon_64:PhysXCommon_64.dll
 0001:00026984       ??0RadixSortBuffered@Cm@physx@@QEAA@XZ 0000000180027984 f   PhysXCommon_64:PhysXCommon_64.dll
 0001:0002698a       __tailMerge_physxcommon_64_dll 000000018002798a     PhysXCommon_64:PhysXCommon_64.dll
 0001:00026a03       __imp_load_??1RadixSortBuffered@Cm@physx@@UEAA@XZ 0000000180027a03 f   PhysXCommon_64:PhysXCommon_64.dll
 0001:00026a0f       ??1RadixSortBuffered@Cm@physx@@UEAA@XZ 0000000180027a0f f   PhysXCommon_64:PhysXCommon_64.dll
 0001:00026a15       __imp_load_?Sort@RadixSortBuffered@Cm@physx@@QEAAAEAV123@PEBIIW4RadixHint@23@@Z 0000000180027a15 f   PhysXCommon_64:PhysXCommon_64.dll
 0001:00026a21       ?Sort@RadixSortBuffered@Cm@physx@@QEAAAEAV123@PEBIIW4RadixHint@23@@Z 0000000180027a21 f   PhysXCommon_64:PhysXCommon_64.dll
 0001:00026a27       __imp_load_??0HeightField@Gu@physx@@QEAA@PEAVGuMeshFactory@2@@Z 0000000180027a27 f   PhysXCommon_64:PhysXCommon_64.dll
 0001:00026a33       ??0HeightField@Gu@physx@@QEAA@PEAVGuMeshFactory@2@@Z 0000000180027a33 f   PhysXCommon_64:PhysXCommon_64.dll
 0001:00026a39       __imp_load_?loadFromDesc@HeightField@Gu@physx@@QEAA_NAEBVPxHeightFieldDesc@3@@Z 0000000180027a39 f   PhysXCommon_64:PhysXCommon_64.dll
 0001:00026a45       ?loadFromDesc@HeightField@Gu@physx@@QEAA_NAEBVPxHeightFieldDesc@3@@Z 0000000180027a45 f   PhysXCommon_64:PhysXCommon_64.dll
 0001:00026a4b       __imp_load_?computeCellCoordinates@HeightField@Gu@physx@@QEBAIMMAEAM0@Z 0000000180027a4b f   PhysXCommon_64:PhysXCommon_64.dll
 0001:00026a57       ?computeCellCoordinates@HeightField@Gu@physx@@QEBAIMMAEAM0@Z 0000000180027a57 f   PhysXCommon_64:PhysXCommon_64.dll
 0001:00026a5d       __imp_load_?releaseMemory@HeightField@Gu@physx@@QEAAXXZ 0000000180027a5d f   PhysXCommon_64:PhysXCommon_64.dll
 0001:00026a69       ?releaseMemory@HeightField@Gu@physx@@QEAAXXZ 0000000180027a69 f   PhysXCommon_64:PhysXCommon_64.dll
 0001:00026a6f       __imp_load_??1HeightField@Gu@physx@@UEAA@XZ 0000000180027a6f f   PhysXCommon_64:PhysXCommon_64.dll
 0001:00026a7b       ??1HeightField@Gu@physx@@UEAA@XZ 0000000180027a7b f   PhysXCommon_64:PhysXCommon_64.dll
 0001:00026a81       __imp_load_??0NodeAllocator@Gu@physx@@QEAA@XZ 0000000180027a81 f   PhysXCommon_64:PhysXCommon_64.dll
 0001:00026a8d       ??0NodeAllocator@Gu@physx@@QEAA@XZ 0000000180027a8d f   PhysXCommon_64:PhysXCommon_64.dll
 0001:00026a93       __imp_load_??1NodeAllocator@Gu@physx@@QEAA@XZ 0000000180027a93 f   PhysXCommon_64:PhysXCommon_64.dll
 0001:00026a9f       ??1NodeAllocator@Gu@physx@@QEAA@XZ 0000000180027a9f f   PhysXCommon_64:PhysXCommon_64.dll
 0001:00026aa5       __imp_load_?release@NodeAllocator@Gu@physx@@QEAAXXZ 0000000180027aa5 f   PhysXCommon_64:PhysXCommon_64.dll
 0001:00026ab1       ?release@NodeAllocator@Gu@physx@@QEAAXXZ 0000000180027ab1 f   PhysXCommon_64:PhysXCommon_64.dll
 0001:00026ab7       __imp_load_?buildAABBTree@Gu@physx@@YA_NAEAVAABBTreeBuildParams@12@AEAVNodeAllocator@12@AEAUBuildStats@12@AEAPEAI@Z 0000000180027ab7 f   PhysXCommon_64:PhysXCommon_64.dll
 0001:00026ac3       ?buildAABBTree@Gu@physx@@YA_NAEAVAABBTreeBuildParams@12@AEAVNodeAllocator@12@AEAUBuildStats@12@AEAPEAI@Z 0000000180027ac3 f   PhysXCommon_64:PhysXCommon_64.dll
 0001:00026ac9       __imp_load_?writeDword@physx@@YAXI_NAEAVPxOutputStream@1@@Z 0000000180027ac9 f   PhysXCommon_64:PhysXCommon_64.dll
 0001:00026ad5       ?writeDword@physx@@YAXI_NAEAVPxOutputStream@1@@Z 0000000180027ad5 f   PhysXCommon_64:PhysXCommon_64.dll
 0001:00026adb       __imp_load_?writeFloatBuffer@physx@@YAXPEBMI_NAEAVPxOutputStream@1@@Z 0000000180027adb f   PhysXCommon_64:PhysXCommon_64.dll
 0001:00026ae7       ?writeFloatBuffer@physx@@YAXPEBMI_NAEAVPxOutputStream@1@@Z 0000000180027ae7 f   PhysXCommon_64:PhysXCommon_64.dll
 0001:00026aed       __imp_load_?writeHeader@physx@@YA_NCCCCI_NAEAVPxOutputStream@1@@Z 0000000180027aed f   PhysXCommon_64:PhysXCommon_64.dll
 0001:00026af9       ?writeHeader@physx@@YA_NCCCCI_NAEAVPxOutputStream@1@@Z 0000000180027af9 f   PhysXCommon_64:PhysXCommon_64.dll
 0001:00026aff       __imp_load_?writeWord@physx@@YAXG_NAEAVPxOutputStream@1@@Z 0000000180027aff f   PhysXCommon_64:PhysXCommon_64.dll
 0001:00026b0b       ?writeWord@physx@@YAXG_NAEAVPxOutputStream@1@@Z 0000000180027b0b f   PhysXCommon_64:PhysXCommon_64.dll
 0001:00026b11       __imp_load_?writeFloat@physx@@YAXM_NAEAVPxOutputStream@1@@Z 0000000180027b11 f   PhysXCommon_64:PhysXCommon_64.dll
 0001:00026b1d       ?writeFloat@physx@@YAXM_NAEAVPxOutputStream@1@@Z 0000000180027b1d f   PhysXCommon_64:PhysXCommon_64.dll
 0001:00026b23       __imp_load_?computeBoundsAroundVertices@Gu@physx@@YAXAEAVPxBounds3@2@IPEIBVPxVec3@2@@Z 0000000180027b23 f   PhysXCommon_64:PhysXCommon_64.dll
 0001:00026b2f       ?computeBoundsAroundVertices@Gu@physx@@YAXAEAVPxBounds3@2@IPEIBVPxVec3@2@@Z 0000000180027b2f f   PhysXCommon_64:PhysXCommon_64.dll
 0001:00026b35       __imp_load_??0SourceMesh@Gu@physx@@QEAA@XZ 0000000180027b35 f   PhysXCommon_64:PhysXCommon_64.dll
 0001:00026b41       ??0SourceMesh@Gu@physx@@QEAA@XZ 0000000180027b41 f   PhysXCommon_64:PhysXCommon_64.dll
 0001:00026b47       __imp_load_??1SourceMesh@Gu@physx@@QEAA@XZ 0000000180027b47 f   PhysXCommon_64:PhysXCommon_64.dll
 0001:00026b53       ??1SourceMesh@Gu@physx@@QEAA@XZ 0000000180027b53 f   PhysXCommon_64:PhysXCommon_64.dll
 0001:00026b59       __imp_load_??0BV4Tree@Gu@physx@@QEAA@XZ 0000000180027b59 f   PhysXCommon_64:PhysXCommon_64.dll
 0001:00026b65       ??0BV4Tree@Gu@physx@@QEAA@XZ 0000000180027b65 f   PhysXCommon_64:PhysXCommon_64.dll
 0001:00026b6b       __imp_load_??1BV4Tree@Gu@physx@@QEAA@XZ 0000000180027b6b f   PhysXCommon_64:PhysXCommon_64.dll
 0001:00026b77       ??1BV4Tree@Gu@physx@@QEAA@XZ 0000000180027b77 f   PhysXCommon_64:PhysXCommon_64.dll
 0001:00026b7d       __imp_load_??0BV32Tree@Gu@physx@@QEAA@XZ 0000000180027b7d f   PhysXCommon_64:PhysXCommon_64.dll
 0001:00026b89       ??0BV32Tree@Gu@physx@@QEAA@XZ 0000000180027b89 f   PhysXCommon_64:PhysXCommon_64.dll
 0001:00026b8f       __imp_load_??1BV32Tree@Gu@physx@@QEAA@XZ 0000000180027b8f f   PhysXCommon_64:PhysXCommon_64.dll
 0001:00026b9b       ??1BV32Tree@Gu@physx@@QEAA@XZ 0000000180027b9b f   PhysXCommon_64:PhysXCommon_64.dll
 0001:00026ba1       __imp_load_?writeWordBuffer@physx@@YAXPEBGI_NAEAVPxOutputStream@1@@Z 0000000180027ba1 f   PhysXCommon_64:PhysXCommon_64.dll
 0001:00026bad       ?writeWordBuffer@physx@@YAXPEBGI_NAEAVPxOutputStream@1@@Z 0000000180027bad f   PhysXCommon_64:PhysXCommon_64.dll
 0001:00026bb3       __imp_load_?computeMaxIndex@physx@@YAIPEBII@Z 0000000180027bb3 f   PhysXCommon_64:PhysXCommon_64.dll
 0001:00026bbf       ?computeMaxIndex@physx@@YAIPEBII@Z 0000000180027bbf f   PhysXCommon_64:PhysXCommon_64.dll
 0001:00026bc5       __imp_load_?storeIndices@physx@@YAXIIPEBIAEAVPxOutputStream@1@_N@Z 0000000180027bc5 f   PhysXCommon_64:PhysXCommon_64.dll
 0001:00026bd1       ?storeIndices@physx@@YAXIIPEBIAEAVPxOutputStream@1@_N@Z 0000000180027bd1 f   PhysXCommon_64:PhysXCommon_64.dll
 0001:00026bd7       __imp_load_?BuildBV4Ex@Gu@physx@@YA_NAEAVBV4Tree@12@AEAVSourceMesh@12@MI@Z 0000000180027bd7 f   PhysXCommon_64:PhysXCommon_64.dll
 0001:00026be3       ?BuildBV4Ex@Gu@physx@@YA_NAEAVBV4Tree@12@AEAVSourceMesh@12@MI@Z 0000000180027be3 f   PhysXCommon_64:PhysXCommon_64.dll
 0001:00026be9       __imp_load_?BuildBV32Ex@Gu@physx@@YA_NAEAVBV32Tree@12@AEAVSourceMesh@12@MI@Z 0000000180027be9 f   PhysXCommon_64:PhysXCommon_64.dll
 0001:00026bf5       ?BuildBV32Ex@Gu@physx@@YA_NAEAVBV32Tree@12@AEAVSourceMesh@12@MI@Z 0000000180027bf5 f   PhysXCommon_64:PhysXCommon_64.dll
 0001:00026bfb       __imp_load_?computeMaxIndex@physx@@YAGPEBGI@Z 0000000180027bfb f   PhysXCommon_64:PhysXCommon_64.dll
 0001:00026c07       ?computeMaxIndex@physx@@YAGPEBGI@Z 0000000180027c07 f   PhysXCommon_64:PhysXCommon_64.dll
 0001:00026c0d       __imp_load_?WriteHeader@Gu@physx@@YA_NEEEEI_NAEAVPxOutputStream@2@@Z 0000000180027c0d f   PhysXCommon_64:PhysXCommon_64.dll
 0001:00026c19       ?WriteHeader@Gu@physx@@YA_NEEEEI_NAEAVPxOutputStream@2@@Z 0000000180027c19 f   PhysXCommon_64:PhysXCommon_64.dll
 0001:00026c1f       __imp_load_?StoreIndices@Gu@physx@@YAXGIPEBGAEAVPxOutputStream@2@_N@Z 0000000180027c1f f   PhysXCommon_64:PhysXCommon_64.dll
 0001:00026c2b       ?StoreIndices@Gu@physx@@YAXGIPEBGAEAVPxOutputStream@2@_N@Z 0000000180027c2b f   PhysXCommon_64:PhysXCommon_64.dll
 0001:00026c31       __imp_load_?CreateOffsets@BigConvexData@physx@@IEAAXXZ 0000000180027c31 f   PhysXCommon_64:PhysXCommon_64.dll
 0001:00026c3d       ?CreateOffsets@BigConvexData@physx@@IEAAXXZ 0000000180027c3d f   PhysXCommon_64:PhysXCommon_64.dll
 0001:00026c43       __imp_load_?computeOBBPoints@Gu@physx@@YAXPEIAVPxVec3@2@AEBV32@1111@Z 0000000180027c43 f   PhysXCommon_64:PhysXCommon_64.dll
 0001:00026c4f       ?computeOBBPoints@Gu@physx@@YAXPEIAVPxVec3@2@AEBV32@1111@Z 0000000180027c4f f   PhysXCommon_64:PhysXCommon_64.dll
 0001:00026c55       __imp_load_??0BigConvexData@physx@@QEAA@XZ 0000000180027c55 f   PhysXCommon_64:PhysXCommon_64.dll
 0001:00026c61       ??0BigConvexData@physx@@QEAA@XZ 0000000180027c61 f   PhysXCommon_64:PhysXCommon_64.dll
 0001:00026c67       __imp_load_??1BigConvexData@physx@@QEAA@XZ 0000000180027c67 f   PhysXCommon_64:PhysXCommon_64.dll
 0001:00026c73       ??1BigConvexData@physx@@QEAA@XZ 0000000180027c73 f   PhysXCommon_64:PhysXCommon_64.dll
 0001:00026c79       __imp_load_PxGetFoundation 0000000180027c79 f   PhysXFoundation_64:PhysXFoundation_64.dll
 0001:00026c85       PxGetFoundation            0000000180027c85 f   PhysXFoundation_64:PhysXFoundation_64.dll
 0001:00026c8b       __tailMerge_physxfoundation_64_dll 0000000180027c8b     PhysXFoundation_64:PhysXFoundation_64.dll
 0001:00026d04       __imp_load_?getAllocator@shdfnd@physx@@YAAEAVPxAllocatorCallback@2@XZ 0000000180027d04 f   PhysXFoundation_64:PhysXFoundation_64.dll
 0001:00026d10       ?getAllocator@shdfnd@physx@@YAAEAVPxAllocatorCallback@2@XZ 0000000180027d10 f   PhysXFoundation_64:PhysXFoundation_64.dll
 0001:00026d16       __imp_load_?getInstance@Foundation@shdfnd@physx@@SAAEAV123@XZ 0000000180027d16 f   PhysXFoundation_64:PhysXFoundation_64.dll
 0001:00026d22       ?getInstance@Foundation@shdfnd@physx@@SAAEAV123@XZ 0000000180027d22 f   PhysXFoundation_64:PhysXFoundation_64.dll
 0001:00026d28       __imp_load_?error@Foundation@shdfnd@physx@@QEAAXW4Enum@PxErrorCode@3@PEBDH1ZZ 0000000180027d28 f   PhysXFoundation_64:PhysXFoundation_64.dll
 0001:00026d34       ?error@Foundation@shdfnd@physx@@QEAAXW4Enum@PxErrorCode@3@PEBDH1ZZ 0000000180027d34 f   PhysXFoundation_64:PhysXFoundation_64.dll
 0001:00026d3a       __imp_load_?incRefCount@Foundation@shdfnd@physx@@SAXXZ 0000000180027d3a f   PhysXFoundation_64:PhysXFoundation_64.dll
 0001:00026d46       ?incRefCount@Foundation@shdfnd@physx@@SAXXZ 0000000180027d46 f   PhysXFoundation_64:PhysXFoundation_64.dll
 0001:00026d4c       __imp_load_?decRefCount@Foundation@shdfnd@physx@@SAXXZ 0000000180027d4c f   PhysXFoundation_64:PhysXFoundation_64.dll
 0001:00026d58       ?decRefCount@Foundation@shdfnd@physx@@SAXXZ 0000000180027d58 f   PhysXFoundation_64:PhysXFoundation_64.dll
 0001:00026d5e       __imp_load_??0FPUGuard@shdfnd@physx@@QEAA@XZ 0000000180027d5e f   PhysXFoundation_64:PhysXFoundation_64.dll
 0001:00026d6a       ??0FPUGuard@shdfnd@physx@@QEAA@XZ 0000000180027d6a f   PhysXFoundation_64:PhysXFoundation_64.dll
 0001:00026d70       __imp_load_??1FPUGuard@shdfnd@physx@@QEAA@XZ 0000000180027d70 f   PhysXFoundation_64:PhysXFoundation_64.dll
 0001:00026d7c       ??1FPUGuard@shdfnd@physx@@QEAA@XZ 0000000180027d7c f   PhysXFoundation_64:PhysXFoundation_64.dll
 0001:00026d82       __imp_load_?allocate@TempAllocator@shdfnd@physx@@QEAAPEAX_KPEBDH@Z 0000000180027d82 f   PhysXFoundation_64:PhysXFoundation_64.dll
 0001:00026d8e       ?allocate@TempAllocator@shdfnd@physx@@QEAAPEAX_KPEBDH@Z 0000000180027d8e f   PhysXFoundation_64:PhysXFoundation_64.dll
 0001:00026d94       __imp_load_?deallocate@TempAllocator@shdfnd@physx@@QEAAXPEAX@Z 0000000180027d94 f   PhysXFoundation_64:PhysXFoundation_64.dll
 0001:00026da0       ?deallocate@TempAllocator@shdfnd@physx@@QEAAXPEAX@Z 0000000180027da0 f   PhysXFoundation_64:PhysXFoundation_64.dll
 0001:00026da6       __imp_load_?PxDiagonalize@physx@@YA?AVPxVec3@1@AEBVPxMat33@1@AEAVPxQuat@1@@Z 0000000180027da6 f   PhysXFoundation_64:PhysXFoundation_64.dll
 0001:00026db2       ?PxDiagonalize@physx@@YA?AVPxVec3@1@AEBVPxMat33@1@AEAVPxQuat@1@@Z 0000000180027db2 f   PhysXFoundation_64:PhysXFoundation_64.dll
 0001:00026db8       ?DloadAcquireSectionWriteAccess@@YAXXZ 0000000180027db8 f i Delayimp:delayhlp.obj
 0001:00026e64       ?DloadGetSRWLockFunctionPointers@@YAEXZ 0000000180027e64 f i Delayimp:delayhlp.obj
 0001:00026f00       ?DloadMakePermanentImageCommit@@YAXPEAX_K@Z 0000000180027f00 f i Delayimp:delayhlp.obj
 0001:00026f98       ?DloadObtainSection@@YAPEAXPEAK0@Z 0000000180027f98 f i Delayimp:delayhlp.obj
 0001:00027034       ?DloadProtectSection@@YAXKPEAK@Z 0000000180028034 f i Delayimp:delayhlp.obj
 0001:000270c4       ?DloadReleaseSectionWriteAccess@@YAXXZ 00000001800280c4 f i Delayimp:delayhlp.obj
 0001:00027158       __delayLoadHelper2         0000000180028158 f   Delayimp:delayhlp.obj
 0001:0002742c       ??3@YAXPEAX_K@Z            000000018002842c f   LIBCMT:delete_scalar_size.obj
 0001:0002742c       ??_V@YAXPEAX@Z             000000018002842c f   LIBCMT:delete_array.obj
 0001:00027434       ??_Etype_info@@UEAAPEAXI@Z 0000000180028434 f i LIBCMT:std_type_info_static.obj
 0001:00027434       ??_Gtype_info@@UEAAPEAXI@Z 0000000180028434 f i LIBCMT:std_type_info_static.obj
 0001:00027460       ?__scrt_initialize_type_info@@YAXXZ 0000000180028460 f   LIBCMT:tncleanup.obj
 0001:00027470       ?__scrt_uninitialize_type_info@@YAXXZ 0000000180028470 f   LIBCMT:tncleanup.obj
 0001:00027490       __chkstk                   0000000180028490 f   LIBCMT:chkstk.obj
 0001:00027490       _alloca_probe              0000000180028490 f   LIBCMT:chkstk.obj
 0001:000274e0       ??3@YAXPEAX@Z              00000001800284e0 f   LIBCMT:delete_scalar.obj
 0001:000274f0       __vdecl_sinf4              00000001800284f0 f   LIBCMT:svml_ssinf4_dispatch.obj
 0001:00027510       __libm_sse2_sincosf_       0000000180028510 f   LIBCMT:svml_ssinf4_dispatch.obj
 0001:00027553       __libm_sse2_sincosf4_      0000000180028553 f   LIBCMT:svml_ssinf4_dispatch.obj
 0001:00027880       _DllMainCRTStartup         0000000180028880 f   LIBCMT:dll_dllmain.obj
 0001:000278c0       __isa_available_init       00000001800288c0 f   LIBCMT:cpu_disp.obj
 0001:00027a70       __sse2_sinf4@@16           0000000180028a70 f   LIBCMT:svml_ssinf4_sse2.obj
 0001:000283b0       __sse4_sinf4@@16           00000001800293b0 f   LIBCMT:svml_ssinf4_sse4.obj
 0001:00028b24       __security_init_cookie     0000000180029b24 f   LIBCMT:gs_support.obj
 0001:00028bd0       __local_stdio_printf_options 0000000180029bd0 f i LIBCMT:default_local_stdio_options.obj
 0001:00028bd8       __local_stdio_scanf_options 0000000180029bd8 f i LIBCMT:default_local_stdio_options.obj
 0001:00028be0       __scrt_initialize_default_local_stdio_options 0000000180029be0 f   LIBCMT:default_local_stdio_options.obj
 0001:00028bfc       __scrt_acquire_startup_lock 0000000180029bfc f   LIBCMT:utility.obj
 0001:00028c38       __scrt_dllmain_after_initialize_c 0000000180029c38 f   LIBCMT:utility.obj
 0001:00028c6c       __scrt_dllmain_before_initialize_c 0000000180029c6c f   LIBCMT:utility.obj
 0001:00028c84       __scrt_dllmain_crt_thread_attach 0000000180029c84 f   LIBCMT:utility.obj
 0001:00028cac       __scrt_dllmain_crt_thread_detach 0000000180029cac f   LIBCMT:utility.obj
 0001:00028cc4       __scrt_dllmain_exception_filter 0000000180029cc4 f   LIBCMT:utility.obj
 0001:00028d24       __scrt_dllmain_uninitialize_c 0000000180029d24 f   LIBCMT:utility.obj
 0001:00028d54       __scrt_dllmain_uninitialize_critical 0000000180029d54 f   LIBCMT:utility.obj
 0001:00028d68       __scrt_initialize_crt      0000000180029d68 f   LIBCMT:utility.obj
 0001:00028db4       __scrt_initialize_onexit_tables 0000000180029db4 f   LIBCMT:utility.obj
 0001:00028e40       __scrt_is_nonwritable_in_current_image 0000000180029e40 f   LIBCMT:utility.obj
 0001:00028ed8       __scrt_release_startup_lock 0000000180029ed8 f   LIBCMT:utility.obj
 0001:00028efc       __scrt_uninitialize_crt    0000000180029efc f   LIBCMT:utility.obj
 0001:00028f28       __scrt_get_dyn_tls_init_callback 0000000180029f28 f   LIBCMT:dyn_tls_init.obj
 0001:00028f30       __crt_debugger_hook        0000000180029f30 f   LIBCMT:utility_desktop.obj
 0001:00028f38       __scrt_fastfail            0000000180029f38 f   LIBCMT:utility_desktop.obj
 0001:00029084       _RTC_Initialize            000000018002a084 f   LIBCMT:initsect.obj
 0001:000290c0       _RTC_Terminate             000000018002a0c0 f   LIBCMT:initsect.obj
 0001:00029100       __common_ssin_cout_rare    000000018002a100 f   LIBCMT:svml_s_sin_cout.obj
 0001:00029170       __scrt_is_ucrt_dll_in_use  000000018002a170 f   LIBCMT:ucrt_detection.obj
 0001:0002917c       _get_purecall_handler      000000018002a17c f   libvcruntime:purevirt.obj
 0001:00029188       _purecall                  000000018002a188 f   libvcruntime:purevirt.obj
 0001:000291ac       __std_type_info_compare    000000018002a1ac f   libvcruntime:std_type_info.obj
 0001:000291d4       __std_type_info_destroy_list 000000018002a1d4 f   libvcruntime:std_type_info.obj
 0001:00029200       __std_type_info_name       000000018002a200 f   libvcruntime:std_type_info.obj
 0001:00029330       memset_repmovs             000000018002a330 f   libvcruntime:memset.obj
 0001:00029350       memset                     000000018002a350 f   libvcruntime:memset.obj
 0001:000294f0       memcpy_repmovs             000000018002a4f0 f   libvcruntime:memcpy.obj
 0001:00029510       memmove                    000000018002a510 f   libvcruntime:memcpy.obj
 0001:00029510       memcpy                     000000018002a510 f   libvcruntime:memcpy.obj
 0001:00029b88       strstr                     000000018002ab88 f   libvcruntime:strstr.obj
 0001:00029d84       __C_specific_handler       000000018002ad84 f   libvcruntime:riscchandler.obj
 0001:00029f90       __vcrt_initialize          000000018002af90 f   libvcruntime:initialization.obj
 0001:00029fb8       __vcrt_thread_attach       000000018002afb8 f   libvcruntime:initialization.obj
 0001:00029fcc       __vcrt_thread_detach       000000018002afcc f   libvcruntime:initialization.obj
 0001:00029fe0       __vcrt_uninitialize        000000018002afe0 f   libvcruntime:initialization.obj
 0001:00029ffc       __vcrt_uninitialize_critical 000000018002affc f   libvcruntime:initialization.obj
 0001:0002a00c       __DestructExceptionObject  000000018002b00c f   libvcruntime:ehhelpers.obj
 0001:0002a07c       ?_CallMemberFunction0@@YAXQEAX0@Z 000000018002b07c f i libvcruntime:ehhelpers.obj
 0001:0002a080       _IsExceptionObjectToBeDestroyed 000000018002b080 f   libvcruntime:ehhelpers.obj
 0001:0002a0b0       __AdjustPointer            000000018002b0b0 f   libvcruntime:ehhelpers.obj
 0001:0002a0d4       __FrameUnwindFilter        000000018002b0d4 f   libvcruntime:ehhelpers.obj
 0001:0002a13c       ??$?0$00@DName@@QEAA@PEBDU?$StringLifeSelector@$00@@@Z 000000018002b13c f i libvcruntime:undname.obj
 0001:0002a17c       ??$?0$01@DName@@QEAA@PEBDU?$StringLifeSelector@$01@@@Z 000000018002b17c f i libvcruntime:undname.obj
 0001:0002a17c       ??$?0$0A@@DName@@QEAA@PEBDU?$StringLifeSelector@$0A@@@@Z 000000018002b17c f i libvcruntime:undname.obj
 0001:0002a1bc       ??$?0$0A@@pcharNode@@QEAA@PEBDHU?$StringLifeSelector@$0A@@@@Z 000000018002b1bc f i libvcruntime:undname.obj
 0001:0002a1bc       ??$?0$01@pcharNode@@QEAA@PEBDHU?$StringLifeSelector@$01@@@Z 000000018002b1bc f i libvcruntime:undname.obj
 0001:0002a230       ??$append@VpcharNode@@@DName@@AEAAXPEBVpcharNode@@@Z 000000018002b230 f i libvcruntime:undname.obj
 0001:0002a230       ??$append@VcharNode@@@DName@@AEAAXPEBVcharNode@@@Z 000000018002b230 f i libvcruntime:undname.obj
 0001:0002a230       ??$append@VDNameStatusNode@@@DName@@AEAAXPEBVDNameStatusNode@@@Z 000000018002b230 f i libvcruntime:undname.obj
 0001:0002a230       ??$append@VDNameNode@@@DName@@AEAAXPEBVDNameNode@@@Z 000000018002b230 f i libvcruntime:undname.obj
 0001:0002a294       ??$doPchar@$00@DName@@AEAAXPEBDH@Z 000000018002b294 f i libvcruntime:undname.obj
 0001:0002a338       ??$doPchar@$0A@@DName@@AEAAXPEBDH@Z 000000018002b338 f i libvcruntime:undname.obj
 0001:0002a338       ??$doPchar@$01@DName@@AEAAXPEBDH@Z 000000018002b338 f i libvcruntime:undname.obj
 0001:0002a3d0       ??0DName@@QEAA@AEAPEBDD@Z  000000018002b3d0 f   libvcruntime:undname.obj
 0001:0002a480       ??0DName@@QEAA@AEBUStringLiteral@@@Z 000000018002b480 f   libvcruntime:undname.obj
 0001:0002a4ac       ??0DName@@QEAA@PEAV0@@Z    000000018002b4ac f   libvcruntime:undname.obj
 0001:0002a530       ??0DName@@QEAA@_J@Z        000000018002b530 f   libvcruntime:undname.obj
 0001:0002a5d8       ??0DName@@QEAA@_K@Z        000000018002b5d8 f   libvcruntime:undname.obj
 0001:0002a668       ??2@YAPEAX_KAEAV_HeapManager@@H@Z 000000018002b668 f   libvcruntime:undname.obj
 0001:0002a694       ??AReplicator@@QEBA?AVDName@@H@Z 000000018002b694 f   libvcruntime:undname.obj
 0001:0002a6d4       ??HDName@@QEBA?AV0@AEBUStringLiteral@@@Z 000000018002b6d4 f   libvcruntime:undname.obj
 0001:0002a700       ??HDName@@QEBA?AV0@AEBV0@@Z 000000018002b700 f   libvcruntime:undname.obj
 0001:0002a72c       ??HDName@@QEBA?AV0@D@Z     000000018002b72c f   libvcruntime:undname.obj
 0001:0002a758       ??HDName@@QEBA?AV0@W4DNameStatus@@@Z 000000018002b758 f   libvcruntime:undname.obj
 0001:0002a784       ??YDName@@QEAAAEAV0@AEBUStringLiteral@@@Z 000000018002b784 f   libvcruntime:undname.obj
 0001:0002a804       ??YDName@@QEAAAEAV0@AEBV0@@Z 000000018002b804 f   libvcruntime:undname.obj
 0001:0002a8b8       ??YDName@@QEAAAEAV0@D@Z    000000018002b8b8 f   libvcruntime:undname.obj
 0001:0002a924       ??YDName@@QEAAAEAV0@W4DNameStatus@@@Z 000000018002b924 f   libvcruntime:undname.obj
 0001:0002a990       ??YReplicator@@QEAAAEAV0@AEBVDName@@@Z 000000018002b990 f   libvcruntime:undname.obj
 0001:0002a9e8       ?UScore@UnDecorator@@SA?AUStringLiteral@@W4Tokens@@@Z 000000018002b9e8 f   libvcruntime:undname.obj
 0001:0002aa34       ?composeDeclaration@UnDecorator@@CA?AVDName@@AEBV2@@Z 000000018002ba34 f i libvcruntime:undname.obj
 0001:0002b8dc       ?doPchar@DName@@AEAAXD@Z   000000018002c8dc f   libvcruntime:undname.obj
 0001:0002b92c       ?getAddressOf@UnDecorator@@CA?AVDName@@XZ 000000018002c92c f   libvcruntime:undname.obj
 0001:0002b9bc       ?getArgumentList@UnDecorator@@CA?AVDName@@XZ 000000018002c9bc f   libvcruntime:undname.obj
 0001:0002bb50       ?getArgumentTypes@UnDecorator@@CA?AVDName@@XZ 000000018002cb50 f   libvcruntime:undname.obj
 0001:0002bcac       ?getArrayAccess@UnDecorator@@CA?AVDName@@XZ 000000018002ccac f   libvcruntime:undname.obj
 0001:0002bd48       ?getArrayObject@UnDecorator@@CA?AVDName@@XZ 000000018002cd48 f   libvcruntime:undname.obj
 0001:0002be10       ?getArrayType@UnDecorator@@CA?AVDName@@AEBV2@@Z 000000018002ce10 f i libvcruntime:undname.obj
 0001:0002c058       ?getBasedType@UnDecorator@@CA?AVDName@@XZ 000000018002d058 f   libvcruntime:undname.obj
 0001:0002c150       ?getBasicDataType@UnDecorator@@CA?AVDName@@AEBV2@@Z 000000018002d150 f   libvcruntime:undname.obj
 0001:0002c700       ?getCallingConvention@UnDecorator@@CA?AVDName@@XZ 000000018002d700 f   libvcruntime:undname.obj
 0001:0002c840       ?getDataIndirectType@UnDecorator@@CA?AVDName@@AEBV2@W4IndirectionKind@@0H@Z 000000018002d840 f   libvcruntime:undname.obj
 0001:0002d0d8       ?getDataType@UnDecorator@@CA?AVDName@@PEAV2@@Z 000000018002e0d8 f   libvcruntime:undname.obj
 0001:0002d1ec       ?getDecoratedName@UnDecorator@@CA?AVDName@@XZ 000000018002e1ec f   libvcruntime:undname.obj
 0001:0002d4d0       ?getDimension@UnDecorator@@CA?AVDName@@_N@Z 000000018002e4d0 f   libvcruntime:undname.obj
 0001:0002d61c       ?getDispatchTarget@UnDecorator@@CA?AVDName@@XZ 000000018002e61c f   libvcruntime:undname.obj
 0001:0002d668       ?getECSUDataType@UnDecorator@@CA?AVDName@@XZ 000000018002e668 f   libvcruntime:undname.obj
 0001:0002d848       ?getEnumType@UnDecorator@@CA?AVDName@@XZ 000000018002e848 f i libvcruntime:undname.obj
 0001:0002d978       ?getExtendedDataIndirectType@UnDecorator@@CA?AVDName@@AEAW4IndirectionKind@@AEA_NH@Z 000000018002e978 f   libvcruntime:undname.obj
 0001:0002db80       ?getExternalDataType@UnDecorator@@CA?AVDName@@AEBV2@@Z 000000018002eb80 f i libvcruntime:undname.obj
 0001:0002dc40       ?getFloatingPoint@UnDecorator@@CA?AVDName@@H@Z 000000018002ec40 f   libvcruntime:undname.obj
 0001:0002dd68       ?getFunctionIndirectType@UnDecorator@@CA?AVDName@@AEBV2@@Z 000000018002ed68 f   libvcruntime:undname.obj
 0001:0002e2a0       ?getLastChar@DNameStatusNode@@UEBADXZ 000000018002f2a0 f i libvcruntime:undname.obj
 0001:0002e2ac       ?getLastChar@charNode@@UEBADXZ 000000018002f2ac f i libvcruntime:undname.obj
 0001:0002e2b0       ?getLastChar@pDNameNode@@UEBADXZ 000000018002f2b0 f i libvcruntime:undname.obj
 0001:0002e2dc       ?getLastChar@pairNode@@UEBADXZ 000000018002f2dc f i libvcruntime:undname.obj
 0001:0002e314       ?getLastChar@pcharNode@@UEBADXZ 000000018002f314 f i libvcruntime:undname.obj
 0001:0002e328       ?getLexicalFrame@UnDecorator@@CA?AVDName@@XZ 000000018002f328 f i libvcruntime:undname.obj
 0001:0002e38c       ?getMemberAccess@UnDecorator@@CA?AVDName@@XZ 000000018002f38c f   libvcruntime:undname.obj
 0001:0002e420       ?getMemoryWithBuffer@_HeapManager@@QEAAPEAX_K@Z 000000018002f420 f   libvcruntime:undname.obj
 0001:0002e4b0       ?getNoexcept@UnDecorator@@CA?AVDName@@XZ 000000018002f4b0 f   libvcruntime:undname.obj
 0001:0002e514       ?getNumberOfDimensions@UnDecorator@@CAHXZ 000000018002f514 f   libvcruntime:undname.obj
 0001:0002e588       ?getOperatorName@UnDecorator@@CA?AVDName@@_NPEA_N@Z 000000018002f588 f i libvcruntime:undname.obj
 0001:0002ef7c       ?getPointerToMember@UnDecorator@@CA?AVDName@@XZ 000000018002ff7c f   libvcruntime:undname.obj
 0001:0002f074       ?getPrimaryDataType@UnDecorator@@CA?AVDName@@AEBV2@@Z 0000000180030074 f   libvcruntime:undname.obj
 0001:0002f328       ?getPtrRefDataType@UnDecorator@@CA?AVDName@@AEBV2@H@Z 0000000180030328 f   libvcruntime:undname.obj
 0001:0002f4f4       ?getPtrRefType@UnDecorator@@CA?AVDName@@AEBV2@0W4IndirectionKind@@@Z 00000001800304f4 f   libvcruntime:undname.obj
 0001:0002f6cc       ?getRestrictionSpec@UnDecorator@@CA?AVDName@@XZ 00000001800306cc f   libvcruntime:undname.obj
 0001:0002f898       ?getReturnType@UnDecorator@@CA?AVDName@@PEAV2@@Z 0000000180030898 f   libvcruntime:undname.obj
 0001:0002f8cc       ?getScope@UnDecorator@@CA?AVDName@@XZ 00000001800308cc f   libvcruntime:undname.obj
 0001:0002fd80       ?getScopedName@UnDecorator@@CA?AVDName@@XZ 0000000180030d80 f   libvcruntime:undname.obj
 0001:0002febc       ?getSignedDimension@UnDecorator@@CA?AVDName@@XZ 0000000180030ebc f   libvcruntime:undname.obj
 0001:0002ff44       ?getString@DNameStatusNode@@UEBAPEADPEAD0@Z 0000000180030f44 f i libvcruntime:undname.obj
 0001:0002ff8c       ?getString@charNode@@UEBAPEADPEAD0@Z 0000000180030f8c f i libvcruntime:undname.obj
 0001:0002ffa0       ?getString@pDNameNode@@UEBAPEADPEAD0@Z 0000000180030fa0 f i libvcruntime:undname.obj
 0001:0002ffd0       ?getString@pairNode@@UEBAPEADPEAD0@Z 0000000180030fd0 f i libvcruntime:undname.obj
 0001:0003001c       ?getString@pcharNode@@UEBAPEADPEAD0@Z 000000018003101c f i libvcruntime:undname.obj
 0001:00030054       ?getStringEncoding@UnDecorator@@CA?AVDName@@W4PrefixKind@@H@Z 0000000180031054 f   libvcruntime:undname.obj
 0001:00030138       ?getStringObject@UnDecorator@@CA?AVDName@@XZ 0000000180031138 f   libvcruntime:undname.obj
 0001:000301a0       ?getSymbolName@UnDecorator@@CA?AVDName@@XZ 00000001800311a0 f i libvcruntime:undname.obj
 0001:000301ec       ?getTemplateArgumentList@UnDecorator@@CA?AVDName@@XZ 00000001800311ec f   libvcruntime:undname.obj
 0001:00030460       ?getTemplateName@UnDecorator@@CA?AVDName@@_N@Z 0000000180031460 f   libvcruntime:undname.obj
 0001:000306f4       ?getTemplateNonTypeArgument@UnDecorator@@CA?AVDName@@XZ 00000001800316f4 f   libvcruntime:undname.obj
 0001:00030c28       ?getTemplateTypeArgument@UnDecorator@@CA?AVDName@@XZ 0000000180031c28 f   libvcruntime:undname.obj
 0001:00030d90       ?getThrowTypes@UnDecorator@@CA?AVDName@@XZ 0000000180031d90 f   libvcruntime:undname.obj
 0001:00030db4       ?getTypeEncoding@UnDecorator@@CAHXZ 0000000180031db4 f i libvcruntime:undname.obj
 0001:00031144       ?getUndecoratedName@UnDecorator@@QEAAPEADPEADH@Z 0000000180032144 f i libvcruntime:undname.obj
 0001:00031298       ?getUnionObject@UnDecorator@@CA?AVDName@@XZ 0000000180032298 f   libvcruntime:undname.obj
 0001:00031370       ?getVCallThunkType@UnDecorator@@CA?AVDName@@XZ 0000000180032370 f i libvcruntime:undname.obj
 0001:000313e8       ?getValue@UnDecorator@@CA?AV?$optional@_K@std@@XZ 00000001800323e8 f   libvcruntime:undname.obj
 0001:0003145c       ?getValueObject@UnDecorator@@CA?AVDName@@XZ 000000018003245c f   libvcruntime:undname.obj
 0001:000315b4       ?getVdispMapType@UnDecorator@@CA?AVDName@@AEBV2@@Z 00000001800325b4 f i libvcruntime:undname.obj
 0001:00031630       ?getVfTableType@UnDecorator@@CA?AVDName@@AEBV2@@Z 0000000180032630 f i libvcruntime:undname.obj
 0001:00031838       ?getZName@UnDecorator@@CA?AVDName@@_N0@Z 0000000180032838 f   libvcruntime:undname.obj
 0001:00031b20       ?raw_length@DNameStatusNode@@UEBAHXZ 0000000180032b20 f i libvcruntime:undname.obj
 0001:00031b20       ?length@DNameStatusNode@@UEBAHXZ 0000000180032b20 f i libvcruntime:undname.obj
 0001:00031b24       ?length@pDNameNode@@UEBAHXZ 0000000180032b24 f i libvcruntime:undname.obj
 0001:00031b4c       ?length@pairNode@@UEBAHXZ  0000000180032b4c f i libvcruntime:undname.obj
 0001:00031b94       ?parseDecoratedName@UnDecorator@@CA?AVDName@@XZ 0000000180032b94 f   libvcruntime:undname.obj
 0001:00031ca8       ?raw_length@pDNameNode@@UEBAHXZ 0000000180032ca8 f i libvcruntime:undname.obj
 0001:00031cac       ?raw_length@pairNode@@UEBAHXZ 0000000180032cac f i libvcruntime:undname.obj
 0001:00031cb0       __unDName                  0000000180032cb0 f   libvcruntime:undname.obj
 0001:00031cd8       __unDNameEx                0000000180032cd8 f   libvcruntime:undname.obj
 0001:00031e0c       sprintf_s                  0000000180032e0c f i libvcruntime:undname.obj
 0001:00031e70       _NLG_Notify                0000000180032e70 f   libvcruntime:notify.obj
 0001:00031e90       __NLG_Dispatch2            0000000180032e90 f   libvcruntime:notify.obj
 0001:00031ea0       __NLG_Return2              0000000180032ea0 f   libvcruntime:notify.obj
 0001:00031ea4       __except_validate_context_record 0000000180032ea4 f   libvcruntime:jbcxrval.obj
 0001:00031edc       __vcrt_freefls             0000000180032edc f   libvcruntime:per_thread_data.obj
 0001:00031efc       __vcrt_freeptd             0000000180032efc f   libvcruntime:per_thread_data.obj
 0001:00031f4c       __vcrt_getptd              0000000180032f4c f   libvcruntime:per_thread_data.obj
 0001:00031f68       __vcrt_getptd_noexit       0000000180032f68 f   libvcruntime:per_thread_data.obj
 0001:00032028       __vcrt_initialize_ptd      0000000180033028 f   libvcruntime:per_thread_data.obj
 0001:00032070       __vcrt_uninitialize_ptd    0000000180033070 f   libvcruntime:per_thread_data.obj
 0001:00032094       __vcrt_initialize_locks    0000000180033094 f   libvcruntime:locks.obj
 0001:000320c8       __vcrt_lock                00000001800330c8 f   libvcruntime:locks.obj
 0001:000320e4       __vcrt_uninitialize_locks  00000001800330e4 f   libvcruntime:locks.obj
 0001:0003211c       __vcrt_unlock              000000018003311c f   libvcruntime:locks.obj
 0001:00032138       ??$_CallSETranslator@V__FrameHandler4@@@@YAHPEAUEHExceptionRecord@@PEA_KPEAU_CONTEXT@@PEAU_xDISPATCHER_CONTEXT@@PEAUFuncInfo4@FH4@@K1H@Z 0000000180033138 f i libvcruntime:risctrnsctrl.obj
 0001:0003218c       ?DecompFuncInfo@FH4@@YA_JPEAEAEAUFuncInfo4@1@_KH_N@Z 000000018003318c f i libvcruntime:risctrnsctrl.obj
 0001:000322b0       ?ExecutionInCatch@__FrameHandler4@@SA_NPEAU_xDISPATCHER_CONTEXT@@PEAUFuncInfo4@FH4@@@Z 00000001800332b0 f   libvcruntime:risctrnsctrl.obj
 0001:000322b8       ?FrameUnwindToEmptyState@__FrameHandler4@@SAXPEA_KPEAU_xDISPATCHER_CONTEXT@@PEAUFuncInfo4@FH4@@@Z 00000001800332b8 f   libvcruntime:risctrnsctrl.obj
 0001:000322ec       ?GetEstablisherFrame@__FrameHandler4@@SAPEA_KPEA_KPEAU_xDISPATCHER_CONTEXT@@PEAUFuncInfo4@FH4@@0@Z 00000001800332ec f   libvcruntime:risctrnsctrl.obj
 0001:00032310       ?GetRangeOfTrysToCheck@__FrameHandler4@@SA?AU?$pair@Viterator@TryBlockMap4@FH4@@V123@@std@@AEAVTryBlockMap4@FH4@@HPEAU_xDISPATCHER_CONTEXT@@PEAUFuncInfo4@5@H@Z 0000000180033310 f   libvcruntime:risctrnsctrl.obj
 0001:00032478       ?UnwindNestedFrames@__FrameHandler4@@SAXPEA_KPEAUEHExceptionRecord@@PEAU_CONTEXT@@0PEAXPEAUFuncInfo4@FH4@@HHPEAUHandlerType4@5@PEAU_xDISPATCHER_CONTEXT@@E@Z 0000000180033478 f   libvcruntime:risctrnsctrl.obj
 0001:00032598       ?setBuffer@TryBlockMap4@FH4@@QEAAXViterator@12@@Z 0000000180033598 f i libvcruntime:risctrnsctrl.obj
 0001:00032758       _CreateFrameInfo           0000000180033758 f   libvcruntime:risctrnsctrl.obj
 0001:00032794       _FindAndUnlinkFrame        0000000180033794 f   libvcruntime:risctrnsctrl.obj
 0001:000327e8       _GetImageBase              00000001800337e8 f   libvcruntime:risctrnsctrl.obj
 0001:000327fc       _GetThrowImageBase         00000001800337fc f   libvcruntime:risctrnsctrl.obj
 0001:00032810       _SetImageBase              0000000180033810 f   libvcruntime:risctrnsctrl.obj
 0001:00032828       _SetThrowImageBase         0000000180033828 f   libvcruntime:risctrnsctrl.obj
 0001:00032840       __CxxFrameHandler4         0000000180033840 f   libvcruntime:risctrnsctrl.obj
 0001:00032a50       __vcrt_FlsAlloc            0000000180033a50 f   libvcruntime:winapi_downlevel.obj
 0001:00032a98       __vcrt_FlsFree             0000000180033a98 f   libvcruntime:winapi_downlevel.obj
 0001:00032ae0       __vcrt_FlsGetValue         0000000180033ae0 f   libvcruntime:winapi_downlevel.obj
 0001:00032b28       __vcrt_FlsSetValue         0000000180033b28 f   libvcruntime:winapi_downlevel.obj
 0001:00032b7c       __vcrt_InitializeCriticalSectionEx 0000000180033b7c f   libvcruntime:winapi_downlevel.obj
 0001:00032be0       ?StateFromControlPc@__FrameHandler4@@SAHPEAUFuncInfo4@FH4@@PEAU_xDISPATCHER_CONTEXT@@@Z 0000000180033be0 f   libvcruntime:ehstate.obj
 0001:00032be8       ?StateFromIp@__FrameHandler4@@SAHPEAUFuncInfo4@FH4@@PEAU_xDISPATCHER_CONTEXT@@_K@Z 0000000180033be8 f   libvcruntime:ehstate.obj
 0001:00033858       ??$TypeMatchHelper@V__FrameHandler3@@@@YAHPEBU_s_HandlerType@@PEBU_s_CatchableType@@PEBU_s_ThrowInfo@@@Z 0000000180034858 f i libvcruntime:frame.obj
 0001:00033998       ??$TypeMatchHelper@V__FrameHandler4@@@@YAHPEAUHandlerType4@FH4@@PEBU_s_CatchableType@@PEBU_s_ThrowInfo@@@Z 0000000180034998 f i libvcruntime:frame.obj
 0001:00033adc       ??$__InternalCxxFrameHandler@V__FrameHandler4@@@@YA?AW4_EXCEPTION_DISPOSITION@@PEAUEHExceptionRecord@@PEA_KPEAU_CONTEXT@@PEAU_xDISPATCHER_CONTEXT@@PEAUFuncInfo4@FH4@@H1E@Z 0000000180034adc f i libvcruntime:frame.obj
 0001:00033d70       ??0HandlerMap4@FH4@@QEAA@PEBUTryBlockMapEntry4@1@_KH@Z 0000000180034d70 f i libvcruntime:frame.obj
 0001:00033dec       ??0TryBlockMap4@FH4@@QEAA@PEBUFuncInfo4@1@_K@Z 0000000180034dec f i libvcruntime:frame.obj
 0001:00033ec4       ??0bad_exception@std@@QEAA@AEBV01@@Z 0000000180034ec4 f i libvcruntime:frame.obj
 0001:00033f00       ??0bad_exception@std@@QEAA@XZ 0000000180034f00 f i libvcruntime:frame.obj
 0001:00033f20       ??0exception@std@@QEAA@AEBV01@@Z 0000000180034f20 f i libvcruntime:frame.obj
 0001:00033f54       ??1bad_exception@std@@UEAA@XZ 0000000180034f54 f i libvcruntime:frame.obj
 0001:00033f68       ??_Gbad_exception@std@@UEAAPEAXI@Z 0000000180034f68 f i libvcruntime:frame.obj
 0001:00033f68       ??_Ebad_exception@std@@UEAAPEAXI@Z 0000000180034f68 f i libvcruntime:frame.obj
 0001:00033f68       ??_Eexception@std@@UEAAPEAXI@Z 0000000180034f68 f i libvcruntime:frame.obj
 0001:00033f68       ??_Gexception@std@@UEAAPEAXI@Z 0000000180034f68 f i libvcruntime:frame.obj
 0001:00033fac       ?CxxCallCatchBlock@__FrameHandler4@@SAPEAXPEAU_EXCEPTION_RECORD@@@Z 0000000180034fac f   libvcruntime:frame.obj
 0001:000341fc       ?DecompHandler@HandlerMap4@FH4@@AEAAXXZ 00000001800351fc f i libvcruntime:frame.obj
 0001:0003443c       ?FrameUnwindToState@__FrameHandler4@@SAXPEA_KPEAU_xDISPATCHER_CONTEXT@@PEAUFuncInfo4@FH4@@H@Z 000000018003543c f   libvcruntime:frame.obj
 0001:0003489c       ?ReadEntry@UWMap4@FH4@@AEAAXPEAPEAE@Z 000000018003589c f i libvcruntime:frame.obj
 0001:0003493c       ?_CallMemberFunction1@@YAXQEAX00@Z 000000018003593c f i libvcruntime:frame.obj
 0001:00034948       ?_CallMemberFunction2@@YAXQEAX00H@Z 0000000180035948 f i libvcruntime:frame.obj
 0001:00034958       ?getStartStop@UWMap4@FH4@@QEAAXHHAEAViterator@12@0@Z 0000000180035958 f i libvcruntime:frame.obj
 0001:00034a28       ?getStateFromIterators@UWMap4@FH4@@SAHAEBViterator@12@H0H0@Z 0000000180035a28 f i libvcruntime:frame.obj
 0001:00034af0       ?what@exception@std@@UEBAPEBDXZ 0000000180035af0 f i libvcruntime:frame.obj
 0001:00034b20       _CallSettingFrame          0000000180035b20 f   libvcruntime:handlers.obj
 0001:00034b70       _CallSettingFrame_LookupContinuationIndex 0000000180035b70 f   libvcruntime:handlers.obj
 0001:00034ba0       _CallSettingFrame_NotifyContinuationAddr 0000000180035ba0 f   libvcruntime:handlers.obj
 0001:00034bd0       _CallSettingFrameEncoded   0000000180035bd0 f   libvcruntime:handlers.obj
 0001:00034c18       __std_exception_copy       0000000180035c18 f   libvcruntime:std_exception.obj
 0001:00034ca8       __std_exception_destroy    0000000180035ca8 f   libvcruntime:std_exception.obj
 0001:00034cd0       _CxxThrowException         0000000180035cd0 f   libvcruntime:throw.obj
 0001:00034d80       strcmp                     0000000180035d80 f   libucrt:strcmp.obj
 0001:00034de8       atan2f                     0000000180035de8 f   libucrt:atan2f.obj
 0001:000351e0       cosf                       00000001800361e0 f   libucrt:cosf.obj
 0001:000356e0       sinf                       00000001800366e0 f   libucrt:sinf.obj
 0001:00035dd8       _fpclass                   0000000180036dd8 f   libucrt:ieeemisc.obj
 0001:00035e60       free                       0000000180036e60 f   libucrt:free.obj
 0001:00035e74       _initterm                  0000000180036e74 f   libucrt:initterm.obj
 0001:00035ed8       _initterm_e                0000000180036ed8 f   libucrt:initterm.obj
 0001:00035f18       _seh_filter_dll            0000000180036f18 f   libucrt:exception_filter.obj
 0001:00035f2c       _seh_filter_exe            0000000180036f2c f   libucrt:exception_filter.obj
 0001:0003631c       __acrt_initialize_thread_local_exit_callback 000000018003731c f   libucrt:exit.obj
 0001:00036324       _cexit                     0000000180037324 f   libucrt:exit.obj
 0001:00036334       _exit                      0000000180037334 f   libucrt:exit.obj
 0001:00036340       _is_c_termination_complete 0000000180037340 f   libucrt:exit.obj
 0001:00036508       __acrt_allocate_buffer_for_argv 0000000180037508 f   libucrt:argv_parsing.obj
 0001:00036568       _configure_narrow_argv     0000000180037568 f   libucrt:argv_parsing.obj
 0001:000368e0       __dcrt_uninitialize_environments_nolock 00000001800378e0 f   libucrt:environment_initialization.obj
 0001:00036918       _initialize_narrow_environment 0000000180037918 f   libucrt:environment_initialization.obj
 0001:00036a74       _execute_onexit_table      0000000180037a74 f   libucrt:onexit.obj
 0001:00036ab0       _initialize_onexit_table   0000000180037ab0 f   libucrt:onexit.obj
 0001:00036b10       __acrt_uninitialize_command_line 0000000180037b10 f   libucrt:argv_data.obj
 0001:00036c08       __acrt_initialize          0000000180037c08 f   libucrt:initialization.obj
 0001:00036c1c       __acrt_thread_attach       0000000180037c1c f   libucrt:initialization.obj
 0001:00036c30       __acrt_thread_detach       0000000180037c30 f   libucrt:initialization.obj
 0001:00036c40       __acrt_uninitialize        0000000180037c40 f   libucrt:initialization.obj
 0001:00036c78       __acrt_uninitialize_critical 0000000180037c78 f   libucrt:initialization.obj
 0001:00036c88       terminate                  0000000180037c88 f   libucrt:terminate.obj
 0001:00036ca8       abort                      0000000180037ca8 f   libucrt:abort.obj
 0001:00036d00       malloc                     0000000180037d00 f   libucrt:malloc.obj
 0001:00036d08       strcpy_s                   0000000180037d08 f   libucrt:strcpy_s.obj
 0001:00036f34       ??$ensure_buffer_is_big_enough@D@formatting_buffer@__crt_stdio_output@@QEAA_N_K@Z 0000000180037f34 f i libucrt:output.obj
 0001:00036fdc       ??$type_case_integer_parse_into_buffer@I@?$output_processor@DV?$string_output_adapter@D@__crt_stdio_output@@V?$format_validation_base@DV?$string_output_adapter@D@__crt_stdio_output@@@2@@__crt_stdio_output@@AEAAXII_N@Z 0000000180037fdc f i libucrt:output.obj
 0001:00037064       ??$type_case_integer_parse_into_buffer@_K@?$output_processor@DV?$string_output_adapter@D@__crt_stdio_output@@V?$format_validation_base@DV?$string_output_adapter@D@__crt_stdio_output@@@2@@__crt_stdio_output@@AEAAX_KI_N@Z 0000000180038064 f i libucrt:output.obj
 0001:000370f4       ??$write_multiple_characters@V?$string_output_adapter@D@__crt_stdio_output@@D@__crt_stdio_output@@YAXAEBV?$string_output_adapter@D@0@DHQEAH@Z 00000001800380f4 f i libucrt:output.obj
 0001:0003716c       ??0_LocaleUpdate@@QEAA@QEAU__crt_locale_pointers@@@Z 000000018003816c f i libucrt:output.obj
 0001:00037210       ?crop_zeroes@__crt_stdio_output@@YAXPEADQEAU__crt_locale_pointers@@@Z 0000000180038210 f i libucrt:output.obj
 0001:000372b0       ?force_decimal_point@__crt_stdio_output@@YAXPEADQEAU__crt_locale_pointers@@@Z 00000001800382b0 f i libucrt:output.obj
 0001:00037328       ?parse_int_from_format_string@?$output_processor@DV?$string_output_adapter@D@__crt_stdio_output@@V?$format_validation_base@DV?$string_output_adapter@D@__crt_stdio_output@@@2@@__crt_stdio_output@@AEAA_NQEAH@Z 0000000180038328 f i libucrt:output.obj
 0001:000373cc       ?process@?$output_processor@DV?$string_output_adapter@D@__crt_stdio_output@@V?$format_validation_base@DV?$string_output_adapter@D@__crt_stdio_output@@@2@@__crt_stdio_output@@QEAAHXZ 00000001800383cc f i libucrt:output.obj
 0001:000375e0       ?state_case_normal@?$output_processor@DV?$string_output_adapter@D@__crt_stdio_output@@V?$format_validation_base@DV?$string_output_adapter@D@__crt_stdio_output@@@2@@__crt_stdio_output@@AEAA_NXZ 00000001800385e0 f i libucrt:output.obj
 0001:00037654       ?state_case_normal_tchar@?$output_processor@DV?$string_output_adapter@D@__crt_stdio_output@@V?$format_validation_base@DV?$string_output_adapter@D@__crt_stdio_output@@@2@@__crt_stdio_output@@AEAA_ND@Z 0000000180038654 f i libucrt:output.obj
 0001:000376fc       ?state_case_size@?$output_processor@DV?$string_output_adapter@D@__crt_stdio_output@@V?$format_validation_base@DV?$string_output_adapter@D@__crt_stdio_output@@@2@@__crt_stdio_output@@AEAA_NXZ 00000001800386fc f i libucrt:output.obj
 0001:0003786c       ?state_case_type@?$output_processor@DV?$string_output_adapter@D@__crt_stdio_output@@V?$format_validation_base@DV?$string_output_adapter@D@__crt_stdio_output@@@2@@__crt_stdio_output@@AEAA_NXZ 000000018003886c f i libucrt:output.obj
 0001:00037ae0       ?to_integer_size@__crt_stdio_output@@YA_KW4length_modifier@1@@Z 0000000180038ae0 f i libucrt:output.obj
 0001:00037b48       ?type_case_Z@?$output_processor@DV?$string_output_adapter@D@__crt_stdio_output@@V?$format_validation_base@DV?$string_output_adapter@D@__crt_stdio_output@@@2@@__crt_stdio_output@@AEAA_NXZ 0000000180038b48 f i libucrt:output.obj
 0001:00037bbc       ?type_case_a@?$output_processor@DV?$string_output_adapter@D@__crt_stdio_output@@V?$format_validation_base@DV?$string_output_adapter@D@__crt_stdio_output@@@2@@__crt_stdio_output@@AEAA_NXZ 0000000180038bbc f i libucrt:output.obj
 0001:00037d78       ?type_case_c_tchar@?$output_processor@DV?$string_output_adapter@D@__crt_stdio_output@@V?$format_validation_base@DV?$string_output_adapter@D@__crt_stdio_output@@@2@@__crt_stdio_output@@AEAA_ND@Z 0000000180038d78 f i libucrt:output.obj
 0001:00037e40       ?type_case_integer@?$output_processor@DV?$string_output_adapter@D@__crt_stdio_output@@V?$format_validation_base@DV?$string_output_adapter@D@__crt_stdio_output@@@2@@__crt_stdio_output@@AEAA_NI_N@Z 0000000180038e40 f i libucrt:output.obj
 0001:00037fc0       ?type_case_n@?$output_processor@DV?$string_output_adapter@D@__crt_stdio_output@@V?$format_validation_base@DV?$string_output_adapter@D@__crt_stdio_output@@@2@@__crt_stdio_output@@AEAA_NXZ 0000000180038fc0 f i libucrt:output.obj
 0001:00038048       ?type_case_s@?$output_processor@DV?$string_output_adapter@D@__crt_stdio_output@@V?$format_validation_base@DV?$string_output_adapter@D@__crt_stdio_output@@@2@@__crt_stdio_output@@AEAA_NXZ 0000000180039048 f i libucrt:output.obj
 0001:000380e0       ?write_stored_string_tchar@?$output_processor@DV?$string_output_adapter@D@__crt_stdio_output@@V?$format_validation_base@DV?$string_output_adapter@D@__crt_stdio_output@@@2@@__crt_stdio_output@@AEAA_ND@Z 00000001800390e0 f i libucrt:output.obj
 0001:000381bc       ?write_string@?$string_output_adapter@D@__crt_stdio_output@@QEBAXQEBDHQEAHAEAV__crt_deferred_errno_cache@@@Z 00000001800391bc f i libucrt:output.obj
 0001:00038260       __stdio_common_vsprintf_s  0000000180039260 f   libucrt:output.obj
 0001:000382c4       ??$parse_integer@KV?$c_string_character_source@D@__crt_strtox@@@__crt_strtox@@YAKQEAU__crt_locale_pointers@@V?$c_string_character_source@D@0@H_N@Z 00000001800392c4 f i libucrt:atox.obj
 0001:000385c8       _ischartype_l              00000001800395c8 f i libucrt:atox.obj
 0001:00038640       atol                       0000000180039640 f   libucrt:atox.obj
 0001:00038680       strncmp                    0000000180039680 f   libucrt:strncmp.obj
 0001:00038700       calloc                     0000000180039700 f   libucrt:calloc.obj
 0001:00038708       wcsncmp                    0000000180039708 f   libucrt:wcsncmp.obj
 0001:00038734       _clrfp                     0000000180039734 f   libucrt:fpctrl.obj
 0001:00038754       _ctrlfp                    0000000180039754 f   libucrt:fpctrl.obj
 0001:000387d0       _set_statfp                00000001800397d0 f   libucrt:fpctrl.obj
 0001:000387f0       _statfp                    00000001800397f0 f   libucrt:fpctrl.obj
 0001:00038928       _handle_error              0000000180039928 f   libucrt:libm_error.obj
 0001:00038a50       _handle_errorf             0000000180039a50 f   libucrt:libm_error.obj
 0001:00038b84       _handle_nan                0000000180039b84 f   libucrt:libm_error.obj
 0001:00038ba0       _handle_nanf               0000000180039ba0 f   libucrt:libm_error.obj
 0001:00038bb0       __remainder_piby2d2f_forAsm 0000000180039bb0 f   libucrt:remainder_piby2f_forasm.obj
 0001:00038d00       __remainder_piby2_fma3     0000000180039d00 f   libucrt:remainder_piby2_forfma3.obj
 0001:00038ef0       __remainder_piby2_fma3_bdl 0000000180039ef0 f   libucrt:remainder_piby2_forfma3.obj
 0001:00038f68       _cosf_special              0000000180039f68 f   libucrt:sincos_special.obj
 0001:00039008       _sinf_special              000000018003a008 f   libucrt:sincos_special.obj
 0001:00039020       __acrt_initialize_fma3     000000018003a020 f   libucrt:fma3_available.obj
 0001:00039090       __remainder_piby2d2f_forC  000000018003a090 f   libucrt:remainder_piby2f_forc.obj
 0001:0003921c       _free_base                 000000018003a21c f   libucrt:free_base.obj
 0001:000395d4       __acrt_freeptd             000000018003a5d4 f   libucrt:per_thread_data.obj
 0001:00039618       __acrt_getptd              000000018003a618 f   libucrt:per_thread_data.obj
 0001:000396ec       __acrt_getptd_head         000000018003a6ec f   libucrt:per_thread_data.obj
 0001:00039794       __acrt_getptd_noexit       000000018003a794 f   libucrt:per_thread_data.obj
 0001:00039860       __acrt_initialize_ptd      000000018003a860 f   libucrt:per_thread_data.obj
 0001:0003989c       __acrt_uninitialize_ptd    000000018003a89c f   libucrt:per_thread_data.obj
 0001:000398c0       __acrt_initialize_locks    000000018003a8c0 f   libucrt:locks.obj
 0001:00039908       __acrt_lock                000000018003a908 f   libucrt:locks.obj
 0001:00039924       __acrt_uninitialize_locks  000000018003a924 f   libucrt:locks.obj
 0001:0003995c       __acrt_unlock              000000018003a95c f   libucrt:locks.obj
 0001:00039978       __acrt_get_process_end_policy 000000018003a978 f   libucrt:win_policies.obj
 0001:000399b4       __acrt_call_reportfault    000000018003a9b4 f   libucrt:invalid_parameter.obj
 0001:00039b10       __acrt_initialize_invalid_parameter_handler 000000018003ab10 f   libucrt:invalid_parameter.obj
 0001:00039b18       _invalid_parameter         000000018003ab18 f   libucrt:invalid_parameter.obj
 0001:00039bc8       _invalid_parameter_noinfo  000000018003abc8 f   libucrt:invalid_parameter.obj
 0001:00039be8       _invoke_watson             000000018003abe8 f   libucrt:invalid_parameter.obj
 0001:00039c30       __acrt_errno_from_os_error 000000018003ac30 f   libucrt:errno.obj
 0001:00039c78       __acrt_errno_map_os_error  000000018003ac78 f   libucrt:errno.obj
 0001:00039cc8       __doserrno                 000000018003acc8 f   libucrt:errno.obj
 0001:00039ce8       _errno                     000000018003ace8 f   libucrt:errno.obj
 0001:00039d08       _calloc_base               000000018003ad08 f   libucrt:calloc_base.obj
 0001:00039d94       ??$__acrt_mbs_to_wcs_cp@U__crt_win32_buffer_internal_dynamic_resizing@@@@YAHQEBDAEAV?$__crt_win32_buffer@_WU__crt_win32_buffer_internal_dynamic_resizing@@@@I@Z 000000018003ad94 f i libucrt:argv_wildcards.obj
 0001:00039f0c       ??$__acrt_wcs_to_mbs_cp@U__crt_win32_buffer_internal_dynamic_resizing@@@@YAHQEB_WAEAV?$__crt_win32_buffer@DU__crt_win32_buffer_internal_dynamic_resizing@@@@I@Z 000000018003af0c f i libucrt:argv_wildcards.obj
 0001:0003a73c       __acrt_expand_narrow_argv_wildcards 000000018003b73c f   libucrt:argv_wildcards.obj
 0001:0003a744       ??$__acrt_wcs_to_mbs_cp@U__crt_win32_buffer_no_resizing@@@@YAHQEB_WAEAV?$__crt_win32_buffer@DU__crt_win32_buffer_no_resizing@@@@I@Z 000000018003b744 f i libucrt:getmodulefilenamea.obj
 0001:0003a858       __acrt_GetModuleFileNameA  000000018003b858 f   libucrt:getmodulefilenamea.obj
 0001:0003b0a0       __acrt_initialize_multibyte 000000018003c0a0 f   libucrt:mbctype.obj
 0001:0003b100       __acrt_update_thread_multibyte_data 000000018003c100 f   libucrt:mbctype.obj
 0001:0003b11c       _setmbcp_nolock            000000018003c11c f   libucrt:mbctype.obj
 0001:0003b450       _ismbblead                 000000018003c450 f   libucrt:ismbbyte.obj
 0001:0003b464       __acrt_initialize_command_line 000000018003c464 f   libucrt:argv_data.obj
 0001:0003b48c       __acrt_MultiByteToWideChar 000000018003c48c f   libucrt:multibytetowidechar.obj
 0001:0003b4e8       __acrt_WideCharToMultiByte 000000018003c4e8 f   libucrt:widechartomultibyte.obj
 0001:0003b598       __dcrt_get_narrow_environment_from_os 000000018003c598 f   libucrt:get_environment_from_os.obj
 0001:0003b69c       _recalloc_base             000000018003c69c f   libucrt:recalloc.obj
 0001:0003b90c       __acrt_AppPolicyGetProcessTerminationMethodInternal 000000018003c90c f   libucrt:winapi_thunks.obj
 0001:0003b95c       __acrt_AreFileApisANSI     000000018003c95c f   libucrt:winapi_thunks.obj
 0001:0003b998       __acrt_FlsAlloc            000000018003c998 f   libucrt:winapi_thunks.obj
 0001:0003b9e0       __acrt_FlsFree             000000018003c9e0 f   libucrt:winapi_thunks.obj
 0001:0003ba28       __acrt_FlsGetValue         000000018003ca28 f   libucrt:winapi_thunks.obj
 0001:0003ba70       __acrt_FlsSetValue         000000018003ca70 f   libucrt:winapi_thunks.obj
 0001:0003bac4       __acrt_InitializeCriticalSectionEx 000000018003cac4 f   libucrt:winapi_thunks.obj
 0001:0003bb28       __acrt_LCMapStringEx       000000018003cb28 f   libucrt:winapi_thunks.obj
 0001:0003bc04       __acrt_LocaleNameToLCID    000000018003cc04 f   libucrt:winapi_thunks.obj
 0001:0003bc54       __acrt_initialize_winapi_thunks 000000018003cc54 f   libucrt:winapi_thunks.obj
 0001:0003bc88       __acrt_uninitialize_winapi_thunks 000000018003cc88 f   libucrt:winapi_thunks.obj
 0001:0003bccc       __acrt_initialize_heap     000000018003cccc f   libucrt:heap_handle.obj
 0001:0003bce8       __acrt_uninitialize_heap   000000018003cce8 f   libucrt:heap_handle.obj
 0001:0003bef0       __acrt_initialize_lowio    000000018003cef0 f   libucrt:ioinit.obj
 0001:0003bf2c       __acrt_uninitialize_lowio  000000018003cf2c f   libucrt:ioinit.obj
 0001:0003bf6c       __acrt_execute_initializers 000000018003cf6c f   libucrt:shared_initialization.obj
 0001:0003bfec       __acrt_execute_uninitializers 000000018003cfec f   libucrt:shared_initialization.obj
 0001:0003c028       __acrt_initialize_new_handler 000000018003d028 f   libucrt:new_handler.obj
 0001:0003c030       _callnewh                  000000018003d030 f   libucrt:new_handler.obj
 0001:0003c060       _query_new_handler         000000018003d060 f   libucrt:new_handler.obj
 0001:0003c0dc       __acrt_get_sigabrt_handler 000000018003d0dc f   libucrt:signal.obj
 0001:0003c10c       __acrt_initialize_signal_handlers 000000018003d10c f   libucrt:signal.obj
 0001:0003c12c       raise                      000000018003d12c f   libucrt:signal.obj
 0001:0003c398       __acrt_has_user_matherr    000000018003d398 f   libucrt:matherr.obj
 0001:0003c3b8       __acrt_initialize_user_matherr 000000018003d3b8 f   libucrt:matherr.obj
 0001:0003c3c0       __acrt_invoke_user_matherr 000000018003d3c0 f   libucrt:matherr.obj
 0001:0003c5cc       __acrt_stdio_flush_nolock  000000018003d5cc f   libucrt:fflush.obj
 0001:0003c648       _fflush_nolock             000000018003d648 f   libucrt:fflush.obj
 0001:0003c694       _flushall                  000000018003d694 f   libucrt:fflush.obj
 0001:0003c69c       __acrt_initialize_stdio    000000018003d69c f   libucrt:_file.obj
 0001:0003c7bc       __acrt_uninitialize_stdio  000000018003d7bc f   libucrt:_file.obj
 0001:0003c818       _lock_file                 000000018003d818 f   libucrt:_file.obj
 0001:0003c824       _unlock_file               000000018003d824 f   libucrt:_file.obj
 0001:0003c830       _malloc_base               000000018003d830 f   libucrt:malloc_base.obj
 0001:0003c890       strtol                     000000018003d890 f   libucrt:strtox.obj
 0001:0003c8bc       _mbtowc_l                  000000018003d8bc f   libucrt:mbtowc.obj
 0001:0003ca3c       mbtowc                     000000018003da3c f   libucrt:mbtowc.obj
 0001:0003ca44       _wctomb_s_l                000000018003da44 f   libucrt:wctomb.obj
 0001:0003cbe0       strnlen                    000000018003dbe0 f   libucrt:strnlen.obj
 0001:0003cd30       wcsnlen                    000000018003dd30 f   libucrt:strnlen.obj
 0001:0003cf08       __acrt_update_locale_info  000000018003df08 f   libucrt:locale_update.obj
 0001:0003cf3c       __acrt_update_multibyte_info 000000018003df3c f   libucrt:locale_update.obj
 0001:0003d97c       __acrt_fp_format           000000018003e97c f   libucrt:cvt.obj
 0001:0003dcb4       _fileno                    000000018003ecb4 f   libucrt:fileno.obj
 0001:0003dcdc       _get_printf_count_output   000000018003ecdc f   libucrt:printf_count_output.obj
 0001:0003dd64       __acrt_set_locale_changed  000000018003ed64 f   libucrt:wsetlocale.obj
 0001:0003dd70       __acrt_uninitialize_locale 000000018003ed70 f   libucrt:wsetlocale.obj
 0001:0003dda0       __pctype_func              000000018003eda0 f   libucrt:ctype.obj
 0001:0003ddd0       _isctype_l                 000000018003edd0 f   libucrt:isctype.obj
 0001:0003def0       _get_fpsr                  000000018003eef0 f   libucrt:fpsr.obj
 0001:0003df00       _set_fpsr                  000000018003ef00 f   libucrt:fpsr.obj
 0001:0003df0a       _fclrf                     000000018003ef0a f   libucrt:fpsr.obj
 0001:0003df1e       _frnd                      000000018003ef1e f   libucrt:fpsr.obj
 0001:0003df40       _raise_exc                 000000018003ef40 f   libucrt:fpexcept.obj
 0001:0003df68       _raise_exc_ex              000000018003ef68 f   libucrt:fpexcept.obj
 0001:0003e278       _raise_excf                000000018003f278 f   libucrt:fpexcept.obj
 0001:0003e2a4       _set_errno_from_matherr    000000018003f2a4 f   libucrt:fpexcept.obj
 0001:0003e2d4       __acrt_add_locale_ref      000000018003f2d4 f   libucrt:locale_refcounting.obj
 0001:0003e360       __acrt_free_locale         000000018003f360 f   libucrt:locale_refcounting.obj
 0001:0003e4d8       __acrt_locale_add_lc_time_reference 000000018003f4d8 f   libucrt:locale_refcounting.obj
 0001:0003e500       __acrt_locale_free_lc_time_if_unreferenced 000000018003f500 f   libucrt:locale_refcounting.obj
 0001:0003e538       __acrt_locale_release_lc_time_reference 000000018003f538 f   libucrt:locale_refcounting.obj
 0001:0003e560       __acrt_release_locale_ref  000000018003f560 f   libucrt:locale_refcounting.obj
 0001:0003e608       __acrt_update_thread_locale_data 000000018003f608 f   libucrt:locale_refcounting.obj
 0001:0003e678       _updatetlocinfoEx_nolock   000000018003f678 f   libucrt:locale_refcounting.obj
 0001:0003e6e0       _query_new_mode            000000018003f6e0 f   libucrt:new_mode.obj
 0001:0003e6f0       qsort                      000000018003f6f0 f   libucrt:qsort.obj
 0001:0003ea90       strncpy_s                  000000018003fa90 f   libucrt:strncpy_s.obj
 0001:0003ec10       strpbrk                    000000018003fc10 f   libucrt:strpbrk.obj
 0001:0003efd8       _mbsdec                    000000018003ffd8 f   libucrt:mbsdec.obj
 0001:0003efe0       _mbsdec_l                  000000018003ffe0 f   libucrt:mbsdec.obj
 0001:0003f074       __acrt_GetStringTypeA      0000000180040074 f   libucrt:getstringtypea.obj
 0001:0003f51c       __acrt_LCMapStringA        000000018004051c f   libucrt:lcmapstringa.obj
 0001:0003f5cc       _msize_base                00000001800405cc f   libucrt:msize.obj
 0001:0003f608       _realloc_base              0000000180040608 f   libucrt:realloc_base.obj
 0001:0003f684       __acrt_DownlevelLocaleNameToLCID 0000000180040684 f   libucrt:lcidtoname_downlevel.obj
 0001:0003f734       __acrt_lowio_create_handle_array 0000000180040734 f   libucrt:osfinfo.obj
 0001:0003f7dc       __acrt_lowio_destroy_handle_array 00000001800407dc f   libucrt:osfinfo.obj
 0001:0003f82c       __acrt_lowio_ensure_fh_exists 000000018004082c f   libucrt:osfinfo.obj
 0001:0003f8d4       __acrt_lowio_lock_fh       00000001800408d4 f   libucrt:osfinfo.obj
 0001:0003f8fc       __acrt_lowio_unlock_fh     00000001800408fc f   libucrt:osfinfo.obj
 0001:0003f924       _free_osfhnd               0000000180040924 f   libucrt:osfinfo.obj
 0001:0003f9e0       _get_osfhandle             00000001800409e0 f   libucrt:osfinfo.obj
 0001:0003fae4       _commit                    0000000180040ae4 f   libucrt:commit.obj
 0001:000403f4       _write                     00000001800413f4 f   libucrt:write.obj
 0001:000404e0       _write_nolock              00000001800414e0 f   libucrt:write.obj
 0001:000407c4       _fcloseall                 00000001800417c4 f   libucrt:closeall.obj
 0001:00040878       __acrt_stdio_free_buffer_nolock 0000000180041878 f   libucrt:_freebuf.obj
 0001:000408b8       _isatty                    00000001800418b8 f   libucrt:isatty.obj
 0001:00040918       _isleadbyte_l              0000000180041918 f i libucrt:_wctype.obj
 0001:00040964       ?__mbrtowc_utf8@__crt_mbstring@@YA_KPEA_WPEBD_KPEAU_Mbstatet@@@Z 0000000180041964 f   libucrt:mbrtowc.obj
 0001:000409a0       ?__mbsrtowcs_utf8@__crt_mbstring@@YA_KPEA_WPEAPEBD_KPEAU_Mbstatet@@@Z 00000001800419a0 f   libucrt:mbrtowc.obj
 0001:00040b18       ?__c32rtomb_utf8@__crt_mbstring@@YA_KPEAD_UPEAU_Mbstatet@@@Z 0000000180041b18 f   libucrt:c32rtomb.obj
 0001:00040bcc       __acrt_fp_strflt_to_string 0000000180041bcc f   libucrt:_fptostr.obj
 0001:00040d30       ?divide@__crt_strtox@@YA_KAEAUbig_integer@1@AEBU21@@Z 0000000180041d30 f i libucrt:cfout.obj
 0001:0004115c       __acrt_fltout              000000018004215c f   libucrt:cfout.obj
 0001:00042428       fegetround                 0000000180043428 f   libucrt:fegetround.obj
 0001:0004243c       __acrt_locale_free_monetary 000000018004343c f   libucrt:initmon.obj
 0001:00042548       __acrt_locale_free_numeric 0000000180043548 f   libucrt:initnum.obj
 0001:0004260c       __acrt_locale_free_time    000000018004360c f   libucrt:inittime.obj
 0001:00042714       __strncnt                  0000000180043714 f   libucrt:strncnt.obj
 0001:0004272c       __ascii_wcsnicmp           000000018004372c f   libucrt:wcsnicmp.obj
 0001:00042778       _query_app_type            0000000180043778 f   libucrt:report_runtime_error.obj
 0001:0004281c       _lseeki64_nolock           000000018004381c f   libucrt:lseek.obj
 0001:00042824       _putwch_nolock             0000000180043824 f   libucrt:putwch.obj
 0001:00042860       _fclose_nolock             0000000180043860 f   libucrt:fclose.obj
 0001:000428e4       fclose                     00000001800438e4 f   libucrt:fclose.obj
 0001:00042948       ?__mbrtoc32_utf8@__crt_mbstring@@YA_KPEA_UPEBD_KPEAU_Mbstatet@@@Z 0000000180043948 f   libucrt:mbrtoc32.obj
 0001:00042b20       _controlfp_s               0000000180043b20 f   libucrt:contrlfp.obj
 0001:00042b84       fegetenv                   0000000180043b84 f   libucrt:fegetenv.obj
 0001:00042ba4       fesetenv                   0000000180043ba4 f   libucrt:fesetenv.obj
 0001:00042bf0       feholdexcept               0000000180043bf0 f   libucrt:feholdexcept.obj
 0001:00042c40       ceil                       0000000180043c40 f   libucrt:ceil.obj
 0001:00042d10       log10                      0000000180043d10 f   libucrt:log10.obj
 0001:000432bc       __acrt_fenv_get_common_round_control 00000001800442bc f   libucrt:_fenvutils.obj
 0001:000432c8       __acrt_fenv_get_control    00000001800442c8 f   libucrt:_fenvutils.obj
 0001:000433bc       __acrt_fenv_get_status     00000001800443bc f   libucrt:_fenvutils.obj
 0001:00043410       __acrt_fenv_set_control    0000000180044410 f   libucrt:_fenvutils.obj
 0001:00043558       __acrt_fenv_set_status     0000000180044558 f   libucrt:_fenvutils.obj
 0001:000435dc       __dcrt_lowio_ensure_console_output_initialized 00000001800445dc f   libucrt:initcon.obj
 0001:00043630       __dcrt_terminate_console_output 0000000180044630 f   libucrt:initcon.obj
 0001:0004364c       __dcrt_write_console       000000018004464c f   libucrt:initcon.obj
 0001:00043780       _close                     0000000180044780 f   libucrt:close.obj
 0001:00043824       _close_nolock              0000000180044824 f   libucrt:close.obj
 0001:000438e4       ?__acrt_stdio_free_stream@@YAXV__crt_stdio_stream@@@Z 00000001800448e4 f   libucrt:stream.obj
 0001:00043900       _clearfp                   0000000180044900 f   libucrt:ieee.obj
 0001:00043970       _control87                 0000000180044970 f   libucrt:ieee.obj
 0001:00043c40       _log10_special             0000000180044c40 f   libucrt:log_special.obj
 0001:00043d00       _FindPESection             0000000180044d00 f   LIBCMT:pesect.obj
 0001:00043d50       _IsNonwritableInCurrentImage 0000000180044d50 f   LIBCMT:pesect.obj
 0001:00043da0       _ValidateImageBase         0000000180044da0 f   LIBCMT:pesect.obj
 0001:00043dd0       __GSHandlerCheck           0000000180044dd0 f   LIBCMT:gshandler.obj
 0001:00043df0       __GSHandlerCheckCommon     0000000180044df0 f   LIBCMT:gshandler.obj
 0001:00043e60       __security_check_cookie    0000000180044e60 f   LIBCMT:amdsecgs.obj
 0001:00043e80       __GSHandlerCheck_SEH       0000000180044e80 f   LIBCMT:gshandlerseh.obj
 0001:00043f08       __raise_securityfailure    0000000180044f08 f   LIBCMT:gs_report.obj
 0001:00043f3c       __report_gsfailure         0000000180044f3c f   LIBCMT:gs_report.obj
 0001:00044010       __report_rangecheckfailure 0000000180045010 f   LIBCMT:gs_report.obj
 0001:00044024       __report_securityfailure   0000000180045024 f   LIBCMT:gs_report.obj
 0001:000441a4       strrchr                    00000001800451a4 f   libvcruntime:strrchr.obj
 0001:000442e0       memcmp                     00000001800452e0 f   libvcruntime:memcmp.obj
 0001:000443c0       _guard_dispatch_icall_nop  00000001800453c0 f   LIBCMT:guard_dispatch.obj
 0001:000443e0       _guard_xfg_dispatch_icall_nop 00000001800453e0 f   LIBCMT:guard_xfg_dispatch.obj
 0002:00000000       __imp_LoadLibraryA         0000000180046000     kernel32:KERNEL32.dll
 0002:00000008       __imp_WriteConsoleW        0000000180046008     kernel32:KERNEL32.dll
 0002:00000010       __imp_RaiseException       0000000180046010     kernel32:KERNEL32.dll
 0002:00000018       __imp_GetLastError         0000000180046018     kernel32:KERNEL32.dll
 0002:00000020       __imp_GetSystemInfo        0000000180046020     kernel32:KERNEL32.dll
 0002:00000028       __imp_VirtualProtect       0000000180046028     kernel32:KERNEL32.dll
 0002:00000030       __imp_VirtualQuery         0000000180046030     kernel32:KERNEL32.dll
 0002:00000038       __imp_FreeLibrary          0000000180046038     kernel32:KERNEL32.dll
 0002:00000040       __imp_GetModuleHandleW     0000000180046040     kernel32:KERNEL32.dll
 0002:00000048       __imp_GetProcAddress       0000000180046048     kernel32:KERNEL32.dll
 0002:00000050       __imp_LoadLibraryExA       0000000180046050     kernel32:KERNEL32.dll
 0002:00000058       __imp_InitializeSListHead  0000000180046058     kernel32:KERNEL32.dll
 0002:00000060       __imp_QueryPerformanceCounter 0000000180046060     kernel32:KERNEL32.dll
 0002:00000068       __imp_GetCurrentProcessId  0000000180046068     kernel32:KERNEL32.dll
 0002:00000070       __imp_GetCurrentThreadId   0000000180046070     kernel32:KERNEL32.dll
 0002:00000078       __imp_GetSystemTimeAsFileTime 0000000180046078     kernel32:KERNEL32.dll
 0002:00000080       __imp_RtlCaptureContext    0000000180046080     kernel32:KERNEL32.dll
 0002:00000088       __imp_RtlLookupFunctionEntry 0000000180046088     kernel32:KERNEL32.dll
 0002:00000090       __imp_RtlVirtualUnwind     0000000180046090     kernel32:KERNEL32.dll
 0002:00000098       __imp_IsDebuggerPresent    0000000180046098     kernel32:KERNEL32.dll
 0002:000000a0       __imp_UnhandledExceptionFilter 00000001800460a0     kernel32:KERNEL32.dll
 0002:000000a8       __imp_SetUnhandledExceptionFilter 00000001800460a8     kernel32:KERNEL32.dll
 0002:000000b0       __imp_GetStartupInfoW      00000001800460b0     kernel32:KERNEL32.dll
 0002:000000b8       __imp_IsProcessorFeaturePresent 00000001800460b8     kernel32:KERNEL32.dll
 0002:000000c0       __imp_InterlockedPushEntrySList 00000001800460c0     kernel32:KERNEL32.dll
 0002:000000c8       __imp_InterlockedFlushSList 00000001800460c8     kernel32:KERNEL32.dll
 0002:000000d0       __imp_RtlUnwindEx          00000001800460d0     kernel32:KERNEL32.dll
 0002:000000d8       __imp_SetLastError         00000001800460d8     kernel32:KERNEL32.dll
 0002:000000e0       __imp_EnterCriticalSection 00000001800460e0     kernel32:KERNEL32.dll
 0002:000000e8       __imp_LeaveCriticalSection 00000001800460e8     kernel32:KERNEL32.dll
 0002:000000f0       __imp_DeleteCriticalSection 00000001800460f0     kernel32:KERNEL32.dll
 0002:000000f8       __imp_InitializeCriticalSectionAndSpinCount 00000001800460f8     kernel32:KERNEL32.dll
 0002:00000100       __imp_TlsAlloc             0000000180046100     kernel32:KERNEL32.dll
 0002:00000108       __imp_TlsGetValue          0000000180046108     kernel32:KERNEL32.dll
 0002:00000110       __imp_TlsSetValue          0000000180046110     kernel32:KERNEL32.dll
 0002:00000118       __imp_TlsFree              0000000180046118     kernel32:KERNEL32.dll
 0002:00000120       __imp_LoadLibraryExW       0000000180046120     kernel32:KERNEL32.dll
 0002:00000128       __imp_EncodePointer        0000000180046128     kernel32:KERNEL32.dll
 0002:00000130       __imp_RtlPcToFileHeader    0000000180046130     kernel32:KERNEL32.dll
 0002:00000138       __imp_GetCurrentProcess    0000000180046138     kernel32:KERNEL32.dll
 0002:00000140       __imp_ExitProcess          0000000180046140     kernel32:KERNEL32.dll
 0002:00000148       __imp_TerminateProcess     0000000180046148     kernel32:KERNEL32.dll
 0002:00000150       __imp_GetModuleHandleExW   0000000180046150     kernel32:KERNEL32.dll
 0002:00000158       __imp_GetModuleFileNameW   0000000180046158     kernel32:KERNEL32.dll
 0002:00000160       __imp_HeapFree             0000000180046160     kernel32:KERNEL32.dll
 0002:00000168       __imp_HeapAlloc            0000000180046168     kernel32:KERNEL32.dll
 0002:00000170       __imp_FindClose            0000000180046170     kernel32:KERNEL32.dll
 0002:00000178       __imp_FindFirstFileExW     0000000180046178     kernel32:KERNEL32.dll
 0002:00000180       __imp_FindNextFileW        0000000180046180     kernel32:KERNEL32.dll
 0002:00000188       __imp_IsValidCodePage      0000000180046188     kernel32:KERNEL32.dll
 0002:00000190       __imp_GetACP               0000000180046190     kernel32:KERNEL32.dll
 0002:00000198       __imp_GetOEMCP             0000000180046198     kernel32:KERNEL32.dll
 0002:000001a0       __imp_GetCPInfo            00000001800461a0     kernel32:KERNEL32.dll
 0002:000001a8       __imp_GetCommandLineA      00000001800461a8     kernel32:KERNEL32.dll
 0002:000001b0       __imp_GetCommandLineW      00000001800461b0     kernel32:KERNEL32.dll
 0002:000001b8       __imp_MultiByteToWideChar  00000001800461b8     kernel32:KERNEL32.dll
 0002:000001c0       __imp_WideCharToMultiByte  00000001800461c0     kernel32:KERNEL32.dll
 0002:000001c8       __imp_GetEnvironmentStringsW 00000001800461c8     kernel32:KERNEL32.dll
 0002:000001d0       __imp_FreeEnvironmentStringsW 00000001800461d0     kernel32:KERNEL32.dll
 0002:000001d8       __imp_LCMapStringW         00000001800461d8     kernel32:KERNEL32.dll
 0002:000001e0       __imp_GetProcessHeap       00000001800461e0     kernel32:KERNEL32.dll
 0002:000001e8       __imp_GetStdHandle         00000001800461e8     kernel32:KERNEL32.dll
 0002:000001f0       __imp_GetFileType          00000001800461f0     kernel32:KERNEL32.dll
 0002:000001f8       __imp_GetStringTypeW       00000001800461f8     kernel32:KERNEL32.dll
 0002:00000200       __imp_HeapSize             0000000180046200     kernel32:KERNEL32.dll
 0002:00000208       __imp_HeapReAlloc          0000000180046208     kernel32:KERNEL32.dll
 0002:00000210       __imp_SetStdHandle         0000000180046210     kernel32:KERNEL32.dll
 0002:00000218       __imp_FlushFileBuffers     0000000180046218     kernel32:KERNEL32.dll
 0002:00000220       __imp_WriteFile            0000000180046220     kernel32:KERNEL32.dll
 0002:00000228       __imp_GetConsoleOutputCP   0000000180046228     kernel32:KERNEL32.dll
 0002:00000230       __imp_GetConsoleMode       0000000180046230     kernel32:KERNEL32.dll
 0002:00000238       __imp_SetFilePointerEx     0000000180046238     kernel32:KERNEL32.dll
 0002:00000240       __imp_CreateFileW          0000000180046240     kernel32:KERNEL32.dll
 0002:00000248       __imp_CloseHandle          0000000180046248     kernel32:KERNEL32.dll
 0002:00000250       \177KERNEL32_NULL_THUNK_DATA 0000000180046250     kernel32:KERNEL32.dll
 0002:00000258       __guard_check_icall_fptr   0000000180046258     LIBCMT:guard_support.obj
 0002:00000260       __guard_xfg_check_icall_fptr 0000000180046260     LIBCMT:guard_support.obj
 0002:00000268       __guard_dispatch_icall_fptr 0000000180046268     LIBCMT:guard_support.obj
 0002:00000270       __guard_xfg_dispatch_icall_fptr 0000000180046270     LIBCMT:guard_support.obj
 0002:00000278       __guard_xfg_table_dispatch_icall_fptr 0000000180046278     LIBCMT:guard_support.obj
 0002:00000280       __xc_a                     0000000180046280     LIBCMT:initializers.obj
 0002:00000468       __xc_z                     0000000180046468     LIBCMT:initializers.obj
 0002:00000470       __xi_a                     0000000180046470     LIBCMT:initializers.obj
 0002:00000478       __acrt_tran_fma3_initializer 0000000180046478     libucrt:fma3_initializer.obj
 0002:00000480       __acrt_multibyte_initializer 0000000180046480     libucrt:multibyte_initializer.obj
 0002:00000488       __acrt_stdio_initializer   0000000180046488     libucrt:stdio_initializer.obj
 0002:00000490       __xi_z                     0000000180046490     LIBCMT:initializers.obj
 0002:00000498       __xp_a                     0000000180046498     LIBCMT:initializers.obj
 0002:000004a0       __acrt_locale_terminator   00000001800464a0     libucrt:locale_initializer.obj
 0002:000004a8       __dcrt_console_output_terminator 00000001800464a8     libucrt:console_output_initializer.obj
 0002:000004b0       __acrt_stdio_terminator    00000001800464b0     libucrt:stdio_initializer.obj
 0002:000004b8       __xp_z                     00000001800464b8     LIBCMT:initializers.obj
 0002:000004c0       __xt_a                     00000001800464c0     LIBCMT:initializers.obj
 0002:000004c8       __xt_z                     00000001800464c8     LIBCMT:initializers.obj
 0002:000004d0       ??_7PxFoundation@physx@@6B@ 00000001800464d0     Adjacencies.obj
 0002:00000510       ??_C@_0FA@BDNFCGHD@C?3?2School?2Dare?2dependencies?2Phy@ 0000000180046510     Adjacencies.obj
 0002:00000560       ??_C@_0DA@FMEHLBKI@Adjacencies?3?3UpdateLink?3?5invali@ 0000000180046560     Adjacencies.obj
 0002:00000590       ??_C@_0EA@CPHOACLK@Adjacencies?3?3CreateDatabase?3?5ca@ 0000000180046590     Adjacencies.obj
 0002:000005d0       ??_C@_0BM@OIFKLHDN@?$DMallocation?5names?5disabled?$DO@ 00000001800465d0     Adjacencies.obj
 0002:00000610       ?sBufferSize@DebugText@Cm@physx@@2HB 0000000180046610     Cooking.obj
 0002:00000614       ??_C@_06EJKDJEDO@PxBase@   0000000180046614     Cooking.obj
 0002:00000620       ??_C@_0N@CDGINLLF@PxConvexMesh@ 0000000180046620     Cooking.obj
 0002:00000630       ??_C@_0O@PBAKPCEC@PxHeightField@ 0000000180046630     Cooking.obj
 0002:00000640       ??_7PxBase@physx@@6B@      0000000180046640     Cooking.obj
 0002:00000668       ??_7PxCooking@physx@@6B@   0000000180046668     Cooking.obj
 0002:000006e8       ??_7Cooking@physx@@6B@     00000001800466e8     Cooking.obj
 0002:00000770       ??_C@_0FC@PJIHAFK@Cooking?3?3validateTriangleMesh?3?5@ 0000000180046770     Cooking.obj
 0002:000007d0       ??_C@_0EM@KJEJKGMI@C?3?2School?2Dare?2dependencies?2Phy@ 00000001800467d0     Cooking.obj
 0002:00000820       ??_C@_0EK@EKAIJEBL@Cooking?3?3cookConvexMesh?3?5user?9p@ 0000000180046820     Cooking.obj
 0002:00000870       ??_C@_0FA@GFFGAPML@Cooking?3?3cookConvexMesh?3?5provid@ 0000000180046870     Cooking.obj
 0002:000008c0       ??_C@_0EP@PKDCPNNO@Cooking?3?3cookConvexMesh?3?5provid@ 00000001800468c0     Cooking.obj
 0002:00000910       ??_C@_0EO@LKFMMDE@Cooking?3?3cookConvexMesh?3?5user?9p@ 0000000180046910     Cooking.obj
 0002:00000960       ??_C@_0EM@KCCBMCKF@C?3?2School?2Dare?2dependencies?2Phy@ 0000000180046960     Cooking.obj
 0002:000009ac       __real@3f800000            00000001800469ac     Cooking.obj
 0002:000009b0       __xmm@000000003a83126f3a83126f3a83126f 00000001800469b0     Cooking.obj
 0002:000009c0       __xmm@00000000ba83126fba83126fba83126f 00000001800469c0     Cooking.obj
 0002:000009d0       __xmm@3a83126f3a83126f3a83126f3a83126f 00000001800469d0     Cooking.obj
 0002:000009e0       __xmm@80000000800000008000000080000000 00000001800469e0     Cooking.obj
 0002:000009f0       __xmm@ba83126fba83126fba83126fba83126f 00000001800469f0     Cooking.obj
 0002:00000a00       ??_C@_0BA@DLCJDKDM@NonTrackedAlloc@ 0000000180046a00     CookingUtils.obj
 0002:00000a10       ??_C@_0FB@BFHDHOAA@C?3?2School?2Dare?2dependencies?2Phy@ 0000000180046a10     CookingUtils.obj
 0002:00000a70       ??_C@_0EN@NBLMOJMH@C?3?2School?2Dare?2dependencies?2Phy@ 0000000180046a70     EdgeList.obj
 0002:00000ac0       ??_C@_0CO@GBNJFPN@EdgeList?3?3CreateFacesToEdges?3?5N@ 0000000180046ac0     EdgeList.obj
 0002:00000af0       ??_C@_0CO@EHJBBMNK@EdgeList?3?3ComputeActiveEdges?3?5N@ 0000000180046af0     EdgeList.obj
 0002:00000b20       ??_C@_0DI@GBHLFOFP@ActiveEdges?3?3ComputeConvexEdges@ 0000000180046b20     EdgeList.obj
 0002:00000b58       ??_C@_0DM@JOGBLHDI@ActiveEdges?3?3ComputeConvexEdges@ 0000000180046b58     EdgeList.obj
 0002:00000ba0       ??_C@_0ED@FEMJKPEL@ActiveEdges?3?3ComputeConvexEdges@ 0000000180046ba0     EdgeList.obj
 0002:00000bf0       ??_C@_0EB@BFDPMFCD@ActiveEdges?3?3ComputeConvexEdges@ 0000000180046bf0     EdgeList.obj
 0002:00000c34       __real@bf7fbe77            0000000180046c34     EdgeList.obj
 0002:00000c40       __xmm@7fffffff7fffffff7fffffff7fffffff 0000000180046c40     EdgeList.obj
 0002:00000c50       ??_C@_0FA@DGIOALCH@C?3?2School?2Dare?2dependencies?2Phy@ 0000000180046c50     MeshCleaner.obj
 0002:00000ca0       __real@3f000000            0000000180046ca0     MeshCleaner.obj
 0002:00000ca8       ??_7Quantizer@physx@@6B@   0000000180046ca8     Quantizer.obj
 0002:00000cd0       ??_7QuantizerImpl@@6B@     0000000180046cd0     Quantizer.obj
 0002:00000d00       ??_C@_0EO@MMDMJOBI@C?3?2School?2Dare?2dependencies?2Phy@ 0000000180046d00     Quantizer.obj
 0002:00000d50       __real@38d1b717            0000000180046d50     Quantizer.obj
 0002:00000d54       __real@3c23d70a            0000000180046d54     Quantizer.obj
 0002:00000d58       __real@3f0020c5            0000000180046d58     Quantizer.obj
 0002:00000d5c       __real@3f8020c5            0000000180046d5c     Quantizer.obj
 0002:00000d60       __real@7f7fffff            0000000180046d60     Quantizer.obj
 0002:00000d64       __real@fe7fffff            0000000180046d64     Quantizer.obj
 0002:00000d70       __xmm@fe7fffff7e7fffff7e7fffff7e7fffff 0000000180046d70     Quantizer.obj
 0002:00000da0       ??_C@_0FI@FALBIDND@C?3?2School?2Dare?2dependencies?2Phy@ 0000000180046da0     BVHStructureBuilder.obj
 0002:00000e00       __xmm@3ba3d70a3ba3d70a3ba3d70a3ba3d70a 0000000180046e00     BVHStructureBuilder.obj
 0002:00000e30       ?reductionFactors@SubSortQuick@physx@@2QBMB 0000000180046e30     RTreeCooking.obj
 0002:00000e40       ?stopAtTrisPerLeaf1@SubSortQuick@physx@@2QBIB 0000000180046e40     RTreeCooking.obj
 0002:00000ef0       ??_C@_0FG@BIAFKM@C?3?2School?2Dare?2dependencies?2Phy@ 0000000180046ef0     RTreeCooking.obj
 0002:00000f50       ??_C@_0EL@OCMENFPA@C?3?2School?2Dare?2dependencies?2Phy@ 0000000180046f50     RTreeCooking.obj
 0002:00000fa0       ??_C@_0FE@KKBHHGOP@C?3?2School?2Dare?2dependencies?2Phy@ 0000000180046fa0     RTreeCooking.obj
 0002:00000ff4       __real@37800080            0000000180046ff4     RTreeCooking.obj
 0002:00000ff8       __real@41100000            0000000180046ff8     RTreeCooking.obj
 0002:00000ffc       __real@41700000            0000000180046ffc     RTreeCooking.obj
 0002:00001000       __real@42200000            0000000180047000     RTreeCooking.obj
 0002:00001004       __real@ff7fffff            0000000180047004     RTreeCooking.obj
 0002:00001010       __xmm@00000004000000030000000200000001 0000000180047010     RTreeCooking.obj
 0002:00001020       __xmm@3a03126f3a03126f3a03126f3a03126f 0000000180047020     RTreeCooking.obj
 0002:00001030       __xmm@7f7fffff7f7fffff7f7fffff7f7fffff 0000000180047030     RTreeCooking.obj
 0002:00001040       __xmm@ff7fffffff7fffffff7fffffff7fffff 0000000180047040     RTreeCooking.obj
 0002:00001070       __real@34800000            0000000180047070     MeshBuilder.obj
 0002:000010a0       ??_7MeshDataBase@Gu@physx@@6B@ 00000001800470a0     TriangleMeshBuilder.obj
 0002:000010b0       ??_C@_0EP@JIJNIDGK@C?3?2School?2Dare?2dependencies?2Phy@ 00000001800470b0     TriangleMeshBuilder.obj
 0002:00001100       ??_7TriangleMeshData@Gu@physx@@6B@ 0000000180047100     TriangleMeshBuilder.obj
 0002:00001108       ??_7RTreeTriangleData@Gu@physx@@6B@ 0000000180047108     TriangleMeshBuilder.obj
 0002:00001110       ??_7BV4TriangleData@Gu@physx@@6B@ 0000000180047110     TriangleMeshBuilder.obj
 0002:00001118       ??_7RemapCallback@RTreeCooker@physx@@6B@ 0000000180047118     TriangleMeshBuilder.obj
 0002:00001128       ??_7TriangleMeshBuilder@physx@@6B@ 0000000180047128     TriangleMeshBuilder.obj
 0002:00001150       ??_7RTreeTriangleMeshBuilder@physx@@6B@ 0000000180047150     TriangleMeshBuilder.obj
 0002:00001178       ??_7BV4TriangleMeshBuilder@physx@@6B@ 0000000180047178     TriangleMeshBuilder.obj
 0002:000011a0       ??_C@_0FO@PHHGKKFM@C?3?2School?2Dare?2dependencies?2Phy@ 00000001800471a0     TriangleMeshBuilder.obj
 0002:00001200       ??_C@_0FN@CLBLFAIJ@C?3?2School?2Dare?2dependencies?2Phy@ 0000000180047200     TriangleMeshBuilder.obj
 0002:00001260       ??_C@_0DJ@IGODLHLP@TriangleMesh?3?5Enable?5mesh?5weldi@ 0000000180047260     TriangleMeshBuilder.obj
 0002:000012a0       ??_C@_0FJ@HHJLKGDF@TriangleMesh?3?5triangles?5are?5too@ 00000001800472a0     TriangleMeshBuilder.obj
 0002:00001300       ??_C@_0CN@KGPHHHLK@TriangleMesh?3?5mesh?5is?5too?5big?5f@ 0000000180047300     TriangleMeshBuilder.obj
 0002:00001330       ??_C@_0DD@CMJGDCNN@TriangleMesh?3?3loadFromDesc?3?5des@ 0000000180047330     TriangleMeshBuilder.obj
 0002:00001370       ??_C@_0ED@ILJJNHIP@TriangleMesh?3?3loadFromDesc?3?5mPa@ 0000000180047370     TriangleMeshBuilder.obj
 0002:000013b8       ??_C@_0BJ@BKHDBBHO@cleaning?5the?5mesh?5failed@ 00000001800473b8     TriangleMeshBuilder.obj
 0002:000013d8       ??_C@_0BK@JIDHMMCE@BV4?5tree?5failed?5to?5build?4@ 00000001800473d8     TriangleMeshBuilder.obj
 0002:000013f8       ??_C@_0BL@DHNECNBE@BV32?5tree?5failed?5to?5build?4@ 00000001800473f8     TriangleMeshBuilder.obj
 0002:00001418       ??_7RTreeCookerRemap@physx@@6B@ 0000000180047418     TriangleMeshBuilder.obj
 0002:00001428       __real@3951b717            0000000180047428     TriangleMeshBuilder.obj
 0002:0000142c       __real@3dcccccd            000000018004742c     TriangleMeshBuilder.obj
 0002:00001430       __real@48742400            0000000180047430     TriangleMeshBuilder.obj
 0002:00001440       __xmm@00000003000000020000000100000000 0000000180047440     TriangleMeshBuilder.obj
 0002:00001470       ??_C@_0GA@ODFNOLKM@C?3?2School?2Dare?2dependencies?2Phy@ 0000000180047470     BigConvexDataBuilder.obj
 0002:000014d0       __real@40000000            00000001800474d0     BigConvexDataBuilder.obj
 0002:00001500       ??_C@_0FN@LJKFLCOM@C?3?2School?2Dare?2dependencies?2Phy@ 0000000180047500     ConvexHullBuilder.obj
 0002:00001560       ??_C@_0EB@DCEIFDGC@ConvexHullBuilder?3?3init?3?5convex@ 0000000180047560     ConvexHullBuilder.obj
 0002:000015b0       ??_C@_0FM@KICBLCBH@Gu?3?3ConvexMesh?3?3checkHullPolygo@ 00000001800475b0     ConvexHullBuilder.obj
 0002:00001610       ??_C@_0GO@HBFIOGLL@Gu?3?3ConvexMesh?3?3checkHullPolygo@ 0000000180047610     ConvexHullBuilder.obj
 0002:00001680       ??_C@_0HF@OLJFBIEL@ConvexHullBuilder?3?5convex?5hull?5@ 0000000180047680     ConvexHullBuilder.obj
 0002:00001700       ??_C@_0OG@JNHFOIL@ConvexHullBuilder?3?5convex?5hull?5@ 0000000180047700     ConvexHullBuilder.obj
 0002:000017f0       ??_C@_0EJ@NIOIBAKH@Cooking?3?3cookConvexMesh?3?5non?9ma@ 00000001800477f0     ConvexHullBuilder.obj
 0002:0000183c       __real@3ca3d70a            000000018004783c     ConvexHullBuilder.obj
 0002:00001840       __real@3eaaaaab            0000000180047840     ConvexHullBuilder.obj
 0002:00001848       ??_7ConvexHullLib@physx@@6B@ 0000000180047848     ConvexHullLib.obj
 0002:00001870       ??_C@_0FJ@NIGMJOEE@C?3?2School?2Dare?2dependencies?2Phy@ 0000000180047870     ConvexHullLib.obj
 0002:000018d0       ??_C@_0JE@PABBNGEL@ConvexHullLib?3?3cleanupVertices?3@ 00000001800478d0     ConvexHullLib.obj
 0002:00001964       __real@358637bd            0000000180047964     ConvexHullLib.obj
 0002:00001968       __real@3d4ccccd            0000000180047968     ConvexHullLib.obj
 0002:00001990       ??_C@_0FL@DGPPABMK@C?3?2School?2Dare?2dependencies?2Phy@ 0000000180047990     ConvexHullUtils.obj
 0002:000019ec       __real@3e20d97c            00000001800479ec     ConvexHullUtils.obj
 0002:000019f0       __xmm@00800000008000000080000000800000 00000001800479f0     ConvexHullUtils.obj
 0002:00001a00       __xmm@3f0000003f0000003f0000003f000000 0000000180047a00     ConvexHullUtils.obj
 0002:00001a10       __xmm@bf000000bf000000bf000000bf000000 0000000180047a10     ConvexHullUtils.obj
 0002:00001a40       ??_C@_0DF@LLFJIJGM@Gu?3?3ConvexMesh?3?3loadFromDesc?3?5d@ 0000000180047a40     ConvexMeshBuilder.obj
 0002:00001a80       ??_C@_0FN@HHABBCLJ@C?3?2School?2Dare?2dependencies?2Phy@ 0000000180047a80     ConvexMeshBuilder.obj
 0002:00001ae0       ??_C@_0HK@JOGKIEAA@Gu?3?3ConvexMesh?3?5Mesh?5has?5a?5nega@ 0000000180047ae0     ConvexMeshBuilder.obj
 0002:00001b60       ??_C@_0DH@NJPPHFFD@Gu?3?3ConvexMesh?3?5Error?5computing@ 0000000180047b60     ConvexMeshBuilder.obj
 0002:00001b98       ??_C@_0DJ@LJDLGLDJ@Gu?3?3ConvexMesh?3?3loadConvexHull?3@ 0000000180047b98     ConvexMeshBuilder.obj
 0002:00001be0       ??_C@_0HJ@KJANPPOE@ConvexMeshBuilder?3?3computeHullP@ 0000000180047be0     ConvexMeshBuilder.obj
 0002:00001c5c       ??_C@_06KDGGGLIJ@PxVec3@   0000000180047c5c     ConvexMeshBuilder.obj
 0002:00001c64       ??_C@_05LMJPANIN@PxU32@    0000000180047c64     ConvexMeshBuilder.obj
 0002:00001c70       ??_C@_0O@JMAGMMGG@PxHullPolygon@ 0000000180047c70     ConvexMeshBuilder.obj
 0002:00001c80       __real@33d6bf95            0000000180047c80     ConvexMeshBuilder.obj
 0002:00001c84       __real@3f13cd3a            0000000180047c84     ConvexMeshBuilder.obj
 0002:00001c88       __real@b3d6bf95            0000000180047c88     ConvexMeshBuilder.obj
 0002:00001c8c       __real@bf800000            0000000180047c8c     ConvexMeshBuilder.obj
 0002:00001c90       __xmm@80000000000000008000000000000000 0000000180047c90     ConvexMeshBuilder.obj
 0002:00001ca0       ??_C@_0DP@PJBJBEGF@Meshmerizer?3?3extractHullPolygon@ 0000000180047ca0     ConvexPolygonsBuilder.obj
 0002:00001ce0       ??_C@_0GB@FLCNAKGH@C?3?2School?2Dare?2dependencies?2Phy@ 0000000180047ce0     ConvexPolygonsBuilder.obj
 0002:00001d48       ??_C@_0DL@IAFKOCCK@ConvexHullBuilder?3?5convex?5hull?5@ 0000000180047d48     ConvexPolygonsBuilder.obj
 0002:00001d90       ??_C@_0GF@OJLJHAMH@ConvexHullBuilder?3?3CreateTriang@ 0000000180047d90     ConvexPolygonsBuilder.obj
 0002:00001df8       __real@3ba3d70a            0000000180047df8     ConvexPolygonsBuilder.obj
 0002:00001e00       ??_7QuickHullConvexHullLib@physx@@6B@ 0000000180047e00     QuickHullConvexHullLib.obj
 0002:00001e20       ??_C@_0GC@DIAMPCOF@C?3?2School?2Dare?2dependencies?2Phy@ 0000000180047e20     QuickHullConvexHullLib.obj
 0002:00001e90       ??_C@_0GA@EPPAEJPM@QuickHullConvexHullLib?3?3findSim@ 0000000180047e90     QuickHullConvexHullLib.obj
 0002:00001ef0       ??_C@_0FB@NEBIJMML@QuickHullConvexHullLib?3?3findSim@ 0000000180047ef0     QuickHullConvexHullLib.obj
 0002:00001f50       ??_C@_0FB@CLLCBEMM@QuickHullConvexHullLib?3?3findSim@ 0000000180047f50     QuickHullConvexHullLib.obj
 0002:00001fa4       __real@34c00000            0000000180047fa4     QuickHullConvexHullLib.obj
 0002:00001fa8       __real@3e800000            0000000180047fa8     QuickHullConvexHullLib.obj
 0002:00001fd0       __real@00000000            0000000180047fd0     VolumeIntegration.obj
 0002:00001fd8       __real@3fe0000000000000    0000000180047fd8     VolumeIntegration.obj
 0002:00001fe0       __real@3ff0000000000000    0000000180047fe0     VolumeIntegration.obj
 0002:00001ff0       __xmm@3c0888893c0888893c0888893c088889 0000000180047ff0     VolumeIntegration.obj
 0002:00002000       __xmm@3c8888893c8888893c8888893c888889 0000000180048000     VolumeIntegration.obj
 0002:00002010       __xmm@3d2aaaab3d2aaaab3d2aaaab3d2aaaab 0000000180048010     VolumeIntegration.obj
 0002:00002020       __xmm@3e2aaaab3e2aaaab3e2aaaab3e2aaaab 0000000180048020     VolumeIntegration.obj
 0002:00002030       __xmm@3f811111111111113f81111111111111 0000000180048030     VolumeIntegration.obj
 0002:00002040       __xmm@3f811111111111113f91111111111111 0000000180048040     VolumeIntegration.obj
 0002:00002050       __xmm@3f911111111111113f91111111111111 0000000180048050     VolumeIntegration.obj
 0002:00002060       __xmm@3fa55555555555553fa5555555555555 0000000180048060     VolumeIntegration.obj
 0002:00002070       __xmm@3fa55555555555553fc5555555555555 0000000180048070     VolumeIntegration.obj
 0002:00002080       ??_C@_0BA@EGLNOO@PhysXFoundation@ 0000000180048080     WindowsCookingDelayLoadHook.obj
 0002:00002090       ??_C@_0M@ILKNCJKN@PhysXCommon@ 0000000180048090     WindowsCookingDelayLoadHook.obj
 0002:000020a0       __sz_PhysXCommon_64_dll    00000001800480a0     PhysXCommon_64:PhysXCommon_64.dll
 0002:000020c0       __sz_PhysXFoundation_64_dll 00000001800480c0     PhysXFoundation_64:PhysXFoundation_64.dll
 0002:000020d8       ??_C@_1BK@DBDEIDLH@?$AAK?$AAE?$AAR?$AAN?$AAE?$AAL?$AA3?$AA2?$AA?4?$AAD?$AAL?$AAL@ 00000001800480d8     Delayimp:delayhlp.obj
 0002:000020f8       ??_C@_0BI@OMNLIJDB@AcquireSRWLockExclusive@ 00000001800480f8     Delayimp:delayhlp.obj
 0002:00002110       ??_C@_0BI@HMIEPCNJ@ReleaseSRWLockExclusive@ 0000000180048110     Delayimp:delayhlp.obj
 0002:00002128       __pfnDliFailureHook2       0000000180048128     Delayimp:delayhk1.obj
 0002:00002138       ??_7type_info@@6B@         0000000180048138     LIBCMT:std_type_info_static.obj
 0002:000021a0       _pRawDllMain               00000001800481a0     LIBCMT:dll_dllmain.obj
 0002:000021a0       _pDefaultRawDllMain        00000001800481a0     LIBCMT:dll_dllmain.obj
 0002:000021b0       _load_config_used          00000001800481b0     LIBCMT:loadcfg.obj
 0002:000022f0       __xmm@ffffffffffffffffffffffffffffffff 00000001800482f0     LIBCMT:utility.obj
 0002:00002300       _pDestructExceptionObject  0000000180048300     libvcruntime:ehhelpers.obj
 0002:00002a10       ??_C@_08EHJDFFNH@__based?$CI@ 0000000180048a10     libvcruntime:undname.obj
 0002:00002a20       ??_C@_07KOLFKCDI@__cdecl@  0000000180048a20     libvcruntime:undname.obj
 0002:00002a28       ??_C@_08GHMPAG@__pascal@   0000000180048a28     libvcruntime:undname.obj
 0002:00002a38       ??_C@_09IFJBGAPI@__stdcall@ 0000000180048a38     libvcruntime:undname.obj
 0002:00002a48       ??_C@_0L@NPHFGOKO@__thiscall@ 0000000180048a48     libvcruntime:undname.obj
 0002:00002a58       ??_C@_0L@JMKHOMEK@__fastcall@ 0000000180048a58     libvcruntime:undname.obj
 0002:00002a68       ??_C@_0N@BCKKPABJ@__vectorcall@ 0000000180048a68     libvcruntime:undname.obj
 0002:00002a78       ??_C@_09HIJEGCPM@__clrcall@ 0000000180048a78     libvcruntime:undname.obj
 0002:00002a84       ??_C@_06GHPCKEAG@__eabi@   0000000180048a84     libvcruntime:undname.obj
 0002:00002a90       ??_C@_09IOPIDJLG@__swift_1@ 0000000180048a90     libvcruntime:undname.obj
 0002:00002aa0       ??_C@_09KFNFGKHF@__swift_2@ 0000000180048aa0     libvcruntime:undname.obj
 0002:00002ab0       ??_C@_07JOMMBBKO@__ptr64@  0000000180048ab0     libvcruntime:undname.obj
 0002:00002ab8       ??_C@_0L@PILCLIHE@__restrict@ 0000000180048ab8     libvcruntime:undname.obj
 0002:00002ac8       ??_C@_0M@GFIIJFMG@__unaligned@ 0000000180048ac8     libvcruntime:undname.obj
 0002:00002ad8       ??_C@_09DHDLOLLB@restrict?$CI@ 0000000180048ad8     libvcruntime:undname.obj
 0002:00002ae2       ??_C@_00CNPNBAHC@@         0000000180048ae2     libvcruntime:undname.obj
 0002:00002ae4       ??_C@_04NIHEBCM@?5new@     0000000180048ae4     libvcruntime:undname.obj
 0002:00002af0       ??_C@_07FPCDHGMM@?5delete@ 0000000180048af0     libvcruntime:undname.obj
 0002:00002af8       ??_C@_01NEMOKFLO@?$DN@     0000000180048af8     libvcruntime:undname.obj
 0002:00002afc       ??_C@_02GPIOPFAK@?$DO?$DO@ 0000000180048afc     libvcruntime:undname.obj
 0002:00002b00       ??_C@_02FODMEDOG@?$DM?$DM@ 0000000180048b00     libvcruntime:undname.obj
 0002:00002b04       ??_C@_01DCLJPIOD@?$CB@     0000000180048b04     libvcruntime:undname.obj
 0002:00002b08       ??_C@_02EGOFBIJA@?$DN?$DN@ 0000000180048b08     libvcruntime:undname.obj
 0002:00002b0c       ??_C@_02FDNJECIE@?$CB?$DN@ 0000000180048b0c     libvcruntime:undname.obj
 0002:00002b10       ??_C@_02GPECMEKF@?$FL?$FN@ 0000000180048b10     libvcruntime:undname.obj
 0002:00002b18       ??_C@_08LHJFAFGD@operator@ 0000000180048b18     libvcruntime:undname.obj
 0002:00002b24       ??_C@_02HBOOOICD@?9?$DO@   0000000180048b24     libvcruntime:undname.obj
 0002:00002b28       ??_C@_01NBENCBCI@?$CK@     0000000180048b28     libvcruntime:undname.obj
 0002:00002b2c       ??_C@_02ECNGHCIF@?$CL?$CL@ 0000000180048b2c     libvcruntime:undname.obj
 0002:00002b30       ??_C@_02BAABKJLB@?9?9@     0000000180048b30     libvcruntime:undname.obj
 0002:00002b34       ??_C@_01JOAMLHOP@?9@       0000000180048b34     libvcruntime:undname.obj
 0002:00002b38       ??_C@_01MIFGBAGJ@?$CL@     0000000180048b38     libvcruntime:undname.obj
 0002:00002b3c       ??_C@_01HNPIGOCE@?$CG@     0000000180048b3c     libvcruntime:undname.obj
 0002:00002b40       ??_C@_03MNHNFDLC@?9?$DO?$CK@ 0000000180048b40     libvcruntime:undname.obj
 0002:00002b44       ??_C@_01KMDKNFGN@?1@       0000000180048b44     libvcruntime:undname.obj
 0002:00002b48       ??_C@_01FGNFDNOH@?$CF@     0000000180048b48     libvcruntime:undname.obj
 0002:00002b4c       ??_C@_01MNNFJEPP@?$DM@     0000000180048b4c     libvcruntime:undname.obj
 0002:00002b50       ??_C@_02EHCHHCKH@?$DM?$DN@ 0000000180048b50     libvcruntime:undname.obj
 0002:00002b54       ??_C@_01PPODPGHN@?$DO@     0000000180048b54     libvcruntime:undname.obj
 0002:00002b58       ??_C@_02EEKDKGMJ@?$DO?$DN@ 0000000180048b58     libvcruntime:undname.obj
 0002:00002b5c       ??_C@_01IHBHIGKO@?0@       0000000180048b5c     libvcruntime:undname.obj
 0002:00002b60       ??_C@_02HCKGKOFO@?$CI?$CJ@ 0000000180048b60     libvcruntime:undname.obj
 0002:00002b64       ??_C@_01PJKLJHI@?$HO@      0000000180048b64     libvcruntime:undname.obj
 0002:00002b68       ??_C@_01JKBOJNNK@?$FO@     0000000180048b68     libvcruntime:undname.obj
 0002:00002b6c       ??_C@_01DNKMNLPK@?$HM@     0000000180048b6c     libvcruntime:undname.obj
 0002:00002b70       ??_C@_02PPKAJPJL@?$CG?$CG@ 0000000180048b70     libvcruntime:undname.obj
 0002:00002b74       ??_C@_02NONPIBCD@?$HM?$HM@ 0000000180048b74     libvcruntime:undname.obj
 0002:00002b78       ??_C@_02FPIMKNGF@?$CK?$DN@ 0000000180048b78     libvcruntime:undname.obj
 0002:00002b7c       ??_C@_02FOEOMHFC@?$CL?$DN@ 0000000180048b7c     libvcruntime:undname.obj
 0002:00002b80       ??_C@_02FKMDLLOA@?9?$DN@   0000000180048b80     libvcruntime:undname.obj
 0002:00002b84       ??_C@_02FJEHGPIO@?1?$DN@   0000000180048b84     libvcruntime:undname.obj
 0002:00002b88       ??_C@_02FENAOKFI@?$CF?$DN@ 0000000180048b88     libvcruntime:undname.obj
 0002:00002b8c       ??_C@_03IKFCCPFF@?$DO?$DO?$DN@ 0000000180048b8c     libvcruntime:undname.obj
 0002:00002b90       ??_C@_03CDNPDDLA@?$DM?$DM?$DN@ 0000000180048b90     libvcruntime:undname.obj
 0002:00002b94       ??_C@_02FGJGFEAB@?$CG?$DN@ 0000000180048b94     libvcruntime:undname.obj
 0002:00002b98       ??_C@_02DHLNPPGH@?$HM?$DN@ 0000000180048b98     libvcruntime:undname.obj
 0002:00002b9c       ??_C@_02MHEGNOJ@?$FO?$DN@  0000000180048b9c     libvcruntime:undname.obj
 0002:00002ba0       ??_C@_09IFPLHPGF@?$GAvftable?8@ 0000000180048ba0     libvcruntime:undname.obj
 0002:00002bb0       ??_C@_09BLBHBJP@?$GAvbtable?8@ 0000000180048bb0     libvcruntime:undname.obj
 0002:00002bc0       ??_C@_07FEEIOKP@?$GAvcall?8@ 0000000180048bc0     libvcruntime:undname.obj
 0002:00002bc8       ??_C@_08LLFFHHDJ@?$GAtypeof?8@ 0000000180048bc8     libvcruntime:undname.obj
 0002:00002bd8       ??_C@_0BF@KDPPACIK@?$GAlocal?5static?5guard?8@ 0000000180048bd8     libvcruntime:undname.obj
 0002:00002bf0       ??_C@_08OBABFOLI@?$GAstring?8@ 0000000180048bf0     libvcruntime:undname.obj
 0002:00002c00       ??_C@_0BD@JDLKDPAB@?$GAvbase?5destructor?8@ 0000000180048c00     libvcruntime:undname.obj
 0002:00002c18       ??_C@_0BN@DEGPLNFK@?$GAvector?5deleting?5destructor?8@ 0000000180048c18     libvcruntime:undname.obj
 0002:00002c38       ??_C@_0BO@OBMKPJIG@?$GAdefault?5constructor?5closure?8@ 0000000180048c38     libvcruntime:undname.obj
 0002:00002c58       ??_C@_0BN@IMDCHIKM@?$GAscalar?5deleting?5destructor?8@ 0000000180048c58     libvcruntime:undname.obj
 0002:00002c78       ??_C@_0BO@PFGOCPJJ@?$GAvector?5constructor?5iterator?8@ 0000000180048c78     libvcruntime:undname.obj
 0002:00002c98       ??_C@_0BN@LFPFMEDL@?$GAvector?5destructor?5iterator?8@ 0000000180048c98     libvcruntime:undname.obj
 0002:00002cb8       ??_C@_0CE@IKBNEHA@?$GAvector?5vbase?5constructor?5itera@ 0000000180048cb8     libvcruntime:undname.obj
 0002:00002ce0       ??_C@_0BL@NILFHHPC@?$GAvirtual?5displacement?5map?8@ 0000000180048ce0     libvcruntime:undname.obj
 0002:00002d00       ??_C@_0CB@JONCMFFK@?$GAeh?5vector?5constructor?5iterator@ 0000000180048d00     libvcruntime:undname.obj
 0002:00002d28       ??_C@_0CA@GCEOPDGL@?$GAeh?5vector?5destructor?5iterator?8@ 0000000180048d28     libvcruntime:undname.obj
 0002:00002d48       ??_C@_0CH@OOJPLCPH@?$GAeh?5vector?5vbase?5constructor?5it@ 0000000180048d48     libvcruntime:undname.obj
 0002:00002d70       ??_C@_0BL@LLKPOHJI@?$GAcopy?5constructor?5closure?8@ 0000000180048d70     libvcruntime:undname.obj
 0002:00002d90       ??_C@_0BA@KBCDOMBN@?$GAudt?5returning?8@ 0000000180048d90     libvcruntime:undname.obj
 0002:00002da0       ??_C@_03KLGMFNMG@?$GAEH@   0000000180048da0     libvcruntime:undname.obj
 0002:00002da4       ??_C@_05KHLCHHI@?$GARTTI@  0000000180048da4     libvcruntime:undname.obj
 0002:00002db0       ??_C@_0BA@KKLDJDLB@?$GAlocal?5vftable?8@ 0000000180048db0     libvcruntime:undname.obj
 0002:00002dc0       ??_C@_0CE@IIHCMGGL@?$GAlocal?5vftable?5constructor?5clos@ 0000000180048dc0     libvcruntime:undname.obj
 0002:00002de4       ??_C@_06FHBGPFGH@?5new?$FL?$FN@ 0000000180048de4     libvcruntime:undname.obj
 0002:00002df0       ??_C@_09LBNFPBCA@?5delete?$FL?$FN@ 0000000180048df0     libvcruntime:undname.obj
 0002:00002e00       ??_C@_0P@HJKNJFNN@?$GAomni?5callsig?8@ 0000000180048e00     libvcruntime:undname.obj
 0002:00002e10       ??_C@_0BL@CNOONJFP@?$GAplacement?5delete?5closure?8@ 0000000180048e10     libvcruntime:undname.obj
 0002:00002e30       ??_C@_0BN@CKNJLHMB@?$GAplacement?5delete?$FL?$FN?5closure?8@ 0000000180048e30     libvcruntime:undname.obj
 0002:00002e50       ??_C@_0CG@CFDHKGGD@?$GAmanaged?5vector?5constructor?5ite@ 0000000180048e50     libvcruntime:undname.obj
 0002:00002e78       ??_C@_0CF@IMGKMJNO@?$GAmanaged?5vector?5destructor?5iter@ 0000000180048e78     libvcruntime:undname.obj
 0002:00002ea0       ??_C@_0CG@HLDDJMAG@?$GAeh?5vector?5copy?5constructor?5ite@ 0000000180048ea0     libvcruntime:undname.obj
 0002:00002ec8       ??_C@_0CM@FCBBDIGB@?$GAeh?5vector?5vbase?5copy?5construct@ 0000000180048ec8     libvcruntime:undname.obj
 0002:00002ef8       ??_C@_0BL@CLIPGLGB@?$GAdynamic?5initializer?5for?5?8@ 0000000180048ef8     libvcruntime:undname.obj
 0002:00002f18       ??_C@_0CB@PDBIFEP@?$GAdynamic?5atexit?5destructor?5for?5@ 0000000180048f18     libvcruntime:undname.obj
 0002:00002f40       ??_C@_0CD@CGAJBKEJ@?$GAvector?5copy?5constructor?5iterat@ 0000000180048f40     libvcruntime:undname.obj
 0002:00002f68       ??_C@_0CJ@GJELGAMM@?$GAvector?5vbase?5copy?5constructor?5@ 0000000180048f68     libvcruntime:undname.obj
 0002:00002f98       ??_C@_0CL@FGIJHLCE@?$GAmanaged?5vector?5copy?5constructo@ 0000000180048f98     libvcruntime:undname.obj
 0002:00002fc8       ??_C@_0BM@PMGGMLDN@?$GAlocal?5static?5thread?5guard?8@ 0000000180048fc8     libvcruntime:undname.obj
 0002:00002fe8       ??_C@_0N@BDNMDMOL@operator?5?$CC?$CC?5@ 0000000180048fe8     libvcruntime:undname.obj
 0002:00002ff8       ??_C@_0BC@GGEBGALA@operator?5co_await@ 0000000180048ff8     libvcruntime:undname.obj
 0002:00003010       ??_C@_0M@GAAIMMOH@operator?$DM?$DN?$DO@ 0000000180049010     libvcruntime:undname.obj
 0002:00003020       ??_C@_0BC@DAFEJGAK@?5Type?5Descriptor?8@ 0000000180049020     libvcruntime:undname.obj
 0002:00003038       ??_C@_0BM@LDKODKLH@?5Base?5Class?5Descriptor?5at?5?$CI@ 0000000180049038     libvcruntime:undname.obj
 0002:00003058       ??_C@_0BD@LGICGFMM@?5Base?5Class?5Array?8@ 0000000180049058     libvcruntime:undname.obj
 0002:00003070       ??_C@_0BN@MECKDCOJ@?5Class?5Hierarchy?5Descriptor?8@ 0000000180049070     libvcruntime:undname.obj
 0002:00003090       ??_C@_0BK@CFCOFLF@?5Complete?5Object?5Locator?8@ 0000000180049090     libvcruntime:undname.obj
 0002:000030b0       ??_C@_0BG@JNJLAMPM@?$GAanonymous?5namespace?8@ 00000001800490b0     libvcruntime:undname.obj
 0002:000030c8       ??_C@_04HEJADOOB@CV?3?5@   00000001800490c8     libvcruntime:undname.obj
 0002:000030d0       ??_C@_02MOLJINC@?3?3@      00000001800490d0     libvcruntime:undname.obj
 0002:000030d8       ??_C@_0BE@JAEOCHPE@template?9parameter?9@ 00000001800490d8     libvcruntime:undname.obj
 0002:000030f0       ??_C@_0BF@LNLGBBNL@?$GAtemplate?9parameter?9@ 00000001800490f0     libvcruntime:undname.obj
 0002:00003108       ??_C@_0O@KHGCOMHP@generic?9type?9@ 0000000180049108     libvcruntime:undname.obj
 0002:00003118       ??_C@_0P@ODDENDLM@?$GAgeneric?9type?9@ 0000000180049118     libvcruntime:undname.obj
 0002:00003128       ??_C@_02OHHJMEON@?8?8@     0000000180049128     libvcruntime:undname.obj
 0002:00003130       ??_C@_0BN@IBLMMFAP@?$GAnon?9type?9template?9parameter@ 0000000180049130     libvcruntime:undname.obj
 0002:00003150       ??_C@_03DLDNIBIK@?$CFlf@   0000000180049150     libvcruntime:undname.obj
 0002:00003154       ??_C@_04OFALKAJ@?$DP?$DP_C@ 0000000180049154     libvcruntime:undname.obj
 0002:0000315c       ??_C@_03KHICJKCI@?4?4?4@   000000018004915c     libvcruntime:undname.obj
 0002:00003160       ??_C@_04HIBGFPH@NULL@      0000000180049160     libvcruntime:undname.obj
 0002:00003168       ??_C@_02DPKJAMEF@?$CFd@    0000000180049168     libvcruntime:undname.obj
 0002:00003170       ??_C@_0BK@IHCCFNEL@?$GAtemplate?9type?9parameter?9@ 0000000180049170     libvcruntime:undname.obj
 0002:00003190       ??_C@_0BK@OFCNNNKO@?$GAgeneric?9class?9parameter?9@ 0000000180049190     libvcruntime:undname.obj
 0002:000031b0       ??_C@_0BL@NGJBLFIL@?$GAgeneric?9method?9parameter?9@ 00000001800491b0     libvcruntime:undname.obj
 0002:000031d0       ??_C@_07OHNGEDJK@nullptr@  00000001800491d0     libvcruntime:undname.obj
 0002:000031d8       ??_C@_04GKJNKENE@void@     00000001800491d8     libvcruntime:undname.obj
 0002:000031e0       ??_C@_0BE@EODMJLIF@?$GAtemplate?9parameter@ 00000001800491e0     libvcruntime:undname.obj
 0002:000031f4       ??_C@_03OPGICMGF@?$HN?8?5@ 00000001800491f4     libvcruntime:undname.obj
 0002:000031f8       ??_C@_02IGFCGPIL@?$HN?8@   00000001800491f8     libvcruntime:undname.obj
 0002:00003200       ??_C@_0N@CBHHHENL@?$GAvtordispex?$HL@ 0000000180049200     libvcruntime:undname.obj
 0002:00003210       ??_C@_0L@GHPFDFH@?$GAvtordisp?$HL@ 0000000180049210     libvcruntime:undname.obj
 0002:00003220       ??_C@_0L@HNGCOGAE@?$GAadjustor?$HL@ 0000000180049220     libvcruntime:undname.obj
 0002:00003230       ??_C@_0CB@KJDOOODE@?$GAlocal?5static?5destructor?5helper@ 0000000180049230     libvcruntime:undname.obj
 0002:00003258       ??_C@_0DB@ILEFOCIJ@?$GAtemplate?5static?5data?5member?5co@ 0000000180049258     libvcruntime:undname.obj
 0002:00003290       ??_C@_0DA@HGFJFBBE@?$GAtemplate?5static?5data?5member?5de@ 0000000180049290     libvcruntime:undname.obj
 0002:000032c0       ??_C@_07PGOEDBHP@static?5@ 00000001800492c0     libvcruntime:undname.obj
 0002:000032c8       ??_C@_08NIEOINHE@virtual?5@ 00000001800492c8     libvcruntime:undname.obj
 0002:000032d8       ??_C@_09LAPHOOG@private?3?5@ 00000001800492d8     libvcruntime:undname.obj
 0002:000032e8       ??_C@_0M@GAIFPFIP@protected?3?5@ 00000001800492e8     libvcruntime:undname.obj
 0002:000032f8       ??_C@_08GPDDCMKI@public?3?5@ 00000001800492f8     libvcruntime:undname.obj
 0002:00003308       ??_C@_08KJLFOPNE@?$FLthunk?$FN?3@ 0000000180049308     libvcruntime:undname.obj
 0002:00003318       ??_C@_0M@DHNBOJMP@extern?5?$CCC?$CC?5@ 0000000180049318     libvcruntime:undname.obj
 0002:00003324       ??_C@_02KCKGHPCA@?$CJ?5@   0000000180049324     libvcruntime:undname.obj
 0002:00003328       ??_C@_05CIHEBHNO@char?5@   0000000180049328     libvcruntime:undname.obj
 0002:00003330       ??_C@_06EHJMALKF@short?5@  0000000180049330     libvcruntime:undname.obj
 0002:00003338       ??_C@_04LAHKHJMA@int?5@    0000000180049338     libvcruntime:undname.obj
 0002:00003340       ??_C@_05CJIMAING@long?5@   0000000180049340     libvcruntime:undname.obj
 0002:00003348       ??_C@_09EBBEKKIH@unsigned?5@ 0000000180049348     libvcruntime:undname.obj
 0002:00003354       ??_C@_05BEFAKPML@void?5@   0000000180049354     libvcruntime:undname.obj
 0002:00003360       ??_C@_09GAIEOBLP@volatile?5@ 0000000180049360     libvcruntime:undname.obj
 0002:00003370       ??_C@_08PABEKFH@volatile@  0000000180049370     libvcruntime:undname.obj
 0002:00003380       ??_C@_0BA@LKIJLKPP@std?3?3nullptr_t?5@ 0000000180049380     libvcruntime:undname.obj
 0002:00003390       ??_C@_0P@GCOCNKDM@std?3?3nullptr_t@ 0000000180049390     libvcruntime:undname.obj
 0002:000033a0       ??_C@_0L@EGPHHEKN@?$DMellipsis?$DO@ 00000001800493a0     libvcruntime:undname.obj
 0002:000033ac       ??_C@_04EENFHACM@?0?4?4?4@ 00000001800493ac     libvcruntime:undname.obj
 0002:000033b8       ??_C@_0M@ELJOJFFH@?0?$DMellipsis?$DO@ 00000001800493b8     libvcruntime:undname.obj
 0002:000033c8       ??_C@_09DNHFEOJI@?5noexcept@ 00000001800493c8     libvcruntime:undname.obj
 0002:000033d4       ??_C@_03PBJBJNON@cpu@      00000001800493d4     libvcruntime:undname.obj
 0002:000033d8       ??_C@_03DCBBJBAA@amp@      00000001800493d8     libvcruntime:undname.obj
 0002:000033dc       ??_C@_02KEGNLNML@?0?5@     00000001800493dc     libvcruntime:undname.obj
 0002:000033e0       ??_C@_04ENMBGAPA@char@     00000001800493e0     libvcruntime:undname.obj
 0002:000033e8       ??_C@_05BFKKPKCG@short@    00000001800493e8     libvcruntime:undname.obj
 0002:000033f0       ??_C@_03JBIPMCLC@int@      00000001800493f0     libvcruntime:undname.obj
 0002:000033f4       ??_C@_04GOKPGOLB@long@     00000001800493f4     libvcruntime:undname.obj
 0002:000033fc       ??_C@_05KNFBNCOH@float@    00000001800493fc     libvcruntime:undname.obj
 0002:00003404       ??_C@_06BNJCAIGJ@double@   0000000180049404     libvcruntime:undname.obj
 0002:0000340c       ??_C@_04DDKJGDCM@bool@     000000018004940c     libvcruntime:undname.obj
 0002:00003414       ??_C@_06EBGKOKIG@__int8@   0000000180049414     libvcruntime:undname.obj
 0002:00003420       ??_C@_07ICFHOGAF@__int16@  0000000180049420     libvcruntime:undname.obj
 0002:00003428       ??_C@_07OFLPPHGP@__int32@  0000000180049428     libvcruntime:undname.obj
 0002:00003430       ??_C@_07LFCOJCAC@__int64@  0000000180049430     libvcruntime:undname.obj
 0002:00003438       ??_C@_08GAHOLHEO@__int128@ 0000000180049438     libvcruntime:undname.obj
 0002:00003448       ??_C@_09EEKGDCPH@?$DMunknown?$DO@ 0000000180049448     libvcruntime:undname.obj
 0002:00003458       ??_C@_07CFHGOPCN@char8_t@  0000000180049458     libvcruntime:undname.obj
 0002:00003460       ??_C@_08HBIPOFJB@char16_t@ 0000000180049460     libvcruntime:undname.obj
 0002:00003470       ??_C@_08IECNCBKG@char32_t@ 0000000180049470     libvcruntime:undname.obj
 0002:00003480       ??_C@_07CLGGIAMF@wchar_t@  0000000180049480     libvcruntime:undname.obj
 0002:00003488       ??_C@_04HAPDLBFF@auto@     0000000180049488     libvcruntime:undname.obj
 0002:00003490       ??_C@_0P@LHCGKIGK@decltype?$CIauto?$CJ@ 0000000180049490     libvcruntime:undname.obj
 0002:000034a0       ??_C@_06GCICPBLB@__w64?5@  00000001800494a0     libvcruntime:undname.obj
 0002:000034a8       ??_C@_07NFANNNEC@UNKNOWN@  00000001800494a8     libvcruntime:undname.obj
 0002:000034b0       ??_C@_07EDHNAJHC@signed?5@ 00000001800494b0     libvcruntime:undname.obj
 0002:000034b8       ??_C@_05BNCCCJPP@const@    00000001800494b8     libvcruntime:undname.obj
 0002:000034c0       ??_C@_09EFNPDFFP@?5volatile@ 00000001800494c0     libvcruntime:undname.obj
 0002:000034d0       ??_C@_0P@GCIFDJCJ@?$GAunknown?5ecsu?8@ 00000001800494d0     libvcruntime:undname.obj
 0002:000034e0       ??_C@_06MOJHIBMG@union?5@  00000001800494e0     libvcruntime:undname.obj
 0002:000034e8       ??_C@_07DIBCDNGL@struct?5@ 00000001800494e8     libvcruntime:undname.obj
 0002:000034f0       ??_C@_06LJBABKPM@class?5@  00000001800494f0     libvcruntime:undname.obj
 0002:000034f8       ??_C@_08KOFANOFK@coclass?5@ 00000001800494f8     libvcruntime:undname.obj
 0002:00003508       ??_C@_0N@DLIEFKNA@cointerface?5@ 0000000180049508     libvcruntime:undname.obj
 0002:00003518       ??_C@_05LJGMCFOG@enum?5@   0000000180049518     libvcruntime:undname.obj
 0002:00003520       ??_C@_06LIJLOJAG@const?5@  0000000180049520     libvcruntime:undname.obj
 0002:00003528       ??_C@_02KJPKDIBN@?$CG?5@   0000000180049528     libvcruntime:undname.obj
 0002:0000352c       ??_C@_03PCKGMOPB@?$CG?$CG?5@ 000000018004952c     libvcruntime:undname.obj
 0002:00003530       ??_C@_0M@EALIELKG@cli?3?3array?$DM@ 0000000180049530     libvcruntime:undname.obj
 0002:00003540       ??_C@_0O@GKABPPIF@cli?3?3pin_ptr?$DM@ 0000000180049540     libvcruntime:undname.obj
 0002:00003550       ??_C@_02GOGNNPBN@?$CJ?$FL@ 0000000180049550     libvcruntime:undname.obj
 0002:00003554       ??_C@_06EEGAIFAK@?$HLflat?$HN@ 0000000180049554     libvcruntime:undname.obj
 0002:0000355c       ??_C@_05JIBOFOHK@?$HLfor?5@ 000000018004955c     libvcruntime:undname.obj
 0002:00003564       ??_C@_02MDINNEEG@s?5@      0000000180049564     libvcruntime:undname.obj
 0002:00003570       ??_7charNode@@6B@          0000000180049570     libvcruntime:undname.obj
 0002:00003598       ??_7pcharNode@@6B@         0000000180049598     libvcruntime:undname.obj
 0002:000035c0       ??_7pDNameNode@@6B@        00000001800495c0     libvcruntime:undname.obj
 0002:000035e8       ??_7DNameStatusNode@@6B@   00000001800495e8     libvcruntime:undname.obj
 0002:00003610       ??_7pairNode@@6B@          0000000180049610     libvcruntime:undname.obj
 0002:00003730       ??_C@_04OKOHEJBO@?5?$DP?$DP?5@ 0000000180049730     libvcruntime:undname.obj
 0002:00003740       ?nodes@?1??make@DNameStatusNode@@SAPEBV2@W4DNameStatus@@@Z@4QBV2@B 0000000180049740     libvcruntime:undname.obj
 0002:00003780       ?s_negLengthTab@FH4@@3QBCB 0000000180049780     libvcruntime:risctrnsctrl.obj
 0002:00003790       ?s_shiftTab@FH4@@3QBEB     0000000180049790     libvcruntime:risctrnsctrl.obj
 0002:00003850       ??_C@_1DM@KHCHBNEB@?$AAa?$AAp?$AAi?$AA?9?$AAm?$AAs?$AA?9?$AAw?$AAi?$AAn?$AA?9?$AAc?$AAo?$AAr?$AAe@ 0000000180049850     libvcruntime:winapi_downlevel.obj
 0002:00003890       ??_C@_1DK@LPPGFMPP@?$AAa?$AAp?$AAi?$AA?9?$AAm?$AAs?$AA?9?$AAw?$AAi?$AAn?$AA?9?$AAc?$AAo?$AAr?$AAe@ 0000000180049890     libvcruntime:winapi_downlevel.obj
 0002:000038d0       ??_C@_1BC@GDMECMAK@?$AAk?$AAe?$AAr?$AAn?$AAe?$AAl?$AA3?$AA2@ 00000001800498d0     libvcruntime:winapi_downlevel.obj
 0002:000038e8       ??_C@_1BA@PFFKHIOG@?$AAa?$AAp?$AAi?$AA?9?$AAm?$AAs?$AA?9@ 00000001800498e8     libvcruntime:winapi_downlevel.obj
 0002:00003900       ??_C@_08KNHFBNJ@FlsAlloc@  0000000180049900     libvcruntime:winapi_downlevel.obj
 0002:00003918       ??_C@_07PEJMOBNF@FlsFree@  0000000180049918     libvcruntime:winapi_downlevel.obj
 0002:00003928       ??_C@_0M@GDNOONDI@FlsGetValue@ 0000000180049928     libvcruntime:winapi_downlevel.obj
 0002:00003940       ??_C@_0M@JCPCPOEF@FlsSetValue@ 0000000180049940     libvcruntime:winapi_downlevel.obj
 0002:00003958       ??_C@_0BM@HCFOFFN@InitializeCriticalSectionEx@ 0000000180049958     libvcruntime:winapi_downlevel.obj
 0002:00003980       ??_7exception@std@@6B@     0000000180049980     libvcruntime:frame.obj
 0002:00003990       ??_C@_0BC@EOODALEL@Unknown?5exception@ 0000000180049990     libvcruntime:frame.obj
 0002:000039b0       ??_7bad_exception@std@@6B@ 00000001800499b0     libvcruntime:frame.obj
 0002:000039c0       ??_C@_0O@DPKOEFFH@bad?5exception@ 00000001800499c0     libvcruntime:frame.obj
 0002:00004158       __real@3f1a36e2eb1c432d    000000018004a158     libucrt:atan2f.obj
 0002:00004160       __real@3f490fdb            000000018004a160     libucrt:atan2f.obj
 0002:00004168       __real@3fb0000000000000    000000018004a168     libucrt:atan2f.obj
 0002:00004170       __real@3fc2492482bd6be1    000000018004a170     libucrt:atan2f.obj
 0002:00004178       __real@3fc90fdb            000000018004a178     libucrt:atan2f.obj
 0002:00004180       __real@3fc99999999643a3    000000018004a180     libucrt:atan2f.obj
 0002:00004188       __real@3fd5555555550877    000000018004a188     libucrt:atan2f.obj
 0002:00004190       __real@3fd5555555555538    000000018004a190     libucrt:atan2f.obj
 0002:00004198       __real@3ff921fb54442d18    000000018004a198     libucrt:atan2f.obj
 0002:000041a0       __real@400921fb54442d18    000000018004a1a0     libucrt:atan2f.obj
 0002:000041a8       __real@4016cbe4            000000018004a1a8     libucrt:atan2f.obj
 0002:000041ac       __real@40490fdb            000000018004a1ac     libucrt:atan2f.obj
 0002:000041b0       __real@4070000000000000    000000018004a1b0     libucrt:atan2f.obj
 0002:000041b8       __real@80000000            000000018004a1b8     libucrt:atan2f.obj
 0002:000041bc       __real@bf490fdb            000000018004a1bc     libucrt:atan2f.obj
 0002:000041c0       __real@bfc90fdb            000000018004a1c0     libucrt:atan2f.obj
 0002:000041c4       __real@c016cbe4            000000018004a1c4     libucrt:atan2f.obj
 0002:000041c8       __real@c0490fdb            000000018004a1c8     libucrt:atan2f.obj
 0002:00004420       __acrt_exception_action_table 000000018004a420     libucrt:exception_filter.obj
 0002:000044e0       __acrt_signal_action_table_count 000000018004a4e0     libucrt:exception_filter.obj
 0002:000044e8       __acrt_signal_action_first_fpe_index 000000018004a4e8     libucrt:exception_filter.obj
 0002:000044f0       __acrt_signal_action_fpe_count 000000018004a4f0     libucrt:exception_filter.obj
 0002:000044f8       ??_C@_1BI@BGOHAHKC@?$AAm?$AAs?$AAc?$AAo?$AAr?$AAe?$AAe?$AA?4?$AAd?$AAl?$AAl@ 000000018004a4f8     libucrt:exit.obj
 0002:00004510       ??_C@_0P@MIGLKIOC@CorExitProcess@ 000000018004a510     libucrt:exit.obj
 0002:00004620       ?format_validation_lookup_table_spectre@__crt_stdio_output@@3V?$spectre_mitigated_lookup_table@Ustate_transition_pair@__crt_stdio_output@@$0IA@@1@B 000000018004a620     libucrt:output.obj
 0002:00004a20       ??_C@_1O@CEDCILHN@?$AA?$CI?$AAn?$AAu?$AAl?$AAl?$AA?$CJ@ 000000018004aa20     libucrt:output.obj
 0002:00004a30       ??_C@_06OJHGLDPL@?$CInull?$CJ@ 000000018004aa30     libucrt:output.obj
 0002:00004bb0       ??_C@_04LAGPAAHP@sinf@     000000018004abb0     libucrt:sincos_special.obj
 0002:00004bb8       ??_C@_04OBBKPIAC@cosf@     000000018004abb8     libucrt:sincos_special.obj
 0002:00004bc0       __Lcosfarray               000000018004abc0     libucrt:lsincosf_array.obj
 0002:00004bf0       __Lsinfarray               000000018004abf0     libucrt:lsincosf_array.obj
 0002:00004c10       __L_2_by_pi_bits           000000018004ac10     libucrt:l2_by_pi_bits.obj
 0002:00004ee8       ??_C@_1M@HPNHIDJI@?$AAj?$AAa?$AA?9?$AAJ?$AAP@ 000000018004aee8     libucrt:mbctype.obj
 0002:00004ef8       ??_C@_1M@BIBDDEMK@?$AAz?$AAh?$AA?9?$AAC?$AAN@ 000000018004aef8     libucrt:mbctype.obj
 0002:00004f08       ??_C@_1M@JLOOOEGK@?$AAk?$AAo?$AA?9?$AAK?$AAR@ 000000018004af08     libucrt:mbctype.obj
 0002:00004f18       ??_C@_1M@CLNBBOPM@?$AAz?$AAh?$AA?9?$AAT?$AAW@ 000000018004af18     libucrt:mbctype.obj
 0002:00004fd0       ??_C@_1EA@JGEFHKEI@?$AAa?$AAp?$AAi?$AA?9?$AAm?$AAs?$AA?9?$AAw?$AAi?$AAn?$AA?9?$AAc?$AAo?$AAr?$AAe@ 000000018004afd0     libucrt:winapi_thunks.obj
 0002:00005010       ??_C@_1DI@IJCEHOCB@?$AAa?$AAp?$AAi?$AA?9?$AAm?$AAs?$AA?9?$AAw?$AAi?$AAn?$AA?9?$AAc?$AAo?$AAr?$AAe@ 000000018004b010     libucrt:winapi_thunks.obj
 0002:00005050       ??_C@_1EI@MPIAOHOC@?$AAa?$AAp?$AAi?$AA?9?$AAm?$AAs?$AA?9?$AAw?$AAi?$AAn?$AA?9?$AAc?$AAo?$AAr?$AAe@ 000000018004b050     libucrt:winapi_thunks.obj
 0002:000050a0       ??_C@_1FK@FPHCKFIE@?$AAa?$AAp?$AAi?$AA?9?$AAm?$AAs?$AA?9?$AAw?$AAi?$AAn?$AA?9?$AAc?$AAo?$AAr?$AAe@ 000000018004b0a0     libucrt:winapi_thunks.obj
 0002:00005100       ??_C@_1EM@DILCGIIO@?$AAa?$AAp?$AAi?$AA?9?$AAm?$AAs?$AA?9?$AAw?$AAi?$AAn?$AA?9?$AAc?$AAo?$AAr?$AAe@ 000000018004b100     libucrt:winapi_thunks.obj
 0002:00005150       ??_C@_1DM@LNCGDDPN@?$AAa?$AAp?$AAi?$AA?9?$AAm?$AAs?$AA?9?$AAw?$AAi?$AAn?$AA?9?$AAc?$AAo?$AAr?$AAe@ 000000018004b150     libucrt:winapi_thunks.obj
 0002:00005190       ??_C@_1DO@FPAPJEMD@?$AAa?$AAp?$AAi?$AA?9?$AAm?$AAs?$AA?9?$AAw?$AAi?$AAn?$AA?9?$AAc?$AAo?$AAr?$AAe@ 000000018004b190     libucrt:winapi_thunks.obj
 0002:000051d0       ??_C@_1DK@NDHNAHIO@?$AAa?$AAp?$AAi?$AA?9?$AAm?$AAs?$AA?9?$AAw?$AAi?$AAn?$AA?9?$AAc?$AAo?$AAr?$AAe@ 000000018004b1d0     libucrt:winapi_thunks.obj
 0002:00005210       ??_C@_1DM@KGHDGBCM@?$AAa?$AAp?$AAi?$AA?9?$AAm?$AAs?$AA?9?$AAw?$AAi?$AAn?$AA?9?$AAc?$AAo?$AAr?$AAe@ 000000018004b210     libucrt:winapi_thunks.obj
 0002:00005250       ??_C@_1EO@IJIOEFOH@?$AAa?$AAp?$AAi?$AA?9?$AAm?$AAs?$AA?9?$AAw?$AAi?$AAn?$AA?9?$AAr?$AAt?$AAc?$AAo@ 000000018004b250     libucrt:winapi_thunks.obj
 0002:000052a0       ??_C@_1FG@HHGEKANL@?$AAa?$AAp?$AAi?$AA?9?$AAm?$AAs?$AA?9?$AAw?$AAi?$AAn?$AA?9?$AAs?$AAe?$AAc?$AAu@ 000000018004b2a0     libucrt:winapi_thunks.obj
 0002:00005300       ??_C@_1EG@DBIOJECG@?$AAe?$AAx?$AAt?$AA?9?$AAm?$AAs?$AA?9?$AAw?$AAi?$AAn?$AA?9?$AAn?$AAt?$AAu?$AAs@ 000000018004b300     libucrt:winapi_thunks.obj
 0002:00005350       ??_C@_1EO@FIHMJCLF@?$AAe?$AAx?$AAt?$AA?9?$AAm?$AAs?$AA?9?$AAw?$AAi?$AAn?$AA?9?$AAn?$AAt?$AAu?$AAs@ 000000018004b350     libucrt:winapi_thunks.obj
 0002:000053a0       ??_C@_1BC@DNHGCMLG@?$AAa?$AAd?$AAv?$AAa?$AAp?$AAi?$AA3?$AA2@ 000000018004b3a0     libucrt:winapi_thunks.obj
 0002:000053b8       ??_C@_1M@OAIMIKLP@?$AAn?$AAt?$AAd?$AAl?$AAl@ 000000018004b3b8     libucrt:winapi_thunks.obj
 0002:000053d0       ??_C@_1EG@DPGNFKGC@?$AAa?$AAp?$AAi?$AA?9?$AAm?$AAs?$AA?9?$AAw?$AAi?$AAn?$AA?9?$AAa?$AAp?$AAp?$AAm@ 000000018004b3d0     libucrt:winapi_thunks.obj
 0002:00005418       ??_C@_1O@BCCLBEOE@?$AAu?$AAs?$AAe?$AAr?$AA3?$AA2@ 000000018004b418     libucrt:winapi_thunks.obj
 0002:00005428       ??_C@_1BA@IAIFMGEF@?$AAe?$AAx?$AAt?$AA?9?$AAm?$AAs?$AA?9@ 000000018004b428     libucrt:winapi_thunks.obj
 0002:00005440       ??_C@_0BA@FHFNEAED@AreFileApisANSI@ 000000018004b440     libucrt:winapi_thunks.obj
 0002:00005480       ??_C@_0O@KKBNKAPF@LCMapStringEx@ 000000018004b480     libucrt:winapi_thunks.obj
 0002:00005498       ??_C@_0BB@HBDEELFH@LocaleNameToLCID@ 000000018004b498     libucrt:winapi_thunks.obj
 0002:000054b0       ??_C@_0CF@OJOFEIGO@AppPolicyGetProcessTerminationM@ 000000018004b4b0     libucrt:winapi_thunks.obj
 0002:000054e0       __lc_time_c                000000018004b4e0     libucrt:nlsdata.obj
 0002:000057a0       ??_C@_03KOEHGMDN@Sun@      000000018004b7a0     libucrt:nlsdata.obj
 0002:000057a4       ??_C@_03PDAGKDH@Mon@       000000018004b7a4     libucrt:nlsdata.obj
 0002:000057a8       ??_C@_03NAGEINEP@Tue@      000000018004b7a8     libucrt:nlsdata.obj
 0002:000057ac       ??_C@_03MHOMLAJA@Wed@      000000018004b7ac     libucrt:nlsdata.obj
 0002:000057b0       ??_C@_03IOFIKPDN@Thu@      000000018004b7b0     libucrt:nlsdata.obj
 0002:000057b4       ??_C@_03IDIOELNC@Fri@      000000018004b7b4     libucrt:nlsdata.obj
 0002:000057b8       ??_C@_03FEFJNEK@Sat@       000000018004b7b8     libucrt:nlsdata.obj
 0002:000057bc       ??_C@_06OOPIFAJ@Sunday@    000000018004b7bc     libucrt:nlsdata.obj
 0002:000057c4       ??_C@_06JLEDEDGH@Monday@   000000018004b7c4     libucrt:nlsdata.obj
 0002:000057d0       ??_C@_07BAAGCFCM@Tuesday@  000000018004b7d0     libucrt:nlsdata.obj
 0002:000057d8       ??_C@_09DLIGFAKA@Wednesday@ 000000018004b7d8     libucrt:nlsdata.obj
 0002:000057e8       ??_C@_08HACCIKIA@Thursday@ 000000018004b7e8     libucrt:nlsdata.obj
 0002:000057f4       ??_C@_06JECMNKMI@Friday@   000000018004b7f4     libucrt:nlsdata.obj
 0002:00005800       ??_C@_08INBOOONO@Saturday@ 000000018004b800     libucrt:nlsdata.obj
 0002:0000580c       ??_C@_03JIHJHPIE@Jan@      000000018004b80c     libucrt:nlsdata.obj
 0002:00005810       ??_C@_03HJBDCHOM@Feb@      000000018004b810     libucrt:nlsdata.obj
 0002:00005814       ??_C@_03ODNJBKGA@Mar@      000000018004b814     libucrt:nlsdata.obj
 0002:00005818       ??_C@_03LEOLGMJP@Apr@      000000018004b818     libucrt:nlsdata.obj
 0002:0000581c       ??_C@_03CNMDKL@May@        000000018004b81c     libucrt:nlsdata.obj
 0002:00005820       ??_C@_03IDFGHECI@Jun@      000000018004b820     libucrt:nlsdata.obj
 0002:00005824       ??_C@_03LBGABGKK@Jul@      000000018004b824     libucrt:nlsdata.obj
 0002:00005828       ??_C@_03IFJFEIGA@Aug@      000000018004b828     libucrt:nlsdata.obj
 0002:0000582c       ??_C@_03GGCAPAJC@Sep@      000000018004b82c     libucrt:nlsdata.obj
 0002:00005830       ??_C@_03BMAOKBAD@Oct@      000000018004b830     libucrt:nlsdata.obj
 0002:00005834       ??_C@_03JPJOFNIA@Nov@      000000018004b834     libucrt:nlsdata.obj
 0002:00005838       ??_C@_03MKABNOCG@Dec@      000000018004b838     libucrt:nlsdata.obj
 0002:00005840       ??_C@_07CGJPFGJA@January@  000000018004b840     libucrt:nlsdata.obj
 0002:00005848       ??_C@_08GNJGEPFN@February@ 000000018004b848     libucrt:nlsdata.obj
 0002:00005854       ??_C@_05HPCKOFNC@March@    000000018004b854     libucrt:nlsdata.obj
 0002:0000585c       ??_C@_05DMJDNLEJ@April@    000000018004b85c     libucrt:nlsdata.obj
 0002:00005864       ??_C@_04CNLMGBGM@June@     000000018004b864     libucrt:nlsdata.obj
 0002:0000586c       ??_C@_04MIEPOIFP@July@     000000018004b86c     libucrt:nlsdata.obj
 0002:00005874       ??_C@_06LBBHFDDG@August@   000000018004b874     libucrt:nlsdata.obj
 0002:00005880       ??_C@_09BHHEALKD@September@ 000000018004b880     libucrt:nlsdata.obj
 0002:00005890       ??_C@_07JJNFCEND@October@  000000018004b890     libucrt:nlsdata.obj
 0002:00005898       ??_C@_08HCHEGEOA@November@ 000000018004b898     libucrt:nlsdata.obj
 0002:000058a8       ??_C@_08EDHMEBNP@December@ 000000018004b8a8     libucrt:nlsdata.obj
 0002:000058b4       ??_C@_02DEDBPAFC@AM@       000000018004b8b4     libucrt:nlsdata.obj
 0002:000058b8       ??_C@_02CJNFDJBF@PM@       000000018004b8b8     libucrt:nlsdata.obj
 0002:000058c0       ??_C@_08BPBNCDIB@MM?1dd?1yy@ 000000018004b8c0     libucrt:nlsdata.obj
 0002:000058d0       ??_C@_0BE@CKGJFCPC@dddd?0?5MMMM?5dd?0?5yyyy@ 000000018004b8d0     libucrt:nlsdata.obj
 0002:000058e8       ??_C@_08JCCMCCIL@HH?3mm?3ss@ 000000018004b8e8     libucrt:nlsdata.obj
 0002:000058f8       ??_C@_17MBGCMIPB@?$AAS?$AAu?$AAn@ 000000018004b8f8     libucrt:nlsdata.obj
 0002:00005900       ??_C@_17KBOMKBF@?$AAM?$AAo?$AAn@ 000000018004b900     libucrt:nlsdata.obj
 0002:00005908       ??_C@_17BMKGEGOJ@?$AAT?$AAu?$AAe@ 000000018004b908     libucrt:nlsdata.obj
 0002:00005910       ??_C@_17CJEDCEPE@?$AAW?$AAe?$AAd@ 000000018004b910     libucrt:nlsdata.obj
 0002:00005918       ??_C@_17PDPHAADD@?$AAT?$AAh?$AAu@ 000000018004b918     libucrt:nlsdata.obj
 0002:00005920       ??_C@_17HFOLPPLP@?$AAF?$AAr?$AAi@ 000000018004b920     libucrt:nlsdata.obj
 0002:00005928       ??_C@_17GGIBDPIH@?$AAS?$AAa?$AAt@ 000000018004b928     libucrt:nlsdata.obj
 0002:00005930       ??_C@_1O@IHNHDHPB@?$AAS?$AAu?$AAn?$AAd?$AAa?$AAy@ 000000018004b930     libucrt:nlsdata.obj
 0002:00005940       ??_C@_1O@MMNBFLIA@?$AAM?$AAo?$AAn?$AAd?$AAa?$AAy@ 000000018004b940     libucrt:nlsdata.obj
 0002:00005950       ??_C@_1BA@ENFBFFEK@?$AAT?$AAu?$AAe?$AAs?$AAd?$AAa?$AAy@ 000000018004b950     libucrt:nlsdata.obj
 0002:00005960       ??_C@_1BE@EBOGMDOH@?$AAW?$AAe?$AAd?$AAn?$AAe?$AAs?$AAd?$AAa?$AAy@ 000000018004b960     libucrt:nlsdata.obj
 0002:00005978       ??_C@_1BC@HHMNLIHE@?$AAT?$AAh?$AAu?$AAr?$AAs?$AAd?$AAa?$AAy@ 000000018004b978     libucrt:nlsdata.obj
 0002:00005990       ??_C@_1O@PDICJHAG@?$AAF?$AAr?$AAi?$AAd?$AAa?$AAy@ 000000018004b990     libucrt:nlsdata.obj
 0002:000059a0       ??_C@_1BC@ENMNNPAJ@?$AAS?$AAa?$AAt?$AAu?$AAr?$AAd?$AAa?$AAy@ 000000018004b9a0     libucrt:nlsdata.obj
 0002:000059b8       ??_C@_17DKNBKCHM@?$AAJ?$AAa?$AAn@ 000000018004b9b8     libucrt:nlsdata.obj
 0002:000059c0       ??_C@_17LMDJEKJN@?$AAF?$AAe?$AAb@ 000000018004b9c0     libucrt:nlsdata.obj
 0002:000059c8       ??_C@_17CKNLEDEC@?$AAM?$AAa?$AAr@ 000000018004b9c8     libucrt:nlsdata.obj
 0002:000059d0       ??_C@_17LFPOIHDD@?$AAA?$AAp?$AAr@ 000000018004b9d0     libucrt:nlsdata.obj
 0002:000059d8       ??_C@_17PNNKMEED@?$AAM?$AAa?$AAy@ 000000018004b9d8     libucrt:nlsdata.obj
 0002:000059e0       ??_C@_17KCJGOCPB@?$AAJ?$AAu?$AAn@ 000000018004b9e0     libucrt:nlsdata.obj
 0002:000059e8       ??_C@_17IJPCKHK@?$AAJ?$AAu?$AAl@ 000000018004b9e8     libucrt:nlsdata.obj
 0002:000059f0       ??_C@_17ICPELBCN@?$AAA?$AAu?$AAg@ 000000018004b9f0     libucrt:nlsdata.obj
 0002:000059f8       ??_C@_17HCHCOKMG@?$AAS?$AAe?$AAp@ 000000018004b9f8     libucrt:nlsdata.obj
 0002:00005a00       ??_C@_17FNLKOI@?$AAO?$AAc?$AAt@ 000000018004ba00     libucrt:nlsdata.obj
 0002:00005a08       ??_C@_17BBDMLCIG@?$AAN?$AAo?$AAv@ 000000018004ba08     libucrt:nlsdata.obj
 0002:00005a10       ??_C@_17EGKACKIF@?$AAD?$AAe?$AAc@ 000000018004ba10     libucrt:nlsdata.obj
 0002:00005a18       ??_C@_1BA@EFMEIEBA@?$AAJ?$AAa?$AAn?$AAu?$AAa?$AAr?$AAy@ 000000018004ba18     libucrt:nlsdata.obj
 0002:00005a28       ??_C@_1BC@JGDDFFAM@?$AAF?$AAe?$AAb?$AAr?$AAu?$AAa?$AAr?$AAy@ 000000018004ba28     libucrt:nlsdata.obj
 0002:00005a40       ??_C@_1M@IKEENEDF@?$AAM?$AAa?$AAr?$AAc?$AAh@ 000000018004ba40     libucrt:nlsdata.obj
 0002:00005a50       ??_C@_1M@GJNLMHFD@?$AAA?$AAp?$AAr?$AAi?$AAl@ 000000018004ba50     libucrt:nlsdata.obj
 0002:00005a60       ??_C@_19EPFLPGAP@?$AAJ?$AAu?$AAn?$AAe@ 000000018004ba60     libucrt:nlsdata.obj
 0002:00005a70       ??_C@_19BIFMLPCD@?$AAJ?$AAu?$AAl?$AAy@ 000000018004ba70     libucrt:nlsdata.obj
 0002:00005a80       ??_C@_1O@PAHLKOAC@?$AAA?$AAu?$AAg?$AAu?$AAs?$AAt@ 000000018004ba80     libucrt:nlsdata.obj
 0002:00005a90       ??_C@_1BE@DKAAMBJL@?$AAS?$AAe?$AAp?$AAt?$AAe?$AAm?$AAb?$AAe?$AAr@ 000000018004ba90     libucrt:nlsdata.obj
 0002:00005aa8       ??_C@_1BA@EPANDLNG@?$AAO?$AAc?$AAt?$AAo?$AAb?$AAe?$AAr@ 000000018004baa8     libucrt:nlsdata.obj
 0002:00005ab8       ??_C@_1BC@BGLIFPF@?$AAN?$AAo?$AAv?$AAe?$AAm?$AAb?$AAe?$AAr@ 000000018004bab8     libucrt:nlsdata.obj
 0002:00005ad0       ??_C@_1BC@FEMKIFH@?$AAD?$AAe?$AAc?$AAe?$AAm?$AAb?$AAe?$AAr@ 000000018004bad0     libucrt:nlsdata.obj
 0002:00005ae4       ??_C@_15ODEHAHHF@?$AAA?$AAM@ 000000018004bae4     libucrt:nlsdata.obj
 0002:00005aec       ??_C@_15CLMNNGEL@?$AAP?$AAM@ 000000018004baec     libucrt:nlsdata.obj
 0002:00005af8       ??_C@_1BC@IEBCMHCM@?$AAM?$AAM?$AA?1?$AAd?$AAd?$AA?1?$AAy?$AAy@ 000000018004baf8     libucrt:nlsdata.obj
 0002:00005b10       ??_C@_1CI@KNAKOEBC@?$AAd?$AAd?$AAd?$AAd?$AA?0?$AA?5?$AAM?$AAM?$AAM?$AAM?$AA?5?$AAd?$AAd?$AA?0?$AA?5@ 000000018004bb10     libucrt:nlsdata.obj
 0002:00005b38       ??_C@_1BC@GDGBMEMK@?$AAH?$AAH?$AA?3?$AAm?$AAm?$AA?3?$AAs?$AAs@ 000000018004bb38     libucrt:nlsdata.obj
 0002:00005b50       ??_C@_1M@BMHNFIME@?$AAe?$AAn?$AA?9?$AAU?$AAS@ 000000018004bb50     libucrt:nlsdata.obj
 0002:00005be0       ??_C@_03OEIAHPBN@INF@      000000018004bbe0     libucrt:cvt.obj
 0002:00005be4       ??_C@_03OJHLLCGB@inf@      000000018004bbe4     libucrt:cvt.obj
 0002:00005be8       ??_C@_03LKNCIKJB@NAN@      000000018004bbe8     libucrt:cvt.obj
 0002:00005bec       ??_C@_03LHCJEHON@nan@      000000018004bbec     libucrt:cvt.obj
 0002:00005bf0       ??_C@_09OFJJIMPC@NAN?$CISNAN?$CJ@ 000000018004bbf0     libucrt:cvt.obj
 0002:00005c00       ??_C@_09IPFBKMDL@nan?$CIsnan?$CJ@ 000000018004bc00     libucrt:cvt.obj
 0002:00005c10       ??_C@_08IKHNHAJ@NAN?$CIIND?$CJ@ 000000018004bc10     libucrt:cvt.obj
 0002:00005c20       ??_C@_08OFCDMILK@nan?$CIind?$CJ@ 000000018004bc20     libucrt:cvt.obj
 0002:00005c2c       ??_C@_05KLBDPFGC@e?$CL000@ 000000018004bc2c     libucrt:cvt.obj
 0002:00005c40       __newctype                 000000018004bc40     libucrt:ctype.obj
 0002:00005f40       __newclmap                 000000018004bf40     libucrt:ctype.obj
 0002:000060c0       __newcumap                 000000018004c0c0     libucrt:ctype.obj
 0002:00006250       ??_C@_05HGHHAHAP@log10@    000000018004c250     libucrt:fpexcept.obj
 0002:000070a0       ??_C@_15EMKDOKLE@?$AAa?$AAr@ 000000018004d0a0     libucrt:lcidtoname_downlevel.obj
 0002:000070a8       ??_C@_15KNPADPLH@?$AAb?$AAg@ 000000018004d0a8     libucrt:lcidtoname_downlevel.obj
 0002:000070b0       ??_C@_15EDMHLDMO@?$AAc?$AAa@ 000000018004d0b0     libucrt:lcidtoname_downlevel.obj
 0002:000070b8       ??_C@_1O@BPEAJADD@?$AAz?$AAh?$AA?9?$AAC?$AAH?$AAS@ 000000018004d0b8     libucrt:lcidtoname_downlevel.obj
 0002:000070c8       ??_C@_15LJNHCMNK@?$AAc?$AAs@ 000000018004d0c8     libucrt:lcidtoname_downlevel.obj
 0002:000070d0       ??_C@_15FOMCIDHG@?$AAd?$AAa@ 000000018004d0d0     libucrt:lcidtoname_downlevel.obj
 0002:000070d8       ??_C@_15NBKABECB@?$AAd?$AAe@ 000000018004d0d8     libucrt:lcidtoname_downlevel.obj
 0002:000070e0       ??_C@_15GHPEIIAO@?$AAe?$AAl@ 000000018004d0e0     libucrt:lcidtoname_downlevel.obj
 0002:000070e8       ??_C@_15MNPNEAIF@?$AAe?$AAn@ 000000018004d0e8     libucrt:lcidtoname_downlevel.obj
 0002:000070f0       ??_C@_15GPIOMPMH@?$AAe?$AAs@ 000000018004d0f0     libucrt:lcidtoname_downlevel.obj
 0002:000070f8       ??_C@_15NGLOAKJC@?$AAf?$AAi@ 000000018004d0f8     libucrt:lcidtoname_downlevel.obj
 0002:00007100       ??_C@_15FBKGNKAM@?$AAf?$AAr@ 000000018004d100     libucrt:lcidtoname_downlevel.obj
 0002:00007108       ??_C@_15KGGCNEFK@?$AAh?$AAe@ 000000018004d108     libucrt:lcidtoname_downlevel.obj
 0002:00007110       ??_C@_15PGHLIDMF@?$AAh?$AAu@ 000000018004d110     libucrt:lcidtoname_downlevel.obj
 0002:00007118       ??_C@_15BIEMAPLM@?$AAi?$AAs@ 000000018004d118     libucrt:lcidtoname_downlevel.obj
 0002:00007120       ??_C@_15IFJLDHAF@?$AAi?$AAt@ 000000018004d120     libucrt:lcidtoname_downlevel.obj
 0002:00007128       ??_C@_15GEMIOCAG@?$AAj?$AAa@ 000000018004d128     libucrt:lcidtoname_downlevel.obj
 0002:00007130       ??_C@_15EPELEGJA@?$AAk?$AAo@ 000000018004d130     libucrt:lcidtoname_downlevel.obj
 0002:00007138       ??_C@_15NDDHIMN@?$AAn?$AAl@ 000000018004d138     libucrt:lcidtoname_downlevel.obj
 0002:00007140       ??_C@_15BPIGNHCD@?$AAn?$AAo@ 000000018004d140     libucrt:lcidtoname_downlevel.obj
 0002:00007148       ??_C@_15DEOPBLCG@?$AAp?$AAl@ 000000018004d148     libucrt:lcidtoname_downlevel.obj
 0002:00007150       ??_C@_15KBECGEFG@?$AAp?$AAt@ 000000018004d150     libucrt:lcidtoname_downlevel.obj
 0002:00007158       ??_C@_15GLJCBFMD@?$AAr?$AAo@ 000000018004d158     libucrt:lcidtoname_downlevel.obj
 0002:00007160       ??_C@_15FEDGKCDI@?$AAr?$AAu@ 000000018004d160     libucrt:lcidtoname_downlevel.obj
 0002:00007168       ??_C@_15GLKMLLHM@?$AAh?$AAr@ 000000018004d168     libucrt:lcidtoname_downlevel.obj
 0002:00007170       ??_C@_15CPKMFBDB@?$AAs?$AAk@ 000000018004d170     libucrt:lcidtoname_downlevel.obj
 0002:00007178       ??_C@_15BAAIOGMK@?$AAs?$AAq@ 000000018004d178     libucrt:lcidtoname_downlevel.obj
 0002:00007180       ??_C@_15INNPNOHD@?$AAs?$AAv@ 000000018004d180     libucrt:lcidtoname_downlevel.obj
 0002:00007188       ??_C@_15CABMMOGH@?$AAt?$AAh@ 000000018004d188     libucrt:lcidtoname_downlevel.obj
 0002:00007190       ??_C@_15BPLIHJJM@?$AAt?$AAr@ 000000018004d190     libucrt:lcidtoname_downlevel.obj
 0002:00007198       ??_C@_15NEOEKKDJ@?$AAu?$AAr@ 000000018004d198     libucrt:lcidtoname_downlevel.obj
 0002:000071a0       ??_C@_15NFICGAJK@?$AAi?$AAd@ 000000018004d1a0     libucrt:lcidtoname_downlevel.obj
 0002:000071a8       ??_C@_15PJPFLCCM@?$AAu?$AAk@ 000000018004d1a8     libucrt:lcidtoname_downlevel.obj
 0002:000071b0       ??_C@_15HPJPHDM@?$AAb?$AAe@ 000000018004d1b0     libucrt:lcidtoname_downlevel.obj
 0002:000071b8       ??_C@_15LCHLGJII@?$AAs?$AAl@ 000000018004d1b8     libucrt:lcidtoname_downlevel.obj
 0002:000071c0       ??_C@_15PCFJPHHO@?$AAe?$AAt@ 000000018004d1c0     libucrt:lcidtoname_downlevel.obj
 0002:000071c8       ??_C@_15HPFPGODN@?$AAl?$AAv@ 000000018004d1c8     libucrt:lcidtoname_downlevel.obj
 0002:000071d0       ??_C@_15NFFGKGLG@?$AAl?$AAt@ 000000018004d1d0     libucrt:lcidtoname_downlevel.obj
 0002:000071d8       ??_C@_15BDAKCCHN@?$AAf?$AAa@ 000000018004d1d8     libucrt:lcidtoname_downlevel.obj
 0002:000071e0       ??_C@_15NFGIAIAJ@?$AAv?$AAi@ 000000018004d1e0     libucrt:lcidtoname_downlevel.obj
 0002:000071e8       ??_C@_15LMKNDMHN@?$AAh?$AAy@ 000000018004d1e8     libucrt:lcidtoname_downlevel.obj
 0002:000071f0       ??_C@_15IJBHMCFL@?$AAa?$AAz@ 000000018004d1f0     libucrt:lcidtoname_downlevel.obj
 0002:000071f8       ??_C@_15EKOFJABL@?$AAe?$AAu@ 000000018004d1f8     libucrt:lcidtoname_downlevel.obj
 0002:00007200       ??_C@_15BGHADCNK@?$AAm?$AAk@ 000000018004d200     libucrt:lcidtoname_downlevel.obj
 0002:00007208       ??_C@_15JDNICKHM@?$AAa?$AAf@ 000000018004d208     libucrt:lcidtoname_downlevel.obj
 0002:00007210       ??_C@_15KPJEDBKD@?$AAk?$AAa@ 000000018004d210     libucrt:lcidtoname_downlevel.obj
 0002:00007218       ??_C@_15PDNFFFEO@?$AAf?$AAo@ 000000018004d218     libucrt:lcidtoname_downlevel.obj
 0002:00007220       ??_C@_15OMLEGLOC@?$AAh?$AAi@ 000000018004d220     libucrt:lcidtoname_downlevel.obj
 0002:00007228       ??_C@_15IDNNENKK@?$AAm?$AAs@ 000000018004d228     libucrt:lcidtoname_downlevel.obj
 0002:00007230       ??_C@_15MACJNBMH@?$AAk?$AAk@ 000000018004d230     libucrt:lcidtoname_downlevel.obj
 0002:00007238       ??_C@_15DKDJEOND@?$AAk?$AAy@ 000000018004d238     libucrt:lcidtoname_downlevel.obj
 0002:00007240       ??_C@_15DFGDLJBG@?$AAs?$AAw@ 000000018004d240     libucrt:lcidtoname_downlevel.obj
 0002:00007248       ??_C@_15BBFAICNG@?$AAu?$AAz@ 000000018004d248     libucrt:lcidtoname_downlevel.obj
 0002:00007250       ??_C@_15DKNDCGEA@?$AAt?$AAt@ 000000018004d250     libucrt:lcidtoname_downlevel.obj
 0002:00007258       ??_C@_15MGIFMDPL@?$AAp?$AAa@ 000000018004d258     libucrt:lcidtoname_downlevel.obj
 0002:00007260       ??_C@_15HCNDBBA@?$AAg?$AAu@ 000000018004d260     libucrt:lcidtoname_downlevel.obj
 0002:00007268       ??_C@_15FNBEIBON@?$AAt?$AAa@ 000000018004d268     libucrt:lcidtoname_downlevel.obj
 0002:00007270       ??_C@_15NCHGBGLK@?$AAt?$AAe@ 000000018004d270     libucrt:lcidtoname_downlevel.obj
 0002:00007278       ??_C@_15PHPHCBPF@?$AAk?$AAn@ 000000018004d278     libucrt:lcidtoname_downlevel.obj
 0002:00007280       ??_C@_15DLGBCKMP@?$AAm?$AAr@ 000000018004d280     libucrt:lcidtoname_downlevel.obj
 0002:00007288       ??_C@_15EABBLBFF@?$AAs?$AAa@ 000000018004d288     libucrt:lcidtoname_downlevel.obj
 0002:00007290       ??_C@_15CBKOMCOI@?$AAm?$AAn@ 000000018004d290     libucrt:lcidtoname_downlevel.obj
 0002:00007298       ??_C@_15CKDMCJAF@?$AAg?$AAl@ 000000018004d298     libucrt:lcidtoname_downlevel.obj
 0002:000072a0       ??_C@_17CNJFBPG@?$AAk?$AAo?$AAk@ 000000018004d2a0     libucrt:lcidtoname_downlevel.obj
 0002:000072a8       ??_C@_17FFBJICPL@?$AAs?$AAy?$AAr@ 000000018004d2a8     libucrt:lcidtoname_downlevel.obj
 0002:000072b0       ??_C@_17KPNDCPAF@?$AAd?$AAi?$AAv@ 000000018004d2b0     libucrt:lcidtoname_downlevel.obj
 0002:000072b8       ??_C@_11LOCGONAA@@         000000018004d2b8     libucrt:lcidtoname_downlevel.obj
 0002:000072c0       ??_C@_1M@OKAHONE@?$AAa?$AAr?$AA?9?$AAS?$AAA@ 000000018004d2c0     libucrt:lcidtoname_downlevel.obj
 0002:000072d0       ??_C@_1M@FFFIGIGK@?$AAb?$AAg?$AA?9?$AAB?$AAG@ 000000018004d2d0     libucrt:lcidtoname_downlevel.obj
 0002:000072e0       ??_C@_1M@BJNKEDC@?$AAc?$AAa?$AA?9?$AAE?$AAS@ 000000018004d2e0     libucrt:lcidtoname_downlevel.obj
 0002:000072f0       ??_C@_1M@IJJHFJHA@?$AAc?$AAs?$AA?9?$AAC?$AAZ@ 000000018004d2f0     libucrt:lcidtoname_downlevel.obj
 0002:00007300       ??_C@_1M@CLPEOBGI@?$AAd?$AAa?$AA?9?$AAD?$AAK@ 000000018004d300     libucrt:lcidtoname_downlevel.obj
 0002:00007310       ??_C@_1M@MCMADGCB@?$AAd?$AAe?$AA?9?$AAD?$AAE@ 000000018004d310     libucrt:lcidtoname_downlevel.obj
 0002:00007320       ??_C@_1M@OOCKEMAM@?$AAe?$AAl?$AA?9?$AAG?$AAR@ 000000018004d320     libucrt:lcidtoname_downlevel.obj
 0002:00007330       ??_C@_1M@DDNJFGID@?$AAf?$AAi?$AA?9?$AAF?$AAI@ 000000018004d330     libucrt:lcidtoname_downlevel.obj
 0002:00007340       ??_C@_1M@GLIPPMAC@?$AAf?$AAr?$AA?9?$AAF?$AAR@ 000000018004d340     libucrt:lcidtoname_downlevel.obj
 0002:00007350       ??_C@_1M@GFMCHPE@?$AAh?$AAe?$AA?9?$AAI?$AAL@ 000000018004d350     libucrt:lcidtoname_downlevel.obj
 0002:00007360       ??_C@_1M@MHLPGNKM@?$AAh?$AAu?$AA?9?$AAH?$AAU@ 000000018004d360     libucrt:lcidtoname_downlevel.obj
 0002:00007370       ??_C@_1M@LPDDNNPN@?$AAi?$AAs?$AA?9?$AAI?$AAS@ 000000018004d370     libucrt:lcidtoname_downlevel.obj
 0002:00007380       ??_C@_1M@MADIPODN@?$AAi?$AAt?$AA?9?$AAI?$AAT@ 000000018004d380     libucrt:lcidtoname_downlevel.obj
 0002:00007390       ??_C@_1M@IHBJJGG@?$AAn?$AAl?$AA?9?$AAN?$AAL@ 000000018004d390     libucrt:lcidtoname_downlevel.obj
 0002:000073a0       ??_C@_1M@EANAGDL@?$AAn?$AAb?$AA?9?$AAN?$AAO@ 000000018004d3a0     libucrt:lcidtoname_downlevel.obj
 0002:000073b0       ??_C@_1M@NEIEMEGP@?$AAp?$AAl?$AA?9?$AAP?$AAL@ 000000018004d3b0     libucrt:lcidtoname_downlevel.obj
 0002:000073c0       ??_C@_1M@BOCFIGEP@?$AAp?$AAt?$AA?9?$AAB?$AAR@ 000000018004d3c0     libucrt:lcidtoname_downlevel.obj
 0002:000073d0       ??_C@_1M@IMPFOPBG@?$AAr?$AAo?$AA?9?$AAR?$AAO@ 000000018004d3d0     libucrt:lcidtoname_downlevel.obj
 0002:000073e0       ??_C@_1M@IDNNEJMM@?$AAr?$AAu?$AA?9?$AAR?$AAU@ 000000018004d3e0     libucrt:lcidtoname_downlevel.obj
 0002:000073f0       ??_C@_1M@LILEEOGM@?$AAh?$AAr?$AA?9?$AAH?$AAR@ 000000018004d3f0     libucrt:lcidtoname_downlevel.obj
 0002:00007400       ??_C@_1M@FKIFEHPB@?$AAs?$AAk?$AA?9?$AAS?$AAK@ 000000018004d400     libucrt:lcidtoname_downlevel.obj
 0002:00007410       ??_C@_1M@LJMAMNPJ@?$AAs?$AAq?$AA?9?$AAA?$AAL@ 000000018004d410     libucrt:lcidtoname_downlevel.obj
 0002:00007420       ??_C@_1M@GIAKDKJK@?$AAs?$AAv?$AA?9?$AAS?$AAE@ 000000018004d420     libucrt:lcidtoname_downlevel.obj
 0002:00007430       ??_C@_1M@MKJKIKCL@?$AAt?$AAh?$AA?9?$AAT?$AAH@ 000000018004d430     libucrt:lcidtoname_downlevel.obj
 0002:00007440       ??_C@_1M@MFLCCMPB@?$AAt?$AAr?$AA?9?$AAT?$AAR@ 000000018004d440     libucrt:lcidtoname_downlevel.obj
 0002:00007450       ??_C@_1M@OIJHDKJN@?$AAu?$AAr?$AA?9?$AAP?$AAK@ 000000018004d450     libucrt:lcidtoname_downlevel.obj
 0002:00007460       ??_C@_1M@LHIPCIEK@?$AAi?$AAd?$AA?9?$AAI?$AAD@ 000000018004d460     libucrt:lcidtoname_downlevel.obj
 0002:00007470       ??_C@_1M@MFMOBGI@?$AAu?$AAk?$AA?9?$AAU?$AAA@ 000000018004d470     libucrt:lcidtoname_downlevel.obj
 0002:00007480       ??_C@_1M@OBGLJIPL@?$AAb?$AAe?$AA?9?$AAB?$AAY@ 000000018004d480     libucrt:lcidtoname_downlevel.obj
 0002:00007490       ??_C@_1M@BCFAJEAD@?$AAs?$AAl?$AA?9?$AAS?$AAI@ 000000018004d490     libucrt:lcidtoname_downlevel.obj
 0002:000074a0       ??_C@_1M@FKFFEDDN@?$AAe?$AAt?$AA?9?$AAE?$AAE@ 000000018004d4a0     libucrt:lcidtoname_downlevel.obj
 0002:000074b0       ??_C@_1M@KGKKAACI@?$AAl?$AAv?$AA?9?$AAL?$AAV@ 000000018004d4b0     libucrt:lcidtoname_downlevel.obj
 0002:000074c0       ??_C@_1M@IFGBIJO@?$AAl?$AAt?$AA?9?$AAL?$AAT@ 000000018004d4c0     libucrt:lcidtoname_downlevel.obj
 0002:000074d0       ??_C@_1M@FGEAHEDM@?$AAf?$AAa?$AA?9?$AAI?$AAR@ 000000018004d4d0     libucrt:lcidtoname_downlevel.obj
 0002:000074e0       ??_C@_1M@KBMAIBFN@?$AAv?$AAi?$AA?9?$AAV?$AAN@ 000000018004d4e0     libucrt:lcidtoname_downlevel.obj
 0002:000074f0       ??_C@_1M@GPCBKDJK@?$AAh?$AAy?$AA?9?$AAA?$AAM@ 000000018004d4f0     libucrt:lcidtoname_downlevel.obj
 0002:00007500       ??_C@_1BG@BECMDDJB@?$AAa?$AAz?$AA?9?$AAA?$AAZ?$AA?9?$AAL?$AAa?$AAt?$AAn@ 000000018004d500     libucrt:lcidtoname_downlevel.obj
 0002:00007518       ??_C@_1M@MAOFCAEA@?$AAe?$AAu?$AA?9?$AAE?$AAS@ 000000018004d518     libucrt:lcidtoname_downlevel.obj
 0002:00007528       ??_C@_1M@IGHABKPI@?$AAm?$AAk?$AA?9?$AAM?$AAK@ 000000018004d528     libucrt:lcidtoname_downlevel.obj
 0002:00007538       ??_C@_1M@IAIGNEJG@?$AAt?$AAn?$AA?9?$AAZ?$AAA@ 000000018004d538     libucrt:lcidtoname_downlevel.obj
 0002:00007548       ??_C@_1M@IIJCOJFA@?$AAx?$AAh?$AA?9?$AAZ?$AAA@ 000000018004d548     libucrt:lcidtoname_downlevel.obj
 0002:00007558       ??_C@_1M@LGPJHNJH@?$AAz?$AAu?$AA?9?$AAZ?$AAA@ 000000018004d558     libucrt:lcidtoname_downlevel.obj
 0002:00007568       ??_C@_1M@HOKAOIO@?$AAa?$AAf?$AA?9?$AAZ?$AAA@ 000000018004d568     libucrt:lcidtoname_downlevel.obj
 0002:00007578       ??_C@_1M@DPCLHLIE@?$AAk?$AAa?$AA?9?$AAG?$AAE@ 000000018004d578     libucrt:lcidtoname_downlevel.obj
 0002:00007588       ??_C@_1M@BLKMHJBI@?$AAf?$AAo?$AA?9?$AAF?$AAO@ 000000018004d588     libucrt:lcidtoname_downlevel.obj
 0002:00007598       ??_C@_1M@LGGJAPPB@?$AAh?$AAi?$AA?9?$AAI?$AAN@ 000000018004d598     libucrt:lcidtoname_downlevel.obj
 0002:000075a8       ??_C@_1M@FIKPIHFE@?$AAm?$AAt?$AA?9?$AAM?$AAT@ 000000018004d5a8     libucrt:lcidtoname_downlevel.obj
 0002:000075b8       ??_C@_1M@HEGGPBFA@?$AAs?$AAe?$AA?9?$AAN?$AAO@ 000000018004d5b8     libucrt:lcidtoname_downlevel.obj
 0002:000075c8       ??_C@_1M@EIBJEEPA@?$AAm?$AAs?$AA?9?$AAM?$AAY@ 000000018004d5c8     libucrt:lcidtoname_downlevel.obj
 0002:000075d8       ??_C@_1M@FHLBGMPP@?$AAk?$AAk?$AA?9?$AAK?$AAZ@ 000000018004d5d8     libucrt:lcidtoname_downlevel.obj
 0002:000075e8       ??_C@_1M@NGJJLCGI@?$AAk?$AAy?$AA?9?$AAK?$AAG@ 000000018004d5e8     libucrt:lcidtoname_downlevel.obj
 0002:000075f8       ??_C@_1M@GIENNBFC@?$AAs?$AAw?$AA?9?$AAK?$AAE@ 000000018004d5f8     libucrt:lcidtoname_downlevel.obj
 0002:00007608       ??_C@_1BG@NDGMJIMJ@?$AAu?$AAz?$AA?9?$AAU?$AAZ?$AA?9?$AAL?$AAa?$AAt?$AAn@ 000000018004d608     libucrt:lcidtoname_downlevel.obj
 0002:00007620       ??_C@_1M@IDCCIHBC@?$AAt?$AAt?$AA?9?$AAR?$AAU@ 000000018004d620     libucrt:lcidtoname_downlevel.obj
 0002:00007630       ??_C@_1M@LOICPMOJ@?$AAb?$AAn?$AA?9?$AAI?$AAN@ 000000018004d630     libucrt:lcidtoname_downlevel.obj
 0002:00007640       ??_C@_1M@KPKKNEAH@?$AAp?$AAa?$AA?9?$AAI?$AAN@ 000000018004d640     libucrt:lcidtoname_downlevel.obj
 0002:00007650       ??_C@_1M@PJGPPBOG@?$AAg?$AAu?$AA?9?$AAI?$AAN@ 000000018004d650     libucrt:lcidtoname_downlevel.obj
 0002:00007660       ??_C@_1M@KMKMOPHI@?$AAt?$AAa?$AA?9?$AAI?$AAN@ 000000018004d660     libucrt:lcidtoname_downlevel.obj
 0002:00007670       ??_C@_1M@KFEHEPAC@?$AAt?$AAe?$AA?9?$AAI?$AAN@ 000000018004d670     libucrt:lcidtoname_downlevel.obj
 0002:00007680       ??_C@_1M@CDCLMGHI@?$AAk?$AAn?$AA?9?$AAI?$AAN@ 000000018004d680     libucrt:lcidtoname_downlevel.obj
 0002:00007690       ??_C@_1M@MIODLDKF@?$AAm?$AAl?$AA?9?$AAI?$AAN@ 000000018004d690     libucrt:lcidtoname_downlevel.obj
 0002:000076a0       ??_C@_1M@PBIEACPO@?$AAm?$AAr?$AA?9?$AAI?$AAN@ 000000018004d6a0     libucrt:lcidtoname_downlevel.obj
 0002:000076b0       ??_C@_1M@NIDEAGPH@?$AAs?$AAa?$AA?9?$AAI?$AAN@ 000000018004d6b0     libucrt:lcidtoname_downlevel.obj
 0002:000076c0       ??_C@_1M@FHIHCBIO@?$AAm?$AAn?$AA?9?$AAM?$AAN@ 000000018004d6c0     libucrt:lcidtoname_downlevel.obj
 0002:000076d0       ??_C@_1M@JAIJPENP@?$AAc?$AAy?$AA?9?$AAG?$AAB@ 000000018004d6d0     libucrt:lcidtoname_downlevel.obj
 0002:000076e0       ??_C@_1M@PHGFBEPN@?$AAg?$AAl?$AA?9?$AAE?$AAS@ 000000018004d6e0     libucrt:lcidtoname_downlevel.obj
 0002:000076f0       ??_C@_1O@KPIPDNCP@?$AAk?$AAo?$AAk?$AA?9?$AAI?$AAN@ 000000018004d6f0     libucrt:lcidtoname_downlevel.obj
 0002:00007700       ??_C@_1O@KNHJLDJA@?$AAs?$AAy?$AAr?$AA?9?$AAS?$AAY@ 000000018004d700     libucrt:lcidtoname_downlevel.obj
 0002:00007710       ??_C@_1O@MKEKBLAH@?$AAd?$AAi?$AAv?$AA?9?$AAM?$AAV@ 000000018004d710     libucrt:lcidtoname_downlevel.obj
 0002:00007720       ??_C@_1O@OHDCKDDF@?$AAq?$AAu?$AAz?$AA?9?$AAB?$AAO@ 000000018004d720     libucrt:lcidtoname_downlevel.obj
 0002:00007730       ??_C@_1M@LEPJNLFD@?$AAn?$AAs?$AA?9?$AAZ?$AAA@ 000000018004d730     libucrt:lcidtoname_downlevel.obj
 0002:00007740       ??_C@_1M@OMLEIIJB@?$AAm?$AAi?$AA?9?$AAN?$AAZ@ 000000018004d740     libucrt:lcidtoname_downlevel.obj
 0002:00007750       ??_C@_1M@PMPEAILG@?$AAa?$AAr?$AA?9?$AAI?$AAQ@ 000000018004d750     libucrt:lcidtoname_downlevel.obj
 0002:00007760       ??_C@_1M@CNKPNOEE@?$AAd?$AAe?$AA?9?$AAC?$AAH@ 000000018004d760     libucrt:lcidtoname_downlevel.obj
 0002:00007770       ??_C@_1M@LKMGMLKO@?$AAe?$AAn?$AA?9?$AAG?$AAB@ 000000018004d770     libucrt:lcidtoname_downlevel.obj
 0002:00007780       ??_C@_1M@PGKJFFGL@?$AAe?$AAs?$AA?9?$AAM?$AAX@ 000000018004d780     libucrt:lcidtoname_downlevel.obj
 0002:00007790       ??_C@_1M@DNNANBDC@?$AAf?$AAr?$AA?9?$AAB?$AAE@ 000000018004d790     libucrt:lcidtoname_downlevel.obj
 0002:000077a0       ??_C@_1M@HLGMDFHM@?$AAi?$AAt?$AA?9?$AAC?$AAH@ 000000018004d7a0     libucrt:lcidtoname_downlevel.obj
 0002:000077b0       ??_C@_1M@CLLBGJH@?$AAn?$AAl?$AA?9?$AAB?$AAE@ 000000018004d7b0     libucrt:lcidtoname_downlevel.obj
 0002:000077c0       ??_C@_1M@BODBOGLF@?$AAn?$AAn?$AA?9?$AAN?$AAO@ 000000018004d7c0     libucrt:lcidtoname_downlevel.obj
 0002:000077d0       ??_C@_1M@HFFAHKAD@?$AAp?$AAt?$AA?9?$AAP?$AAT@ 000000018004d7d0     libucrt:lcidtoname_downlevel.obj
 0002:000077e0       ??_C@_1BG@LNOAKHIE@?$AAs?$AAr?$AA?9?$AAS?$AAP?$AA?9?$AAL?$AAa?$AAt?$AAn@ 000000018004d7e0     libucrt:lcidtoname_downlevel.obj
 0002:000077f8       ??_C@_1M@HBMHBGAK@?$AAs?$AAv?$AA?9?$AAF?$AAI@ 000000018004d7f8     libucrt:lcidtoname_downlevel.obj
 0002:00007808       ??_C@_1BG@DGCJGJBE@?$AAa?$AAz?$AA?9?$AAA?$AAZ?$AA?9?$AAC?$AAy?$AAr?$AAl@ 000000018004d808     libucrt:lcidtoname_downlevel.obj
 0002:00007820       ??_C@_1M@KEJDAAHB@?$AAs?$AAe?$AA?9?$AAS?$AAE@ 000000018004d820     libucrt:lcidtoname_downlevel.obj
 0002:00007830       ??_C@_1M@HEIBJJAD@?$AAm?$AAs?$AA?9?$AAB?$AAN@ 000000018004d830     libucrt:lcidtoname_downlevel.obj
 0002:00007840       ??_C@_1BG@PBGJMCEM@?$AAu?$AAz?$AA?9?$AAU?$AAZ?$AA?9?$AAC?$AAy?$AAr?$AAl@ 000000018004d840     libucrt:lcidtoname_downlevel.obj
 0002:00007858       ??_C@_1O@LAOBCMDF@?$AAq?$AAu?$AAz?$AA?9?$AAE?$AAC@ 000000018004d858     libucrt:lcidtoname_downlevel.obj
 0002:00007868       ??_C@_1M@POEEMAIO@?$AAa?$AAr?$AA?9?$AAE?$AAG@ 000000018004d868     libucrt:lcidtoname_downlevel.obj
 0002:00007878       ??_C@_1M@EFAKDEDL@?$AAz?$AAh?$AA?9?$AAH?$AAK@ 000000018004d878     libucrt:lcidtoname_downlevel.obj
 0002:00007888       ??_C@_1M@HKKIJHGI@?$AAd?$AAe?$AA?9?$AAA?$AAT@ 000000018004d888     libucrt:lcidtoname_downlevel.obj
 0002:00007898       ??_C@_1M@KBFBEHJF@?$AAe?$AAn?$AA?9?$AAA?$AAU@ 000000018004d898     libucrt:lcidtoname_downlevel.obj
 0002:000078a8       ??_C@_1M@MNPLFAAH@?$AAe?$AAs?$AA?9?$AAE?$AAS@ 000000018004d8a8     libucrt:lcidtoname_downlevel.obj
 0002:000078b8       ??_C@_1M@HJOOJFMA@?$AAf?$AAr?$AA?9?$AAC?$AAA@ 000000018004d8b8     libucrt:lcidtoname_downlevel.obj
 0002:000078c8       ??_C@_1BG@JPOFPNAB@?$AAs?$AAr?$AA?9?$AAS?$AAP?$AA?9?$AAC?$AAy?$AAr?$AAl@ 000000018004d8c8     libucrt:lcidtoname_downlevel.obj
 0002:000078e0       ??_C@_1M@LNFOCMOB@?$AAs?$AAe?$AA?9?$AAF?$AAI@ 000000018004d8e0     libucrt:lcidtoname_downlevel.obj
 0002:000078f0       ??_C@_1O@MGJBOAMB@?$AAq?$AAu?$AAz?$AA?9?$AAP?$AAE@ 000000018004d8f0     libucrt:lcidtoname_downlevel.obj
 0002:00007900       ??_C@_1M@GJINLBOK@?$AAa?$AAr?$AA?9?$AAL?$AAY@ 000000018004d900     libucrt:lcidtoname_downlevel.obj
 0002:00007910       ??_C@_1M@GGMNHJNL@?$AAz?$AAh?$AA?9?$AAS?$AAG@ 000000018004d910     libucrt:lcidtoname_downlevel.obj
 0002:00007920       ??_C@_1M@HOIKODND@?$AAd?$AAe?$AA?9?$AAL?$AAU@ 000000018004d920     libucrt:lcidtoname_downlevel.obj
 0002:00007930       ??_C@_1M@DDOCCGFG@?$AAe?$AAn?$AA?9?$AAC?$AAA@ 000000018004d930     libucrt:lcidtoname_downlevel.obj
 0002:00007940       ??_C@_1M@BNOEMJLF@?$AAe?$AAs?$AA?9?$AAG?$AAT@ 000000018004d940     libucrt:lcidtoname_downlevel.obj
 0002:00007950       ??_C@_1M@EOGNKEK@?$AAf?$AAr?$AA?9?$AAC?$AAH@ 000000018004d950     libucrt:lcidtoname_downlevel.obj
 0002:00007960       ??_C@_1M@FLIDJFHL@?$AAh?$AAr?$AA?9?$AAB?$AAA@ 000000018004d960     libucrt:lcidtoname_downlevel.obj
 0002:00007970       ??_C@_1O@FMCELNAJ@?$AAs?$AAm?$AAj?$AA?9?$AAN?$AAO@ 000000018004d970     libucrt:lcidtoname_downlevel.obj
 0002:00007980       ??_C@_1M@JHGLJMGJ@?$AAa?$AAr?$AA?9?$AAD?$AAZ@ 000000018004d980     libucrt:lcidtoname_downlevel.obj
 0002:00007990       ??_C@_1M@JKKFDCNP@?$AAz?$AAh?$AA?9?$AAM?$AAO@ 000000018004d990     libucrt:lcidtoname_downlevel.obj
 0002:000079a0       ??_C@_1M@GEEFALPE@?$AAd?$AAe?$AA?9?$AAL?$AAI@ 000000018004d9a0     libucrt:lcidtoname_downlevel.obj
 0002:000079b0       ??_C@_1M@IGEOFBG@?$AAe?$AAn?$AA?9?$AAN?$AAZ@ 000000018004d9b0     libucrt:lcidtoname_downlevel.obj
 0002:000079c0       ??_C@_1M@KDBONEHP@?$AAe?$AAs?$AA?9?$AAC?$AAR@ 000000018004d9c0     libucrt:lcidtoname_downlevel.obj
 0002:000079d0       ??_C@_1M@FHMDOHNN@?$AAf?$AAr?$AA?9?$AAL?$AAU@ 000000018004d9d0     libucrt:lcidtoname_downlevel.obj
 0002:000079e0       ??_C@_1BG@NFKKMAFG@?$AAb?$AAs?$AA?9?$AAB?$AAA?$AA?9?$AAL?$AAa?$AAt?$AAn@ 000000018004d9e0     libucrt:lcidtoname_downlevel.obj
 0002:000079f8       ??_C@_1O@IMNBEMCI@?$AAs?$AAm?$AAj?$AA?9?$AAS?$AAE@ 000000018004d9f8     libucrt:lcidtoname_downlevel.obj
 0002:00007a08       ??_C@_1M@DHHMBNDP@?$AAa?$AAr?$AA?9?$AAM?$AAA@ 000000018004da08     libucrt:lcidtoname_downlevel.obj
 0002:00007a18       ??_C@_1M@BNBLJCGH@?$AAe?$AAn?$AA?9?$AAI?$AAE@ 000000018004da18     libucrt:lcidtoname_downlevel.obj
 0002:00007a28       ??_C@_1M@GEPAFMDL@?$AAe?$AAs?$AA?9?$AAP?$AAA@ 000000018004da28     libucrt:lcidtoname_downlevel.obj
 0002:00007a38       ??_C@_1M@OJONDMDL@?$AAf?$AAr?$AA?9?$AAM?$AAC@ 000000018004da38     libucrt:lcidtoname_downlevel.obj
 0002:00007a48       ??_C@_1BG@OBCNFJB@?$AAs?$AAr?$AA?9?$AAB?$AAA?$AA?9?$AAL?$AAa?$AAt?$AAn@ 000000018004da48     libucrt:lcidtoname_downlevel.obj
 0002:00007a60       ??_C@_1O@KEMEEGPO@?$AAs?$AAm?$AAa?$AA?9?$AAN?$AAO@ 000000018004da60     libucrt:lcidtoname_downlevel.obj
 0002:00007a70       ??_C@_1M@ELMGFODK@?$AAa?$AAr?$AA?9?$AAT?$AAN@ 000000018004da70     libucrt:lcidtoname_downlevel.obj
 0002:00007a80       ??_C@_1M@BHDLHFAF@?$AAe?$AAn?$AA?9?$AAZ?$AAA@ 000000018004da80     libucrt:lcidtoname_downlevel.obj
 0002:00007a90       ??_C@_1M@BMGIGLIF@?$AAe?$AAs?$AA?9?$AAD?$AAO@ 000000018004da90     libucrt:lcidtoname_downlevel.obj
 0002:00007aa0       ??_C@_1BG@CMBHIPBE@?$AAs?$AAr?$AA?9?$AAB?$AAA?$AA?9?$AAC?$AAy?$AAr?$AAl@ 000000018004daa0     libucrt:lcidtoname_downlevel.obj
 0002:00007ab8       ??_C@_1O@HEDBLHNP@?$AAs?$AAm?$AAa?$AA?9?$AAS?$AAE@ 000000018004dab8     libucrt:lcidtoname_downlevel.obj
 0002:00007ac8       ??_C@_1M@DAGCADIM@?$AAa?$AAr?$AA?9?$AAO?$AAM@ 000000018004dac8     libucrt:lcidtoname_downlevel.obj
 0002:00007ad8       ??_C@_1M@FODLMICG@?$AAe?$AAn?$AA?9?$AAJ?$AAM@ 000000018004dad8     libucrt:lcidtoname_downlevel.obj
 0002:00007ae8       ??_C@_1M@DNMLCIHB@?$AAe?$AAs?$AA?9?$AAV?$AAE@ 000000018004dae8     libucrt:lcidtoname_downlevel.obj
 0002:00007af8       ??_C@_1O@EOKHMKJK@?$AAs?$AAm?$AAs?$AA?9?$AAF?$AAI@ 000000018004daf8     libucrt:lcidtoname_downlevel.obj
 0002:00007b08       ??_C@_1M@CAFJMKOF@?$AAa?$AAr?$AA?9?$AAY?$AAE@ 000000018004db08     libucrt:lcidtoname_downlevel.obj
 0002:00007b18       ??_C@_1M@CBFHIJLI@?$AAe?$AAn?$AA?9?$AAC?$AAB@ 000000018004db18     libucrt:lcidtoname_downlevel.obj
 0002:00007b28       ??_C@_1M@BGNFLDN@?$AAe?$AAs?$AA?9?$AAC?$AAO@ 000000018004db28     libucrt:lcidtoname_downlevel.obj
 0002:00007b38       ??_C@_1O@JMPHMAMC@?$AAs?$AAm?$AAn?$AA?9?$AAF?$AAI@ 000000018004db38     libucrt:lcidtoname_downlevel.obj
 0002:00007b48       ??_C@_1M@JLANABKE@?$AAa?$AAr?$AA?9?$AAS?$AAY@ 000000018004db48     libucrt:lcidtoname_downlevel.obj
 0002:00007b58       ??_C@_1M@HPKGCFGN@?$AAe?$AAn?$AA?9?$AAB?$AAZ@ 000000018004db58     libucrt:lcidtoname_downlevel.obj
 0002:00007b68       ??_C@_1M@OLJCMLGM@?$AAe?$AAs?$AA?9?$AAP?$AAE@ 000000018004db68     libucrt:lcidtoname_downlevel.obj
 0002:00007b78       ??_C@_1M@MKKGFKLE@?$AAa?$AAr?$AA?9?$AAJ?$AAO@ 000000018004db78     libucrt:lcidtoname_downlevel.obj
 0002:00007b88       ??_C@_1M@EKPGLDNI@?$AAe?$AAn?$AA?9?$AAT?$AAT@ 000000018004db88     libucrt:lcidtoname_downlevel.obj
 0002:00007b98       ??_C@_1M@OONGHFHE@?$AAe?$AAs?$AA?9?$AAA?$AAR@ 000000018004db98     libucrt:lcidtoname_downlevel.obj
 0002:00007ba8       ??_C@_1M@OOJFGBHE@?$AAa?$AAr?$AA?9?$AAL?$AAB@ 000000018004dba8     libucrt:lcidtoname_downlevel.obj
 0002:00007bb8       ??_C@_1M@GCEJHNEG@?$AAe?$AAn?$AA?9?$AAZ?$AAW@ 000000018004dbb8     libucrt:lcidtoname_downlevel.obj
 0002:00007bc8       ??_C@_1M@JNOCAHJI@?$AAe?$AAs?$AA?9?$AAE?$AAC@ 000000018004dbc8     libucrt:lcidtoname_downlevel.obj
 0002:00007bd8       ??_C@_1M@JEFHPGGB@?$AAa?$AAr?$AA?9?$AAK?$AAW@ 000000018004dbd8     libucrt:lcidtoname_downlevel.obj
 0002:00007be8       ??_C@_1M@MLKIBJOJ@?$AAe?$AAn?$AA?9?$AAP?$AAH@ 000000018004dbe8     libucrt:lcidtoname_downlevel.obj
 0002:00007bf8       ??_C@_1M@BDNIPEND@?$AAe?$AAs?$AA?9?$AAC?$AAL@ 000000018004dbf8     libucrt:lcidtoname_downlevel.obj
 0002:00007c08       ??_C@_1M@MPNMEKBD@?$AAa?$AAr?$AA?9?$AAA?$AAE@ 000000018004dc08     libucrt:lcidtoname_downlevel.obj
 0002:00007c18       ??_C@_1M@KBJALCPI@?$AAe?$AAs?$AA?9?$AAU?$AAY@ 000000018004dc18     libucrt:lcidtoname_downlevel.obj
 0002:00007c28       ??_C@_1M@LLCCOAGA@?$AAa?$AAr?$AA?9?$AAB?$AAH@ 000000018004dc28     libucrt:lcidtoname_downlevel.obj
 0002:00007c38       ??_C@_1M@PBFNCDEL@?$AAe?$AAs?$AA?9?$AAP?$AAY@ 000000018004dc38     libucrt:lcidtoname_downlevel.obj
 0002:00007c48       ??_C@_1M@EDGINPNP@?$AAa?$AAr?$AA?9?$AAQ?$AAA@ 000000018004dc48     libucrt:lcidtoname_downlevel.obj
 0002:00007c58       ??_C@_1M@MKDBIIJI@?$AAe?$AAs?$AA?9?$AAB?$AAO@ 000000018004dc58     libucrt:lcidtoname_downlevel.obj
 0002:00007c68       ??_C@_1M@CPKKEBLD@?$AAe?$AAs?$AA?9?$AAS?$AAV@ 000000018004dc68     libucrt:lcidtoname_downlevel.obj
 0002:00007c78       ??_C@_1M@NDBGMMJL@?$AAe?$AAs?$AA?9?$AAH?$AAN@ 000000018004dc78     libucrt:lcidtoname_downlevel.obj
 0002:00007c88       ??_C@_1M@JIJIBHDP@?$AAe?$AAs?$AA?9?$AAN?$AAI@ 000000018004dc88     libucrt:lcidtoname_downlevel.obj
 0002:00007c98       ??_C@_1M@CGFMKEEK@?$AAe?$AAs?$AA?9?$AAP?$AAR@ 000000018004dc98     libucrt:lcidtoname_downlevel.obj
 0002:00007ca8       ??_C@_1O@ICJHKIIK@?$AAz?$AAh?$AA?9?$AAC?$AAH?$AAT@ 000000018004dca8     libucrt:lcidtoname_downlevel.obj
 0002:00007cb8       ??_C@_15CLNEJCE@?$AAs?$AAr@ 000000018004dcb8     libucrt:lcidtoname_downlevel.obj
 0002:00008b00       ??_C@_1M@KAHEKEIG@?$AAa?$AAf?$AA?9?$AAz?$AAa@ 000000018004eb00     libucrt:lcidtoname_downlevel.obj
 0002:00008b10       ??_C@_1M@GIECOABL@?$AAa?$AAr?$AA?9?$AAa?$AAe@ 000000018004eb10     libucrt:lcidtoname_downlevel.obj
 0002:00008b20       ??_C@_1M@BMLMEKGI@?$AAa?$AAr?$AA?9?$AAb?$AAh@ 000000018004eb20     libucrt:lcidtoname_downlevel.obj
 0002:00008b30       ??_C@_1M@DAPFDGGB@?$AAa?$AAr?$AA?9?$AAd?$AAz@ 000000018004eb30     libucrt:lcidtoname_downlevel.obj
 0002:00008b40       ??_C@_1M@FJNKGKIG@?$AAa?$AAr?$AA?9?$AAe?$AAg@ 000000018004eb40     libucrt:lcidtoname_downlevel.obj
 0002:00008b50       ??_C@_1M@FLGKKCLO@?$AAa?$AAr?$AA?9?$AAi?$AAq@ 000000018004eb50     libucrt:lcidtoname_downlevel.obj
 0002:00008b60       ??_C@_1M@GNDIPALM@?$AAa?$AAr?$AA?9?$AAj?$AAo@ 000000018004eb60     libucrt:lcidtoname_downlevel.obj
 0002:00008b70       ??_C@_1M@DDMJFMGJ@?$AAa?$AAr?$AA?9?$AAk?$AAw@ 000000018004eb70     libucrt:lcidtoname_downlevel.obj
 0002:00008b80       ??_C@_1M@EJALMLHM@?$AAa?$AAr?$AA?9?$AAl?$AAb@ 000000018004eb80     libucrt:lcidtoname_downlevel.obj
 0002:00008b90       ??_C@_1M@MOBDBLOC@?$AAa?$AAr?$AA?9?$AAl?$AAy@ 000000018004eb90     libucrt:lcidtoname_downlevel.obj
 0002:00008ba0       ??_C@_1M@JAOCLHDH@?$AAa?$AAr?$AA?9?$AAm?$AAa@ 000000018004eba0     libucrt:lcidtoname_downlevel.obj
 0002:00008bb0       ??_C@_1M@JHPMKJIE@?$AAa?$AAr?$AA?9?$AAo?$AAm@ 000000018004ebb0     libucrt:lcidtoname_downlevel.obj
 0002:00008bc0       ??_C@_1M@OEPGHFNH@?$AAa?$AAr?$AA?9?$AAq?$AAa@ 000000018004ebc0     libucrt:lcidtoname_downlevel.obj
 0002:00008bd0       ??_C@_1M@KJDONENM@?$AAa?$AAr?$AA?9?$AAs?$AAa@ 000000018004ebd0     libucrt:lcidtoname_downlevel.obj
 0002:00008be0       ??_C@_1M@DMJDKLKM@?$AAa?$AAr?$AA?9?$AAs?$AAy@ 000000018004ebe0     libucrt:lcidtoname_downlevel.obj
 0002:00008bf0       ??_C@_1M@OMFIPEDC@?$AAa?$AAr?$AA?9?$AAt?$AAn@ 000000018004ebf0     libucrt:lcidtoname_downlevel.obj
 0002:00008c00       ??_C@_1M@IHMHGAON@?$AAa?$AAr?$AA?9?$AAy?$AAe@ 000000018004ec00     libucrt:lcidtoname_downlevel.obj
 0002:00008c10       ??_C@_1BG@KDCPGJGB@?$AAa?$AAz?$AA?9?$AAa?$AAz?$AA?9?$AAc?$AAy?$AAr?$AAl@ 000000018004ec10     libucrt:lcidtoname_downlevel.obj
 0002:00008c28       ??_C@_1BG@IBCKDDOE@?$AAa?$AAz?$AA?9?$AAa?$AAz?$AA?9?$AAl?$AAa?$AAt?$AAn@ 000000018004ec28     libucrt:lcidtoname_downlevel.obj
 0002:00008c40       ??_C@_1M@EGPFDCPD@?$AAb?$AAe?$AA?9?$AAb?$AAy@ 000000018004ec40     libucrt:lcidtoname_downlevel.obj
 0002:00008c50       ??_C@_1M@PCMGMCGC@?$AAb?$AAg?$AA?9?$AAb?$AAg@ 000000018004ec50     libucrt:lcidtoname_downlevel.obj
 0002:00008c60       ??_C@_1M@BJBMFGOB@?$AAb?$AAn?$AA?9?$AAi?$AAn@ 000000018004ec60     libucrt:lcidtoname_downlevel.obj
 0002:00008c70       ??_C@_1BG@EAKMMACD@?$AAb?$AAs?$AA?9?$AAb?$AAa?$AA?9?$AAl?$AAa?$AAt?$AAn@ 000000018004ec70     libucrt:lcidtoname_downlevel.obj
 0002:00008c88       ??_C@_1M@KGADAODK@?$AAc?$AAa?$AA?9?$AAe?$AAs@ 000000018004ec88     libucrt:lcidtoname_downlevel.obj
 0002:00008c98       ??_C@_1M@COAJPDHI@?$AAc?$AAs?$AA?9?$AAc?$AAz@ 000000018004ec98     libucrt:lcidtoname_downlevel.obj
 0002:00008ca8       ??_C@_1M@DHBHFONH@?$AAc?$AAy?$AA?9?$AAg?$AAb@ 000000018004eca8     libucrt:lcidtoname_downlevel.obj
 0002:00008cb8       ??_C@_1M@IMGKELGA@?$AAd?$AAa?$AA?9?$AAd?$AAk@ 000000018004ecb8     libucrt:lcidtoname_downlevel.obj
 0002:00008cc8       ??_C@_1M@NNDGDNGA@?$AAd?$AAe?$AA?9?$AAa?$AAt@ 000000018004ecc8     libucrt:lcidtoname_downlevel.obj
 0002:00008cd8       ??_C@_1M@IKDBHEEM@?$AAd?$AAe?$AA?9?$AAc?$AAh@ 000000018004ecd8     libucrt:lcidtoname_downlevel.obj
 0002:00008ce8       ??_C@_1M@GFFOJMCJ@?$AAd?$AAe?$AA?9?$AAd?$AAe@ 000000018004ece8     libucrt:lcidtoname_downlevel.obj
 0002:00008cf8       ??_C@_1M@MDNLKBPM@?$AAd?$AAe?$AA?9?$AAl?$AAi@ 000000018004ecf8     libucrt:lcidtoname_downlevel.obj
 0002:00008d08       ??_C@_1M@NJBEEJNL@?$AAd?$AAe?$AA?9?$AAl?$AAu@ 000000018004ed08     libucrt:lcidtoname_downlevel.obj
 0002:00008d18       ??_C@_1O@GNNELBAP@?$AAd?$AAi?$AAv?$AA?9?$AAm?$AAv@ 000000018004ed18     libucrt:lcidtoname_downlevel.obj
 0002:00008d28       ??_C@_1M@EJLEOGAE@?$AAe?$AAl?$AA?9?$AAg?$AAr@ 000000018004ed28     libucrt:lcidtoname_downlevel.obj
 0002:00008d38       ??_C@_1M@GMPONJN@?$AAe?$AAn?$AA?9?$AAa?$AAu@ 000000018004ed38     libucrt:lcidtoname_downlevel.obj
 0002:00008d48       ??_C@_1M@NIDIIPGF@?$AAe?$AAn?$AA?9?$AAb?$AAz@ 000000018004ed48     libucrt:lcidtoname_downlevel.obj
 0002:00008d58       ??_C@_1M@JEHMIMFO@?$AAe?$AAn?$AA?9?$AAc?$AAa@ 000000018004ed58     libucrt:lcidtoname_downlevel.obj
 0002:00008d68       ??_C@_1M@IGMJCDLA@?$AAe?$AAn?$AA?9?$AAc?$AAb@ 000000018004ed68     libucrt:lcidtoname_downlevel.obj
 0002:00008d78       ??_C@_1M@BNFIGBKG@?$AAe?$AAn?$AA?9?$AAg?$AAb@ 000000018004ed78     libucrt:lcidtoname_downlevel.obj
 0002:00008d88       ??_C@_1M@LKIFDIGP@?$AAe?$AAn?$AA?9?$AAi?$AAe@ 000000018004ed88     libucrt:lcidtoname_downlevel.obj
 0002:00008d98       ??_C@_1M@PJKFGCCO@?$AAe?$AAn?$AA?9?$AAj?$AAm@ 000000018004ed98     libucrt:lcidtoname_downlevel.obj
 0002:00008da8       ??_C@_1M@KPPKEPBO@?$AAe?$AAn?$AA?9?$AAn?$AAz@ 000000018004eda8     libucrt:lcidtoname_downlevel.obj
 0002:00008db8       ??_C@_1M@GMDGLDOB@?$AAe?$AAn?$AA?9?$AAp?$AAh@ 000000018004edb8     libucrt:lcidtoname_downlevel.obj
 0002:00008dc8       ??_C@_1M@ONGIBJNA@?$AAe?$AAn?$AA?9?$AAt?$AAt@ 000000018004edc8     libucrt:lcidtoname_downlevel.obj
 0002:00008dd8       ??_C@_1M@LLODPCMM@?$AAe?$AAn?$AA?9?$AAu?$AAs@ 000000018004edd8     libucrt:lcidtoname_downlevel.obj
 0002:00008de8       ??_C@_1M@LAKFNPAN@?$AAe?$AAn?$AA?9?$AAz?$AAa@ 000000018004ede8     libucrt:lcidtoname_downlevel.obj
 0002:00008df8       ??_C@_1M@MFNHNHEO@?$AAe?$AAn?$AA?9?$AAz?$AAw@ 000000018004edf8     libucrt:lcidtoname_downlevel.obj
 0002:00008e08       ??_C@_1M@EJEINPHM@?$AAe?$AAs?$AA?9?$AAa?$AAr@ 000000018004ee08     libucrt:lcidtoname_downlevel.obj
 0002:00008e18       ??_C@_1M@GNKPCCJA@?$AAe?$AAs?$AA?9?$AAb?$AAo@ 000000018004ee18     libucrt:lcidtoname_downlevel.obj
 0002:00008e28       ??_C@_1M@LEEGFONL@?$AAe?$AAs?$AA?9?$AAc?$AAl@ 000000018004ee28     libucrt:lcidtoname_downlevel.obj
 0002:00008e38       ??_C@_1M@KGPDPBDF@?$AAe?$AAs?$AA?9?$AAc?$AAo@ 000000018004ee38     libucrt:lcidtoname_downlevel.obj
 0002:00008e48       ??_C@_1M@EIAHOHH@?$AAe?$AAs?$AA?9?$AAc?$AAr@ 000000018004ee48     libucrt:lcidtoname_downlevel.obj
 0002:00008e58       ??_C@_1M@LLPGMBIN@?$AAe?$AAs?$AA?9?$AAd?$AAo@ 000000018004ee58     libucrt:lcidtoname_downlevel.obj
 0002:00008e68       ??_C@_1M@DKHMKNJA@?$AAe?$AAs?$AA?9?$AAe?$AAc@ 000000018004ee68     libucrt:lcidtoname_downlevel.obj
 0002:00008e78       ??_C@_1M@GKGFPKAP@?$AAe?$AAs?$AA?9?$AAe?$AAs@ 000000018004ee78     libucrt:lcidtoname_downlevel.obj
 0002:00008e88       ??_C@_1M@LKHKGDLN@?$AAe?$AAs?$AA?9?$AAg?$AAt@ 000000018004ee88     libucrt:lcidtoname_downlevel.obj
 0002:00008e98       ??_C@_1M@HEIIGGJD@?$AAe?$AAs?$AA?9?$AAh?$AAn@ 000000018004ee98     libucrt:lcidtoname_downlevel.obj
 0002:00008ea8       ??_C@_1M@FBDHPPGD@?$AAe?$AAs?$AA?9?$AAm?$AAx@ 000000018004eea8     libucrt:lcidtoname_downlevel.obj
 0002:00008eb8       ??_C@_1M@DPAGLNDH@?$AAe?$AAs?$AA?9?$AAn?$AAi@ 000000018004eeb8     libucrt:lcidtoname_downlevel.obj
 0002:00008ec8       ??_C@_1M@MDGOPGDD@?$AAe?$AAs?$AA?9?$AAp?$AAa@ 000000018004eec8     libucrt:lcidtoname_downlevel.obj
 0002:00008ed8       ??_C@_1M@EMAMGBGE@?$AAe?$AAs?$AA?9?$AAp?$AAe@ 000000018004eed8     libucrt:lcidtoname_downlevel.obj
 0002:00008ee8       ??_C@_1M@IBMCAOEC@?$AAe?$AAs?$AA?9?$AAp?$AAr@ 000000018004eee8     libucrt:lcidtoname_downlevel.obj
 0002:00008ef8       ??_C@_1M@FGMDIJED@?$AAe?$AAs?$AA?9?$AAp?$AAy@ 000000018004eef8     libucrt:lcidtoname_downlevel.obj
 0002:00008f08       ??_C@_1M@IIDEOLLL@?$AAe?$AAs?$AA?9?$AAs?$AAv@ 000000018004ef08     libucrt:lcidtoname_downlevel.obj
 0002:00008f18       ??_C@_1M@GAOBIPA@?$AAe?$AAs?$AA?9?$AAu?$AAy@ 000000018004ef18     libucrt:lcidtoname_downlevel.obj
 0002:00008f28       ??_C@_1M@JKFFICHJ@?$AAe?$AAs?$AA?9?$AAv?$AAe@ 000000018004ef28     libucrt:lcidtoname_downlevel.obj
 0002:00008f38       ??_C@_1M@PNMLOJDF@?$AAe?$AAt?$AA?9?$AAe?$AAe@ 000000018004ef38     libucrt:lcidtoname_downlevel.obj
 0002:00008f48       ??_C@_1M@GHHLIKEI@?$AAe?$AAu?$AA?9?$AAe?$AAs@ 000000018004ef48     libucrt:lcidtoname_downlevel.obj
 0002:00008f58       ??_C@_1M@PBNONODE@?$AAf?$AAa?$AA?9?$AAi?$AAr@ 000000018004ef58     libucrt:lcidtoname_downlevel.obj
 0002:00008f68       ??_C@_1M@JEEHPMIL@?$AAf?$AAi?$AA?9?$AAf?$AAi@ 000000018004ef68     libucrt:lcidtoname_downlevel.obj
 0002:00008f78       ??_C@_1M@LMDCNDBA@?$AAf?$AAo?$AA?9?$AAf?$AAo@ 000000018004ef78     libucrt:lcidtoname_downlevel.obj
 0002:00008f88       ??_C@_1M@JKEOHLDK@?$AAf?$AAr?$AA?9?$AAb?$AAe@ 000000018004ef88     libucrt:lcidtoname_downlevel.obj
 0002:00008f98       ??_C@_1M@NOHADPMI@?$AAf?$AAr?$AA?9?$AAc?$AAa@ 000000018004ef98     libucrt:lcidtoname_downlevel.obj
 0002:00008fa8       ??_C@_1M@KDHIHAEC@?$AAf?$AAr?$AA?9?$AAc?$AAh@ 000000018004efa8     libucrt:lcidtoname_downlevel.obj
 0002:00008fb8       ??_C@_1M@MMBBFGAK@?$AAf?$AAr?$AA?9?$AAf?$AAr@ 000000018004efb8     libucrt:lcidtoname_downlevel.obj
 0002:00008fc8       ??_C@_1M@PAFNENNF@?$AAf?$AAr?$AA?9?$AAl?$AAu@ 000000018004efc8     libucrt:lcidtoname_downlevel.obj
 0002:00008fd8       ??_C@_1M@EOHDJGDD@?$AAf?$AAr?$AA?9?$AAm?$AAc@ 000000018004efd8     libucrt:lcidtoname_downlevel.obj
 0002:00008fe8       ??_C@_1M@FAPLLOPF@?$AAg?$AAl?$AA?9?$AAe?$AAs@ 000000018004efe8     libucrt:lcidtoname_downlevel.obj
 0002:00008ff8       ??_C@_1M@FOPBFLOO@?$AAg?$AAu?$AA?9?$AAi?$AAn@ 000000018004eff8     libucrt:lcidtoname_downlevel.obj
 0002:00009008       ??_C@_1M@KBMCINPM@?$AAh?$AAe?$AA?9?$AAi?$AAl@ 000000018004f008     libucrt:lcidtoname_downlevel.obj
 0002:00009018       ??_C@_1M@BBPHKFPJ@?$AAh?$AAi?$AA?9?$AAi?$AAn@ 000000018004f018     libucrt:lcidtoname_downlevel.obj
 0002:00009028       ??_C@_1M@PMBNDPHD@?$AAh?$AAr?$AA?9?$AAb?$AAa@ 000000018004f028     libucrt:lcidtoname_downlevel.obj
 0002:00009038       ??_C@_1M@BPCKOEGE@?$AAh?$AAr?$AA?9?$AAh?$AAr@ 000000018004f038     libucrt:lcidtoname_downlevel.obj
 0002:00009048       ??_C@_1M@GACBMHKE@?$AAh?$AAu?$AA?9?$AAh?$AAu@ 000000018004f048     libucrt:lcidtoname_downlevel.obj
 0002:00009058       ??_C@_1M@MILPAJJC@?$AAh?$AAy?$AA?9?$AAa?$AAm@ 000000018004f058     libucrt:lcidtoname_downlevel.obj
 0002:00009068       ??_C@_1M@BABBICEC@?$AAi?$AAd?$AA?9?$AAi?$AAd@ 000000018004f068     libucrt:lcidtoname_downlevel.obj
 0002:00009078       ??_C@_1M@BIKNHHPF@?$AAi?$AAs?$AA?9?$AAi?$AAs@ 000000018004f078     libucrt:lcidtoname_downlevel.obj
 0002:00009088       ??_C@_1M@NMPCJPHE@?$AAi?$AAt?$AA?9?$AAc?$AAh@ 000000018004f088     libucrt:lcidtoname_downlevel.obj
 0002:00009098       ??_C@_1M@GHKGFEDF@?$AAi?$AAt?$AA?9?$AAi?$AAt@ 000000018004f098     libucrt:lcidtoname_downlevel.obj
 0002:000090a8       ??_C@_1M@NIEJCJJA@?$AAj?$AAa?$AA?9?$AAj?$AAp@ 000000018004f0a8     libucrt:lcidtoname_downlevel.obj
 0002:000090b8       ??_C@_1M@JILFNBIM@?$AAk?$AAa?$AA?9?$AAg?$AAe@ 000000018004f0b8     libucrt:lcidtoname_downlevel.obj
 0002:000090c8       ??_C@_1M@PACPMGPH@?$AAk?$AAk?$AA?9?$AAk?$AAz@ 000000018004f0c8     libucrt:lcidtoname_downlevel.obj
 0002:000090d8       ??_C@_1M@IELFGMHA@?$AAk?$AAn?$AA?9?$AAi?$AAn@ 000000018004f0d8     libucrt:lcidtoname_downlevel.obj
 0002:000090e8       ??_C@_1O@IBBJHCH@?$AAk?$AAo?$AAk?$AA?9?$AAi?$AAn@ 000000018004f0e8     libucrt:lcidtoname_downlevel.obj
 0002:000090f8       ??_C@_1M@DMHAEOGC@?$AAk?$AAo?$AA?9?$AAk?$AAr@ 000000018004f0f8     libucrt:lcidtoname_downlevel.obj
 0002:00009108       ??_C@_1M@HBAHBIGA@?$AAk?$AAy?$AA?9?$AAk?$AAg@ 000000018004f108     libucrt:lcidtoname_downlevel.obj
 0002:00009118       ??_C@_1M@KPMILCJG@?$AAl?$AAt?$AA?9?$AAl?$AAt@ 000000018004f118     libucrt:lcidtoname_downlevel.obj
 0002:00009128       ??_C@_1M@BDEKKCA@?$AAl?$AAv?$AA?9?$AAl?$AAv@ 000000018004f128     libucrt:lcidtoname_downlevel.obj
 0002:00009138       ??_C@_1M@ELCKCCJJ@?$AAm?$AAi?$AA?9?$AAn?$AAz@ 000000018004f138     libucrt:lcidtoname_downlevel.obj
 0002:00009148       ??_C@_1M@CBOOLAPA@?$AAm?$AAk?$AA?9?$AAm?$AAk@ 000000018004f148     libucrt:lcidtoname_downlevel.obj
 0002:00009158       ??_C@_1M@GPHNBJKN@?$AAm?$AAl?$AA?9?$AAi?$AAn@ 000000018004f158     libucrt:lcidtoname_downlevel.obj
 0002:00009168       ??_C@_1M@PABJILIG@?$AAm?$AAn?$AA?9?$AAm?$AAn@ 000000018004f168     libucrt:lcidtoname_downlevel.obj
 0002:00009178       ??_C@_1M@FGBKKIPG@?$AAm?$AAr?$AA?9?$AAi?$AAn@ 000000018004f178     libucrt:lcidtoname_downlevel.obj
 0002:00009188       ??_C@_1M@NDBPDDAL@?$AAm?$AAs?$AA?9?$AAb?$AAn@ 000000018004f188     libucrt:lcidtoname_downlevel.obj
 0002:00009198       ??_C@_1M@OPIHOOPI@?$AAm?$AAs?$AA?9?$AAm?$AAy@ 000000018004f198     libucrt:lcidtoname_downlevel.obj
 0002:000091a8       ??_C@_1M@PPDBCNFM@?$AAm?$AAt?$AA?9?$AAm?$AAt@ 000000018004f1a8     libucrt:lcidtoname_downlevel.obj
 0002:000091b8       ??_C@_1M@KDJDKMDD@?$AAn?$AAb?$AA?9?$AAn?$AAo@ 000000018004f1b8     libucrt:lcidtoname_downlevel.obj
 0002:000091c8       ??_C@_1M@KFCFLMJP@?$AAn?$AAl?$AA?9?$AAb?$AAe@ 000000018004f1c8     libucrt:lcidtoname_downlevel.obj
 0002:000091d8       ??_C@_1M@KPOPDDGO@?$AAn?$AAl?$AA?9?$AAn?$AAl@ 000000018004f1d8     libucrt:lcidtoname_downlevel.obj
 0002:000091e8       ??_C@_1M@LJKPEMLN@?$AAn?$AAn?$AA?9?$AAn?$AAo@ 000000018004f1e8     libucrt:lcidtoname_downlevel.obj
 0002:000091f8       ??_C@_1M@BDGHHBFL@?$AAn?$AAs?$AA?9?$AAz?$AAa@ 000000018004f1f8     libucrt:lcidtoname_downlevel.obj
 0002:00009208       ??_C@_1M@IDEHOAP@?$AAp?$AAa?$AA?9?$AAi?$AAn@ 000000018004f208     libucrt:lcidtoname_downlevel.obj
 0002:00009218       ??_C@_1M@HDBKGOGH@?$AAp?$AAl?$AA?9?$AAp?$AAl@ 000000018004f218     libucrt:lcidtoname_downlevel.obj
 0002:00009228       ??_C@_1M@LJLLCMEH@?$AAp?$AAt?$AA?9?$AAb?$AAr@ 000000018004f228     libucrt:lcidtoname_downlevel.obj
 0002:00009238       ??_C@_1M@NCMONAAL@?$AAp?$AAt?$AA?9?$AAp?$AAt@ 000000018004f238     libucrt:lcidtoname_downlevel.obj
 0002:00009248       ??_C@_1O@EAKMAJDN@?$AAq?$AAu?$AAz?$AA?9?$AAb?$AAo@ 000000018004f248     libucrt:lcidtoname_downlevel.obj
 0002:00009258       ??_C@_1O@BHHPIGDN@?$AAq?$AAu?$AAz?$AA?9?$AAe?$AAc@ 000000018004f258     libucrt:lcidtoname_downlevel.obj
 0002:00009268       ??_C@_1O@GBAPEKMJ@?$AAq?$AAu?$AAz?$AA?9?$AAp?$AAe@ 000000018004f268     libucrt:lcidtoname_downlevel.obj
 0002:00009278       ??_C@_1M@CLGLEFBO@?$AAr?$AAo?$AA?9?$AAr?$AAo@ 000000018004f278     libucrt:lcidtoname_downlevel.obj
 0002:00009288       ??_C@_1M@CEEDODME@?$AAr?$AAu?$AA?9?$AAr?$AAu@ 000000018004f288     libucrt:lcidtoname_downlevel.obj
 0002:00009298       ??_C@_1M@HPKKKMPP@?$AAs?$AAa?$AA?9?$AAi?$AAn@ 000000018004f298     libucrt:lcidtoname_downlevel.obj
 0002:000092a8       ??_C@_1M@BKMAIGOJ@?$AAs?$AAe?$AA?9?$AAf?$AAi@ 000000018004f2a8     libucrt:lcidtoname_downlevel.obj
 0002:000092b8       ??_C@_1M@NDPIFLFI@?$AAs?$AAe?$AA?9?$AAn?$AAo@ 000000018004f2b8     libucrt:lcidtoname_downlevel.obj
 0002:000092c8       ??_C@_1M@DANKKHJ@?$AAs?$AAe?$AA?9?$AAs?$AAe@ 000000018004f2c8     libucrt:lcidtoname_downlevel.obj
 0002:000092d8       ??_C@_1M@PNBLONPJ@?$AAs?$AAk?$AA?9?$AAs?$AAk@ 000000018004f2d8     libucrt:lcidtoname_downlevel.obj
 0002:000092e8       ??_C@_1M@LFMODOAL@?$AAs?$AAl?$AA?9?$AAs?$AAi@ 000000018004f2e8     libucrt:lcidtoname_downlevel.obj
 0002:000092f8       ??_C@_1O@DFKOMPG@?$AAs?$AAm?$AAa?$AA?9?$AAn?$AAo@ 000000018004f2f8     libucrt:lcidtoname_downlevel.obj
 0002:00009308       ??_C@_1O@NDKPBNNH@?$AAs?$AAm?$AAa?$AA?9?$AAs?$AAe@ 000000018004f308     libucrt:lcidtoname_downlevel.obj
 0002:00009318       ??_C@_1O@PLLKBHAB@?$AAs?$AAm?$AAj?$AA?9?$AAn?$AAo@ 000000018004f318     libucrt:lcidtoname_downlevel.obj
 0002:00009328       ??_C@_1O@CLEPOGCA@?$AAs?$AAm?$AAj?$AA?9?$AAs?$AAe@ 000000018004f328     libucrt:lcidtoname_downlevel.obj
 0002:00009338       ??_C@_1O@DLGJGKMK@?$AAs?$AAm?$AAn?$AA?9?$AAf?$AAi@ 000000018004f338     libucrt:lcidtoname_downlevel.obj
 0002:00009348       ??_C@_1O@OJDJGAJC@?$AAs?$AAm?$AAs?$AA?9?$AAf?$AAi@ 000000018004f348     libucrt:lcidtoname_downlevel.obj
 0002:00009358       ??_C@_1M@BOFOGHPB@?$AAs?$AAq?$AA?9?$AAa?$AAl@ 000000018004f358     libucrt:lcidtoname_downlevel.obj
 0002:00009368       ??_C@_1BG@LJBBIPGB@?$AAs?$AAr?$AA?9?$AAb?$AAa?$AA?9?$AAc?$AAy?$AAr?$AAl@ 000000018004f368     libucrt:lcidtoname_downlevel.obj
 0002:00009380       ??_C@_1BG@JLBENFOE@?$AAs?$AAr?$AA?9?$AAb?$AAa?$AA?9?$AAl?$AAa?$AAt?$AAn@ 000000018004f380     libucrt:lcidtoname_downlevel.obj
 0002:00009398       ??_C@_1BG@KODPNHE@?$AAs?$AAr?$AA?9?$AAs?$AAp?$AA?9?$AAc?$AAy?$AAr?$AAl@ 000000018004f398     libucrt:lcidtoname_downlevel.obj
 0002:000093b0       ??_C@_1BG@CIOGKHPB@?$AAs?$AAr?$AA?9?$AAs?$AAp?$AA?9?$AAl?$AAa?$AAt?$AAn@ 000000018004f3b0     libucrt:lcidtoname_downlevel.obj
 0002:000093c8       ??_C@_1M@NGFJLMAC@?$AAs?$AAv?$AA?9?$AAf?$AAi@ 000000018004f3c8     libucrt:lcidtoname_downlevel.obj
 0002:000093d8       ??_C@_1M@MPJEJAJC@?$AAs?$AAv?$AA?9?$AAs?$AAe@ 000000018004f3d8     libucrt:lcidtoname_downlevel.obj
 0002:000093e8       ??_C@_1M@MPNDHLFK@?$AAs?$AAw?$AA?9?$AAk?$AAe@ 000000018004f3e8     libucrt:lcidtoname_downlevel.obj
 0002:000093f8       ??_C@_1O@KOHBJJI@?$AAs?$AAy?$AAr?$AA?9?$AAs?$AAy@ 000000018004f3f8     libucrt:lcidtoname_downlevel.obj
 0002:00009408       ??_C@_1M@LDCEFHA@?$AAt?$AAa?$AA?9?$AAi?$AAn@ 000000018004f408     libucrt:lcidtoname_downlevel.obj
 0002:00009418       ??_C@_1M@CNJOFAK@?$AAt?$AAe?$AA?9?$AAi?$AAn@ 000000018004f418     libucrt:lcidtoname_downlevel.obj
 0002:00009428       ??_C@_1M@GNAECACD@?$AAt?$AAh?$AA?9?$AAt?$AAh@ 000000018004f428     libucrt:lcidtoname_downlevel.obj
 0002:00009438       ??_C@_1M@CHBIHOJO@?$AAt?$AAn?$AA?9?$AAz?$AAa@ 000000018004f438     libucrt:lcidtoname_downlevel.obj
 0002:00009448       ??_C@_1M@GCCMIGPJ@?$AAt?$AAr?$AA?9?$AAt?$AAr@ 000000018004f448     libucrt:lcidtoname_downlevel.obj
 0002:00009458       ??_C@_1M@CELMCNBK@?$AAt?$AAt?$AA?9?$AAr?$AAu@ 000000018004f458     libucrt:lcidtoname_downlevel.obj
 0002:00009468       ??_C@_1M@KLMCELGA@?$AAu?$AAk?$AA?9?$AAu?$AAa@ 000000018004f468     libucrt:lcidtoname_downlevel.obj
 0002:00009478       ??_C@_1M@EPAJJAJF@?$AAu?$AAr?$AA?9?$AAp?$AAk@ 000000018004f478     libucrt:lcidtoname_downlevel.obj
 0002:00009488       ??_C@_1BG@GEGPMCDJ@?$AAu?$AAz?$AA?9?$AAu?$AAz?$AA?9?$AAc?$AAy?$AAr?$AAl@ 000000018004f488     libucrt:lcidtoname_downlevel.obj
 0002:000094a0       ??_C@_1BG@EGGKJILM@?$AAu?$AAz?$AA?9?$AAu?$AAz?$AA?9?$AAl?$AAa?$AAt?$AAn@ 000000018004f4a0     libucrt:lcidtoname_downlevel.obj
 0002:000094b8       ??_C@_1M@GFOCLFF@?$AAv?$AAi?$AA?9?$AAv?$AAn@ 000000018004f4b8     libucrt:lcidtoname_downlevel.obj
 0002:000094c8       ??_C@_1M@CPAMEDFI@?$AAx?$AAh?$AA?9?$AAz?$AAa@ 000000018004f4c8     libucrt:lcidtoname_downlevel.obj
 0002:000094d8       ??_C@_1O@EBKIFIGN@?$AAz?$AAh?$AA?9?$AAc?$AAh?$AAs@ 000000018004f4d8     libucrt:lcidtoname_downlevel.obj
 0002:000094e8       ??_C@_1O@NMHPGANE@?$AAz?$AAh?$AA?9?$AAc?$AAh?$AAt@ 000000018004f4e8     libucrt:lcidtoname_downlevel.obj
 0002:000094f8       ??_C@_1M@LPINJOMC@?$AAz?$AAh?$AA?9?$AAc?$AAn@ 000000018004f4f8     libucrt:lcidtoname_downlevel.obj
 0002:00009508       ??_C@_1M@OCJEJODD@?$AAz?$AAh?$AA?9?$AAh?$AAk@ 000000018004f508     libucrt:lcidtoname_downlevel.obj
 0002:00009518       ??_C@_1M@DNDLJINH@?$AAz?$AAh?$AA?9?$AAm?$AAo@ 000000018004f518     libucrt:lcidtoname_downlevel.obj
 0002:00009528       ??_C@_1M@MBFDNDND@?$AAz?$AAh?$AA?9?$AAs?$AAg@ 000000018004f528     libucrt:lcidtoname_downlevel.obj
 0002:00009538       ??_C@_1M@IMEPLEPE@?$AAz?$AAh?$AA?9?$AAt?$AAw@ 000000018004f538     libucrt:lcidtoname_downlevel.obj
 0002:00009548       ??_C@_1M@BBGHNHJP@?$AAz?$AAu?$AA?9?$AAz?$AAa@ 000000018004f548     libucrt:lcidtoname_downlevel.obj
 0002:00009560       ?large_power_data@?1??multiply_by_power_of_ten@__crt_strtox@@YA_NAEAUbig_integer@2@I@Z@4QBIB 000000018004f560     libucrt:cfout.obj
 0002:00009e70       ?large_power_indices@?1??multiply_by_power_of_ten@__crt_strtox@@YA_NAEAUbig_integer@2@I@Z@4QBUunpack_index@?1??12@YA_N0I@Z@B 000000018004fe70     libucrt:cfout.obj
 0002:00009f08       ?small_powers_of_ten@?1??multiply_by_power_of_ten@__crt_strtox@@YA_NAEAUbig_integer@2@I@Z@4QBIB 000000018004ff08     libucrt:cfout.obj
 0002:00009f2c       ??_C@_01GBGANLPD@0@        000000018004ff2c     libucrt:cfout.obj
 0002:00009f30       ??_C@_05DNEBIAHO@1?$CDINF@ 000000018004ff30     libucrt:cfout.obj
 0002:00009f38       ??_C@_06IMKFLFPG@1?$CDQNAN@ 000000018004ff38     libucrt:cfout.obj
 0002:00009f40       ??_C@_06PGGFOGJG@1?$CDSNAN@ 000000018004ff40     libucrt:cfout.obj
 0002:00009f48       ??_C@_05PHHOCPM@1?$CDIND@  000000018004ff48     libucrt:cfout.obj
 0002:0000a1a0       ??_C@_1BA@BALFACEM@?$AAC?$AAO?$AAN?$AAO?$AAU?$AAT?$AA$@ 00000001800501a0     libucrt:initcon.obj
 0002:0000a1b0       __log10_256_lead           00000001800501b0     libucrt:log10_256_lead_tail_table.obj
 0002:0000a9c0       __log10_256_tail           00000001800509c0     libucrt:log10_256_lead_tail_table.obj
 0002:0000b1d0       __log_F_inv_qword          00000001800511d0     libucrt:log_f_inv_qword_table.obj
 0002:0000ba80       ??_R4type_info@@6B@        0000000180051a80     LIBCMT:std_type_info_static.obj
 0002:0000baa8       ??_R3type_info@@8          0000000180051aa8     LIBCMT:std_type_info_static.obj
 0002:0000bac0       ??_R2type_info@@8          0000000180051ac0     LIBCMT:std_type_info_static.obj
 0002:0000bad0       ??_R1A@?0A@EA@type_info@@8 0000000180051ad0     LIBCMT:std_type_info_static.obj
 0002:0000baf8       ??_R3DNameNode@@8          0000000180051af8     libvcruntime:undname.obj
 0002:0000bb10       ??_R2DNameNode@@8          0000000180051b10     libvcruntime:undname.obj
 0002:0000bb20       ??_R1A@?0A@EA@DNameNode@@8 0000000180051b20     libvcruntime:undname.obj
 0002:0000bb48       ??_R4charNode@@6B@         0000000180051b48     libvcruntime:undname.obj
 0002:0000bb70       ??_R3charNode@@8           0000000180051b70     libvcruntime:undname.obj
 0002:0000bb88       ??_R2charNode@@8           0000000180051b88     libvcruntime:undname.obj
 0002:0000bba0       ??_R1A@?0A@EA@charNode@@8  0000000180051ba0     libvcruntime:undname.obj
 0002:0000bbc8       ??_R4pcharNode@@6B@        0000000180051bc8     libvcruntime:undname.obj
 0002:0000bbf0       ??_R3pcharNode@@8          0000000180051bf0     libvcruntime:undname.obj
 0002:0000bc08       ??_R2pcharNode@@8          0000000180051c08     libvcruntime:undname.obj
 0002:0000bc20       ??_R1A@?0A@EA@pcharNode@@8 0000000180051c20     libvcruntime:undname.obj
 0002:0000bc48       ??_R4pDNameNode@@6B@       0000000180051c48     libvcruntime:undname.obj
 0002:0000bc70       ??_R3pDNameNode@@8         0000000180051c70     libvcruntime:undname.obj
 0002:0000bc88       ??_R2pDNameNode@@8         0000000180051c88     libvcruntime:undname.obj
 0002:0000bca0       ??_R1A@?0A@EA@pDNameNode@@8 0000000180051ca0     libvcruntime:undname.obj
 0002:0000bcc8       ??_R4DNameStatusNode@@6B@  0000000180051cc8     libvcruntime:undname.obj
 0002:0000bcf0       ??_R3DNameStatusNode@@8    0000000180051cf0     libvcruntime:undname.obj
 0002:0000bd08       ??_R2DNameStatusNode@@8    0000000180051d08     libvcruntime:undname.obj
 0002:0000bd20       ??_R1A@?0A@EA@DNameStatusNode@@8 0000000180051d20     libvcruntime:undname.obj
 0002:0000bd48       ??_R4pairNode@@6B@         0000000180051d48     libvcruntime:undname.obj
 0002:0000bd70       ??_R3pairNode@@8           0000000180051d70     libvcruntime:undname.obj
 0002:0000bd88       ??_R2pairNode@@8           0000000180051d88     libvcruntime:undname.obj
 0002:0000bda0       ??_R1A@?0A@EA@pairNode@@8  0000000180051da0     libvcruntime:undname.obj
 0002:0000bdc8       ??_R4exception@std@@6B@    0000000180051dc8     libvcruntime:frame.obj
 0002:0000bdf0       ??_R3exception@std@@8      0000000180051df0     libvcruntime:frame.obj
 0002:0000be08       ??_R2exception@std@@8      0000000180051e08     libvcruntime:frame.obj
 0002:0000be18       ??_R1A@?0A@EA@exception@std@@8 0000000180051e18     libvcruntime:frame.obj
 0002:0000be40       ??_R4bad_exception@std@@6B@ 0000000180051e40     libvcruntime:frame.obj
 0002:0000be68       ??_R3bad_exception@std@@8  0000000180051e68     libvcruntime:frame.obj
 0002:0000be80       ??_R2bad_exception@std@@8  0000000180051e80     libvcruntime:frame.obj
 0002:0000be98       ??_R1A@?0A@EA@bad_exception@std@@8 0000000180051e98     libvcruntime:frame.obj
 0002:0000bebc       __volatile_metadata        0000000180051ebc     <linker-defined>
 0002:0000c2f8       __rtc_iaa                  00000001800522f8     LIBCMT:initsect.obj
 0002:0000c300       __rtc_izz                  0000000180052300     LIBCMT:initsect.obj
 0002:0000c308       __rtc_taa                  0000000180052308     LIBCMT:initsect.obj
 0002:0000c310       __rtc_tzz                  0000000180052310     LIBCMT:initsect.obj
 0002:00010108       _TI2?AVbad_exception@std@@ 0000000180056108     libvcruntime:frame.obj
 0002:00010128       _CTA2?AVbad_exception@std@@ 0000000180056128     libvcruntime:frame.obj
 0002:00010140       _CT??_R0?AVbad_exception@std@@@8??0bad_exception@std@@QEAA@AEBV01@@Z24 0000000180056140     libvcruntime:frame.obj
 0002:00010168       _CT??_R0?AVexception@std@@@8??0exception@std@@QEAA@AEBV01@@Z24 0000000180056168     libvcruntime:frame.obj
 0002:0001018c       __DELAY_IMPORT_DESCRIPTOR_physxcommon_64_dll 000000018005618c     PhysXCommon_64:PhysXCommon_64.dll
 0002:000101ac       __DELAY_IMPORT_DESCRIPTOR_physxfoundation_64_dll 00000001800561ac     PhysXFoundation_64:PhysXFoundation_64.dll
 0002:000101cc       __NULL_DELAY_IMPORT_DESCRIPTOR 00000001800561cc     PhysXCommon_64:PhysXCommon_64.dll
 0002:00010310       \177PhysXCommon_64_NULL_THUNK_DATA_DLN 0000000180056310     PhysXCommon_64:PhysXCommon_64.dll
 0002:00010370       \177PhysXFoundation_64_NULL_THUNK_DATA_DLN 0000000180056370     PhysXFoundation_64:PhysXFoundation_64.dll
 0002:00010cd0       \177PhysXCommon_64_NULL_THUNK_DATA_DLB 0000000180056cd0     PhysXCommon_64:PhysXCommon_64.dll
 0002:00010df8       \177PhysXFoundation_64_NULL_THUNK_DATA_DLB 0000000180056df8     PhysXFoundation_64:PhysXFoundation_64.dll
 0002:00012b50       __IMPORT_DESCRIPTOR_KERNEL32 0000000180058b50     kernel32:KERNEL32.dll
 0002:00012b64       __NULL_IMPORT_DESCRIPTOR   0000000180058b64     kernel32:KERNEL32.dll
 0003:00000008       __pfnDliNotifyHook2        000000018005a008     WindowsCookingDelayLoadHook.obj
 0003:00000010       _fltused                   000000018005a010     LIBCMT:fltused.obj
 0003:00000020       __isa_available            000000018005a020     LIBCMT:cpu_disp.obj
 0003:00000024       __isa_enabled              000000018005a024     LIBCMT:cpu_disp.obj
 0003:00000028       __memcpy_nt_iters          000000018005a028     LIBCMT:cpu_disp.obj
 0003:00000030       __memset_nt_iters          000000018005a030     LIBCMT:cpu_disp.obj
 0003:00000040       __scrt_native_dllmain_reason 000000018005a040     LIBCMT:utility.obj
 0003:00000048       __security_cookie_complement 000000018005a048     LIBCMT:gs_cookie.obj
 0003:00000050       __security_cookie          000000018005a050     LIBCMT:gs_cookie.obj
 0003:00000080       __abort_behavior           000000018005a080     libucrt:abort.obj
 0003:000000b0       __acrt_initial_multibyte_data 000000018005a0b0     libucrt:mbctype.obj
 0003:000005f0       __acrt_initial_locale_data 000000018005a5f0     libucrt:nlsdata.obj
 0003:00000748       __acrt_initial_locale_pointers 000000018005a748     libucrt:nlsdata.obj
 0003:00000758       __acrt_wide_c_locale_string 000000018005a758     libucrt:nlsdata.obj
 0003:00000760       _iob                       000000018005a760     libucrt:_file.obj
 0003:00000870       __globallocalestatus       000000018005a870     libucrt:glstatus.obj
 0003:00000880       __acrt_lconv_c             000000018005a880     libucrt:localeconv.obj
 0003:00000918       __acrt_lconv_static_decimal 000000018005a918     libucrt:localeconv.obj
 0003:0000091c       __acrt_lconv_static_W_decimal 000000018005a91c     libucrt:localeconv.obj
 0003:00000920       _lookuptrailbytes          000000018005a920     libucrt:read.obj
 0003:00000a30       ??_R0?AVAdjEdge@@@8        000000018005aa30     Adjacencies.obj
 0003:00000a50       ??_R0I@8                   000000018005aa50     Adjacencies.obj
 0003:00000a68       ??_R0?AVAdjTriangle@physx@@@8 000000018005aa68     Adjacencies.obj
 0003:00000a90       ??_R0?AVCooking@physx@@@8  000000018005aa90     Cooking.obj
 0003:00000ab8       ??_R0?AVHeightField@Gu@physx@@@8 000000018005aab8     Cooking.obj
 0003:00000ae8       ??_R0?AVQuickHullConvexHullLib@physx@@@8 000000018005aae8     Cooking.obj
 0003:00000b20       ??_R0?AUPxDebugLine@physx@@@8 000000018005ab20     Cooking.obj
 0003:00000b48       ??_R0M@8                   000000018005ab48     CookingUtils.obj
 0003:00000b60       ??_R0?AUEdgeData@Gu@physx@@@8 000000018005ab60     EdgeList.obj
 0003:00000b88       ??_R0?AUEdgeTriangleData@Gu@physx@@@8 000000018005ab88     EdgeList.obj
 0003:00000bb8       ??_R0?AVQuantizerImpl@@@8  000000018005abb8     Quantizer.obj
 0003:00000be0       ??_R0?AVPxVec3@physx@@@8   000000018005abe0     Quantizer.obj
 0003:00000c08       ??_R0?AUSlab@NodeAllocator@Gu@physx@@@8 000000018005ac08     BVHStructureBuilder.obj
 0003:00000c40       ??_R0?AUInterval@physx@@@8 000000018005ac40     RTreeCooking.obj
 0003:00000c68       ??_R0?AURTreeNodeQ@Gu@physx@@@8 000000018005ac68     RTreeCooking.obj
 0003:00000c98       ??_R0?AURTreeNodeNQ@physx@@@8 000000018005ac98     RTreeCooking.obj
 0003:00000cc0       ??_R0?AUPxBounds3V@physx@@@8 000000018005acc0     RTreeCooking.obj
 0003:00000ce8       ??_R0?AVEdgeListBuilder@Gu@physx@@@8 000000018005ace8     TriangleMeshBuilder.obj
 0003:00000d18       ??_R0?AVBV32Tree@Gu@physx@@@8 000000018005ad18     TriangleMeshBuilder.obj
 0003:00000d40       ??_R0E@8                   000000018005ad40     TriangleMeshBuilder.obj
 0003:00000d58       ??_R0G@8                   000000018005ad58     TriangleMeshBuilder.obj
 0003:00000d70       ??_R0?AUEdgeTriLookup@physx@@@8 000000018005ad70     TriangleMeshBuilder.obj
 0003:00000da0       ??_R0?AUEdgeDescData@Gu@physx@@@8 000000018005ada0     ConvexHullBuilder.obj
 0003:00000dd0       ??_R0_N@8                  000000018005add0     ConvexHullBuilder.obj
 0003:00000de8       ??_R0?AVConvexHull@physx@@@8 000000018005ade8     ConvexHullUtils.obj
 0003:00000e10       ??_R0?AVPxPlane@physx@@@8  000000018005ae10     ConvexHullUtils.obj
 0003:00000e38       ??_R0?AVHalfEdge@ConvexHull@physx@@@8 000000018005ae38     ConvexHullUtils.obj
 0003:00000e68       ??_R0?AVBigConvexData@physx@@@8 000000018005ae68     ConvexMeshBuilder.obj
 0003:00000e98       ??_R0?AUHullTriangleData@physx@@@8 000000018005ae98     ConvexPolygonsBuilder.obj
 0003:00000ec8       ??_R0?AVPair@@@8           000000018005aec8     ConvexPolygonsBuilder.obj
 0003:00000ee8       ??_R0?AVQuickHull@local@@@8 000000018005aee8     QuickHullConvexHullLib.obj
 0003:00000f10       ??_R0?AUExpandPoint@local@@@8 000000018005af10     QuickHullConvexHullLib.obj
 0003:00000f38       ??_R0PEAUQuickHullVertex@local@@@8 000000018005af38     QuickHullConvexHullLib.obj
 0003:00000f68       ??_R0PEAUQuickHullFace@local@@@8 000000018005af68     QuickHullConvexHullLib.obj
 0003:00000f98       ??_R0PEAUQuickHullHalfEdge@local@@@8 000000018005af98     QuickHullConvexHullLib.obj
 0003:00000fc8       ??_R0?AVbad_exception@std@@@8 000000018005afc8     libvcruntime:frame.obj
 0003:00000ff0       ??_R0?AVexception@std@@@8  000000018005aff0     libvcruntime:frame.obj
 0003:00001018       ??_R0?AVtype_info@@@8      000000018005b018     LIBCMT:std_type_info_static.obj
 0003:00001038       ??_R0?AVDNameNode@@@8      000000018005b038     libvcruntime:undname.obj
 0003:00001058       ??_R0?AVcharNode@@@8       000000018005b058     libvcruntime:undname.obj
 0003:00001078       ??_R0?AVpcharNode@@@8      000000018005b078     libvcruntime:undname.obj
 0003:00001098       ??_R0?AVpDNameNode@@@8     000000018005b098     libvcruntime:undname.obj
 0003:000010c0       ??_R0?AVDNameStatusNode@@@8 000000018005b0c0     libvcruntime:undname.obj
 0003:000010e8       ??_R0?AVpairNode@@@8       000000018005b0e8     libvcruntime:undname.obj
 0003:00001108       __imp_??0RadixSortBuffered@Cm@physx@@QEAA@XZ 000000018005b108     PhysXCommon_64:PhysXCommon_64.dll
 0003:00001110       __imp_??1BigConvexData@physx@@QEAA@XZ 000000018005b110     PhysXCommon_64:PhysXCommon_64.dll
 0003:00001118       __imp_??1RadixSortBuffered@Cm@physx@@UEAA@XZ 000000018005b118     PhysXCommon_64:PhysXCommon_64.dll
 0003:00001120       __imp_?Sort@RadixSortBuffered@Cm@physx@@QEAAAEAV123@PEBIIW4RadixHint@23@@Z 000000018005b120     PhysXCommon_64:PhysXCommon_64.dll
 0003:00001128       __imp_??0HeightField@Gu@physx@@QEAA@PEAVGuMeshFactory@2@@Z 000000018005b128     PhysXCommon_64:PhysXCommon_64.dll
 0003:00001130       __imp_?loadFromDesc@HeightField@Gu@physx@@QEAA_NAEBVPxHeightFieldDesc@3@@Z 000000018005b130     PhysXCommon_64:PhysXCommon_64.dll
 0003:00001138       __imp_?computeCellCoordinates@HeightField@Gu@physx@@QEBAIMMAEAM0@Z 000000018005b138     PhysXCommon_64:PhysXCommon_64.dll
 0003:00001140       __imp_?releaseMemory@HeightField@Gu@physx@@QEAAXXZ 000000018005b140     PhysXCommon_64:PhysXCommon_64.dll
 0003:00001148       __imp_??1HeightField@Gu@physx@@UEAA@XZ 000000018005b148     PhysXCommon_64:PhysXCommon_64.dll
 0003:00001150       __imp_??0NodeAllocator@Gu@physx@@QEAA@XZ 000000018005b150     PhysXCommon_64:PhysXCommon_64.dll
 0003:00001158       __imp_??1NodeAllocator@Gu@physx@@QEAA@XZ 000000018005b158     PhysXCommon_64:PhysXCommon_64.dll
 0003:00001160       __imp_?release@NodeAllocator@Gu@physx@@QEAAXXZ 000000018005b160     PhysXCommon_64:PhysXCommon_64.dll
 0003:00001168       __imp_?buildAABBTree@Gu@physx@@YA_NAEAVAABBTreeBuildParams@12@AEAVNodeAllocator@12@AEAUBuildStats@12@AEAPEAI@Z 000000018005b168     PhysXCommon_64:PhysXCommon_64.dll
 0003:00001170       __imp_?writeDword@physx@@YAXI_NAEAVPxOutputStream@1@@Z 000000018005b170     PhysXCommon_64:PhysXCommon_64.dll
 0003:00001178       __imp_?writeFloatBuffer@physx@@YAXPEBMI_NAEAVPxOutputStream@1@@Z 000000018005b178     PhysXCommon_64:PhysXCommon_64.dll
 0003:00001180       __imp_?writeHeader@physx@@YA_NCCCCI_NAEAVPxOutputStream@1@@Z 000000018005b180     PhysXCommon_64:PhysXCommon_64.dll
 0003:00001188       __imp_?writeWord@physx@@YAXG_NAEAVPxOutputStream@1@@Z 000000018005b188     PhysXCommon_64:PhysXCommon_64.dll
 0003:00001190       __imp_?writeFloat@physx@@YAXM_NAEAVPxOutputStream@1@@Z 000000018005b190     PhysXCommon_64:PhysXCommon_64.dll
 0003:00001198       __imp_?computeBoundsAroundVertices@Gu@physx@@YAXAEAVPxBounds3@2@IPEIBVPxVec3@2@@Z 000000018005b198     PhysXCommon_64:PhysXCommon_64.dll
 0003:000011a0       __imp_??0SourceMesh@Gu@physx@@QEAA@XZ 000000018005b1a0     PhysXCommon_64:PhysXCommon_64.dll
 0003:000011a8       __imp_??1SourceMesh@Gu@physx@@QEAA@XZ 000000018005b1a8     PhysXCommon_64:PhysXCommon_64.dll
 0003:000011b0       __imp_??0BV4Tree@Gu@physx@@QEAA@XZ 000000018005b1b0     PhysXCommon_64:PhysXCommon_64.dll
 0003:000011b8       __imp_??1BV4Tree@Gu@physx@@QEAA@XZ 000000018005b1b8     PhysXCommon_64:PhysXCommon_64.dll
 0003:000011c0       __imp_??0BV32Tree@Gu@physx@@QEAA@XZ 000000018005b1c0     PhysXCommon_64:PhysXCommon_64.dll
 0003:000011c8       __imp_??1BV32Tree@Gu@physx@@QEAA@XZ 000000018005b1c8     PhysXCommon_64:PhysXCommon_64.dll
 0003:000011d0       __imp_?writeWordBuffer@physx@@YAXPEBGI_NAEAVPxOutputStream@1@@Z 000000018005b1d0     PhysXCommon_64:PhysXCommon_64.dll
 0003:000011d8       __imp_?computeMaxIndex@physx@@YAIPEBII@Z 000000018005b1d8     PhysXCommon_64:PhysXCommon_64.dll
 0003:000011e0       __imp_?storeIndices@physx@@YAXIIPEBIAEAVPxOutputStream@1@_N@Z 000000018005b1e0     PhysXCommon_64:PhysXCommon_64.dll
 0003:000011e8       __imp_?BuildBV4Ex@Gu@physx@@YA_NAEAVBV4Tree@12@AEAVSourceMesh@12@MI@Z 000000018005b1e8     PhysXCommon_64:PhysXCommon_64.dll
 0003:000011f0       __imp_?BuildBV32Ex@Gu@physx@@YA_NAEAVBV32Tree@12@AEAVSourceMesh@12@MI@Z 000000018005b1f0     PhysXCommon_64:PhysXCommon_64.dll
 0003:000011f8       __imp_?computeMaxIndex@physx@@YAGPEBGI@Z 000000018005b1f8     PhysXCommon_64:PhysXCommon_64.dll
 0003:00001200       __imp_?WriteHeader@Gu@physx@@YA_NEEEEI_NAEAVPxOutputStream@2@@Z 000000018005b200     PhysXCommon_64:PhysXCommon_64.dll
 0003:00001208       __imp_?StoreIndices@Gu@physx@@YAXGIPEBGAEAVPxOutputStream@2@_N@Z 000000018005b208     PhysXCommon_64:PhysXCommon_64.dll
 0003:00001210       __imp_?CreateOffsets@BigConvexData@physx@@IEAAXXZ 000000018005b210     PhysXCommon_64:PhysXCommon_64.dll
 0003:00001218       __imp_?computeOBBPoints@Gu@physx@@YAXPEIAVPxVec3@2@AEBV32@1111@Z 000000018005b218     PhysXCommon_64:PhysXCommon_64.dll
 0003:00001220       __imp_??0BigConvexData@physx@@QEAA@XZ 000000018005b220     PhysXCommon_64:PhysXCommon_64.dll
 0003:00001228       \177PhysXCommon_64_NULL_THUNK_DATA_DLA 000000018005b228     PhysXCommon_64:PhysXCommon_64.dll
 0003:00001230       __imp_PxGetFoundation      000000018005b230     PhysXFoundation_64:PhysXFoundation_64.dll
 0003:00001238       __imp_?deallocate@TempAllocator@shdfnd@physx@@QEAAXPEAX@Z 000000018005b238     PhysXFoundation_64:PhysXFoundation_64.dll
 0003:00001240       __imp_?getAllocator@shdfnd@physx@@YAAEAVPxAllocatorCallback@2@XZ 000000018005b240     PhysXFoundation_64:PhysXFoundation_64.dll
 0003:00001248       __imp_?getInstance@Foundation@shdfnd@physx@@SAAEAV123@XZ 000000018005b248     PhysXFoundation_64:PhysXFoundation_64.dll
 0003:00001250       __imp_?error@Foundation@shdfnd@physx@@QEAAXW4Enum@PxErrorCode@3@PEBDH1ZZ 000000018005b250     PhysXFoundation_64:PhysXFoundation_64.dll
 0003:00001258       __imp_?incRefCount@Foundation@shdfnd@physx@@SAXXZ 000000018005b258     PhysXFoundation_64:PhysXFoundation_64.dll
 0003:00001260       __imp_?decRefCount@Foundation@shdfnd@physx@@SAXXZ 000000018005b260     PhysXFoundation_64:PhysXFoundation_64.dll
 0003:00001268       __imp_??0FPUGuard@shdfnd@physx@@QEAA@XZ 000000018005b268     PhysXFoundation_64:PhysXFoundation_64.dll
 0003:00001270       __imp_??1FPUGuard@shdfnd@physx@@QEAA@XZ 000000018005b270     PhysXFoundation_64:PhysXFoundation_64.dll
 0003:00001278       __imp_?allocate@TempAllocator@shdfnd@physx@@QEAAPEAX_KPEBDH@Z 000000018005b278     PhysXFoundation_64:PhysXFoundation_64.dll
 0003:00001280       __imp_?PxDiagonalize@physx@@YA?AVPxVec3@1@AEBVPxMat33@1@AEAVPxQuat@1@@Z 000000018005b280     PhysXFoundation_64:PhysXFoundation_64.dll
 0003:00001288       \177PhysXFoundation_64_NULL_THUNK_DATA_DLA 000000018005b288     PhysXFoundation_64:PhysXFoundation_64.dll
 0003:00001658       __hmod__PhysXCommon_64_dll 000000018005b658     PhysXCommon_64:PhysXCommon_64.dll
 0003:00001660       __hmod__PhysXFoundation_64_dll 000000018005b660     PhysXFoundation_64:PhysXFoundation_64.dll
 0003:00001668       ?DloadKernel32@@3PEAUHINSTANCE__@@EA 000000018005b668     Delayimp:delayhlp.obj
 0003:00001670       ?DloadAcquireSRWLockExclusive@@3P6AXPEA_K@ZEA 000000018005b670     Delayimp:delayhlp.obj
 0003:00001678       ?DloadReleaseSRWLockExclusive@@3P6AXPEA_K@ZEA 000000018005b678     Delayimp:delayhlp.obj
 0003:00001680       ?DloadSrwLock@@3_KA        000000018005b680     Delayimp:delayhlp.obj
 0003:00001688       ?DloadSectionLockCount@@3KA 000000018005b688     Delayimp:delayhlp.obj
 0003:0000168c       ?DloadSectionOldProtection@@3KA 000000018005b68c     Delayimp:delayhlp.obj
 0003:00001690       ?DloadSectionCommitPermanent@@3KA 000000018005b690     Delayimp:delayhlp.obj
 0003:000016a0       ?__type_info_root_node@@3U__type_info_node@@A 000000018005b6a0     LIBCMT:tncleanup.obj
 0003:000016b8       __castguard_check_failure_os_handled_fptr 000000018005b6b8     LIBCMT:guard_support.obj
 0003:000016c0       __favor                    000000018005b6c0     LIBCMT:cpu_disp.obj
 0003:000016c8       ?_OptionsStorage@?1??__local_stdio_printf_options@@9@4_KA 000000018005b6c8     LIBCMT:default_local_stdio_options.obj
 0003:000016d0       ?_OptionsStorage@?1??__local_stdio_scanf_options@@9@4_KA 000000018005b6d0     LIBCMT:default_local_stdio_options.obj
 0003:000016d8       __scrt_current_native_startup_state 000000018005b6d8     LIBCMT:utility.obj
 0003:000016e0       __scrt_native_startup_lock 000000018005b6e0     LIBCMT:utility.obj
 0003:00001720       __scrt_debugger_hook_flag  000000018005b720     LIBCMT:utility_desktop.obj
 0003:00001728       ?__WinRTOutOfMemoryExceptionCallback@@3P6APEAXXZEA 000000018005b728     libvcruntime:ehhelpers.obj
 0003:00001730       __pPurecall                000000018005b730     libvcruntime:purevirt_data.obj
 0003:00001738       ?pArgList@UnDecorator@@0PEAVReplicator@@EA 000000018005b738     libvcruntime:undname.obj
 0003:00001740       ?pZNameList@UnDecorator@@0PEAVReplicator@@EA 000000018005b740     libvcruntime:undname.obj
 0003:00001748       ?pTemplateArgList@UnDecorator@@0PEAVReplicator@@EA 000000018005b748     libvcruntime:undname.obj
 0003:00001750       ?gName@UnDecorator@@0PEBDEB 000000018005b750     libvcruntime:undname.obj
 0003:00001758       ?name@UnDecorator@@0PEBDEB 000000018005b758     libvcruntime:undname.obj
 0003:00001760       ?disableFlags@UnDecorator@@0KA 000000018005b760     libvcruntime:undname.obj
 0003:00001764       ?fExplicitTemplateParams@UnDecorator@@0_NA 000000018005b764     libvcruntime:undname.obj
 0003:00001765       ?fGetTemplateArgumentList@UnDecorator@@0_NA 000000018005b765     libvcruntime:undname.obj
 0003:00001768       ?m_pGetParameter@UnDecorator@@0P6APEADJ@ZEA 000000018005b768     libvcruntime:undname.obj
 0003:00001770       ?m_CHPENameOffset@UnDecorator@@0KA 000000018005b770     libvcruntime:undname.obj
 0003:00001774       ?m_recursionLevel@UnDecorator@@0KA 000000018005b774     libvcruntime:undname.obj
 0003:000018a0       ?c_exit_complete@?1???R<lambda_6e4b09c48022b2350581041d5f6b0c4c>@@QEBA@XZ@4_NA 000000018005b8a0     libucrt:exit.obj
 0003:000019b8       _environ_table             000000018005b9b8     libucrt:environment_initialization.obj
 0003:000019c0       _wenviron_table            000000018005b9c0     libucrt:environment_initialization.obj
 0003:000019c8       __dcrt_initial_wide_environment 000000018005b9c8     libucrt:environment_initialization.obj
 0003:000019d0       __dcrt_initial_narrow_environment 000000018005b9d0     libucrt:environment_initialization.obj
 0003:000019d8       __acrt_atexit_table        000000018005b9d8     libucrt:onexit.obj
 0003:000019f0       __acrt_at_quick_exit_table 000000018005b9f0     libucrt:onexit.obj
 0003:00001a08       __fma3_is_available        000000018005ba08     libucrt:fma3_available.obj
 0003:00001a0c       __use_fma3_lib             000000018005ba0c     libucrt:fma3_available.obj
 0003:00001c50       _mbctype                   000000018005bc50     libucrt:mbctype.obj
 0003:00001c58       _mbcasemap                 000000018005bc58     libucrt:mbctype.obj
 0003:00001c60       __acrt_current_multibyte_data 000000018005bc60     libucrt:mbctype.obj
 0003:00001c70       _pgmptr                    000000018005bc70     libucrt:argv_data.obj
 0003:00001c78       __argc                     000000018005bc78     libucrt:argv_data.obj
 0003:00001c80       __argv                     000000018005bc80     libucrt:argv_data.obj
 0003:00001c88       __wargv                    000000018005bc88     libucrt:argv_data.obj
 0003:00001c90       _acmdln                    000000018005bc90     libucrt:argv_data.obj
 0003:00001c98       _wcmdln                    000000018005bc98     libucrt:argv_data.obj
 0003:00001e50       __acrt_heap                000000018005be50     libucrt:heap_handle.obj
 0003:00001e60       __pioinfo                  000000018005be60     libucrt:ioinit.obj
 0003:00002260       _nhandle                   000000018005c260     libucrt:ioinit.obj
 0003:00002298       __acrt_current_locale_data 000000018005c298     libucrt:nlsdata.obj
 0003:000022a0       _nstream                   000000018005c2a0     libucrt:_file.obj
 0003:000022a8       __piob                     000000018005c2a8     libucrt:_file.obj
 0003:000022b0       __acrt_stdout_buffer       000000018005c2b0     libucrt:_sftbuf.obj
 0003:000022b8       __acrt_stderr_buffer       000000018005c2b8     libucrt:_sftbuf.obj
 0003:000022d0       __acrt_locale_changed_data 000000018005c2d0     libucrt:wsetlocale.obj
 0003:000022d8       __acrt_lconv_static_null   000000018005c2d8     libucrt:localeconv.obj
 0003:000022dc       __acrt_lconv_static_W_null 000000018005c2dc     libucrt:localeconv.obj
 0003:00002860       __scrt_ucrt_dll_is_in_use  000000018005c860     <common>
 0003:00002868       __dyn_tls_init_callback    000000018005c868     <common>
 0005:00000100       __common_ssin_reduction_data 0000000180061100     LIBCMT:svml_s_sin_data.obj
 0005:00000d00       __common_ssin_data         0000000180061d00     LIBCMT:svml_s_sin_data.obj

 entry point at        0001:00027880

 Static symbols

 0000:fff9a000       .debug$S                   0000000180000000     PhysXCooking_64.exp
 0000:fff9a000       .debug$S                   0000000180000000     kernel32:KERNEL32.dll
 0000:fff9a000       .debug$S                   0000000180000000     kernel32:KERNEL32.dll
 0000:fff9a000       .debug$S                   0000000180000000     kernel32:KERNEL32.dll
 0000:fff9a000       .debug$S                   0000000180000000     kernel32:KERNEL32.dll
 0000:fff9a000       .debug$S                   0000000180000000     kernel32:KERNEL32.dll
 0000:fff9a000       .debug$S                   0000000180000000     kernel32:KERNEL32.dll
 0000:fff9a000       .debug$S                   0000000180000000     kernel32:KERNEL32.dll
 0000:fff9a000       .debug$S                   0000000180000000     kernel32:KERNEL32.dll
 0000:fff9a000       .debug$S                   0000000180000000     kernel32:KERNEL32.dll
 0000:fff9a000       .debug$S                   0000000180000000     kernel32:KERNEL32.dll
 0000:fff9a000       .debug$S                   0000000180000000     kernel32:KERNEL32.dll
 0000:fff9a000       .debug$S                   0000000180000000     kernel32:KERNEL32.dll
 0000:fff9a000       .debug$S                   0000000180000000     kernel32:KERNEL32.dll
 0000:fff9a000       .debug$S                   0000000180000000     kernel32:KERNEL32.dll
 0000:fff9a000       .debug$S                   0000000180000000     kernel32:KERNEL32.dll
 0000:fff9a000       .debug$S                   0000000180000000     kernel32:KERNEL32.dll
 0000:fff9a000       .debug$S                   0000000180000000     kernel32:KERNEL32.dll
 0000:fff9a000       .debug$S                   0000000180000000     kernel32:KERNEL32.dll
 0000:fff9a000       .debug$S                   0000000180000000     kernel32:KERNEL32.dll
 0000:fff9a000       .debug$S                   0000000180000000     kernel32:KERNEL32.dll
 0000:fff9a000       .debug$S                   0000000180000000     kernel32:KERNEL32.dll
 0000:fff9a000       .debug$S                   0000000180000000     kernel32:KERNEL32.dll
 0000:fff9a000       .debug$S                   0000000180000000     kernel32:KERNEL32.dll
 0000:fff9a000       .debug$S                   0000000180000000     kernel32:KERNEL32.dll
 0000:fff9a000       .debug$S                   0000000180000000     kernel32:KERNEL32.dll
 0000:fff9a000       .debug$S                   0000000180000000     kernel32:KERNEL32.dll
 0000:fff9a000       .debug$S                   0000000180000000     kernel32:KERNEL32.dll
 0000:fff9a000       .debug$S                   0000000180000000     kernel32:KERNEL32.dll
 0000:fff9a000       .debug$S                   0000000180000000     kernel32:KERNEL32.dll
 0000:fff9a000       .debug$S                   0000000180000000     kernel32:KERNEL32.dll
 0000:fff9a000       .debug$S                   0000000180000000     kernel32:KERNEL32.dll
 0000:fff9a000       .debug$S                   0000000180000000     kernel32:KERNEL32.dll
 0000:fff9a000       .debug$S                   0000000180000000     kernel32:KERNEL32.dll
 0000:fff9a000       .debug$S                   0000000180000000     kernel32:KERNEL32.dll
 0000:fff9a000       .debug$S                   0000000180000000     kernel32:KERNEL32.dll
 0000:fff9a000       .debug$S                   0000000180000000     kernel32:KERNEL32.dll
 0000:fff9a000       .debug$S                   0000000180000000     kernel32:KERNEL32.dll
 0000:fff9a000       .debug$S                   0000000180000000     kernel32:KERNEL32.dll
 0000:fff9a000       .debug$S                   0000000180000000     kernel32:KERNEL32.dll
 0000:fff9a000       .debug$S                   0000000180000000     kernel32:KERNEL32.dll
 0000:fff9a000       .debug$S                   0000000180000000     kernel32:KERNEL32.dll
 0000:fff9a000       .debug$S                   0000000180000000     kernel32:KERNEL32.dll
 0000:fff9a000       .debug$S                   0000000180000000     kernel32:KERNEL32.dll
 0000:fff9a000       .debug$S                   0000000180000000     kernel32:KERNEL32.dll
 0000:fff9a000       .debug$S                   0000000180000000     kernel32:KERNEL32.dll
 0000:fff9a000       .debug$S                   0000000180000000     kernel32:KERNEL32.dll
 0000:fff9a000       .debug$S                   0000000180000000     kernel32:KERNEL32.dll
 0000:fff9a000       .debug$S                   0000000180000000     kernel32:KERNEL32.dll
 0000:fff9a000       .debug$S                   0000000180000000     kernel32:KERNEL32.dll
 0000:fff9a000       .debug$S                   0000000180000000     kernel32:KERNEL32.dll
 0000:fff9a000       .debug$S                   0000000180000000     kernel32:KERNEL32.dll
 0000:fff9a000       .debug$S                   0000000180000000     kernel32:KERNEL32.dll
 0000:fff9a000       .debug$S                   0000000180000000     kernel32:KERNEL32.dll
 0000:fff9a000       .debug$S                   0000000180000000     kernel32:KERNEL32.dll
 0000:fff9a000       .debug$S                   0000000180000000     kernel32:KERNEL32.dll
 0000:fff9a000       .debug$S                   0000000180000000     kernel32:KERNEL32.dll
 0000:fff9a000       .debug$S                   0000000180000000     kernel32:KERNEL32.dll
 0000:fff9a000       .debug$S                   0000000180000000     kernel32:KERNEL32.dll
 0000:fff9a000       .debug$S                   0000000180000000     kernel32:KERNEL32.dll
 0000:fff9a000       .debug$S                   0000000180000000     kernel32:KERNEL32.dll
 0000:fff9a000       .debug$S                   0000000180000000     kernel32:KERNEL32.dll
 0000:fff9a000       .debug$S                   0000000180000000     kernel32:KERNEL32.dll
 0000:fff9a000       .debug$S                   0000000180000000     kernel32:KERNEL32.dll
 0000:fff9a000       .debug$S                   0000000180000000     kernel32:KERNEL32.dll
 0000:fff9a000       .debug$S                   0000000180000000     kernel32:KERNEL32.dll
 0000:fff9a000       .debug$S                   0000000180000000     kernel32:KERNEL32.dll
 0000:fff9a000       .debug$S                   0000000180000000     kernel32:KERNEL32.dll
 0000:fff9a000       .debug$S                   0000000180000000     kernel32:KERNEL32.dll
 0000:fff9a000       .debug$S                   0000000180000000     kernel32:KERNEL32.dll
 0000:fff9a000       .debug$S                   0000000180000000     kernel32:KERNEL32.dll
 0000:fff9a000       .debug$S                   0000000180000000     kernel32:KERNEL32.dll
 0000:fff9a000       .debug$S                   0000000180000000     kernel32:KERNEL32.dll
 0000:fff9a000       .debug$S                   0000000180000000     kernel32:KERNEL32.dll
 0000:fff9a000       .debug$S                   0000000180000000     kernel32:KERNEL32.dll
 0000:fff9a000       .debug$S                   0000000180000000     kernel32:KERNEL32.dll
 0000:fff9a000       .debug$S                   0000000180000000     kernel32:KERNEL32.dll
 0000:fff9a000       .debug$S                   0000000180000000     kernel32:KERNEL32.dll
 0000:fff9a000       .debug$S                   0000000180000000     kernel32:KERNEL32.dll
 0000:fff9a000       .debug$S                   0000000180000000     kernel32:KERNEL32.dll
 0000:fff9a000       .debug$S                   0000000180000000     kernel32:KERNEL32.dll
 0000:fff9a000       .debug$S                   0000000180000000     kernel32:KERNEL32.dll
 0000:fff9a000       .debug$S                   0000000180000000     kernel32:KERNEL32.dll
 0000:fff9a000       .debug$S                   0000000180000000     kernel32:KERNEL32.dll
 0000:fff9a000       .debug$S                   0000000180000000     kernel32:KERNEL32.dll
 0000:fff9a000       .debug$S                   0000000180000000     kernel32:KERNEL32.dll
 0000:fff9a000       .debug$S                   0000000180000000     kernel32:KERNEL32.dll
 0000:fff9a000       .debug$S                   0000000180000000     kernel32:KERNEL32.dll
 0000:fff9a000       .debug$S                   0000000180000000     kernel32:KERNEL32.dll
 0000:fff9a000       .debug$S                   0000000180000000     kernel32:KERNEL32.dll
 0000:fff9a000       .debug$S                   0000000180000000     PhysXCommon_64:PhysXCommon_64.dll
 0000:fff9a000       .debug$S                   0000000180000000     PhysXCommon_64:PhysXCommon_64.dll
 0000:fff9a000       .debug$S                   0000000180000000     PhysXCommon_64:PhysXCommon_64.dll
 0000:fff9a000       .debug$S                   0000000180000000     PhysXCommon_64:PhysXCommon_64.dll
 0000:fff9a000       .debug$S                   0000000180000000     PhysXCommon_64:PhysXCommon_64.dll
 0000:fff9a000       .debug$S                   0000000180000000     PhysXCommon_64:PhysXCommon_64.dll
 0000:fff9a000       .debug$S                   0000000180000000     PhysXCommon_64:PhysXCommon_64.dll
 0000:fff9a000       .debug$S                   0000000180000000     PhysXCommon_64:PhysXCommon_64.dll
 0000:fff9a000       .debug$S                   0000000180000000     PhysXCommon_64:PhysXCommon_64.dll
 0000:fff9a000       .debug$S                   0000000180000000     PhysXCommon_64:PhysXCommon_64.dll
 0000:fff9a000       .debug$S                   0000000180000000     PhysXCommon_64:PhysXCommon_64.dll
 0000:fff9a000       .debug$S                   0000000180000000     PhysXCommon_64:PhysXCommon_64.dll
 0000:fff9a000       .debug$S                   0000000180000000     PhysXCommon_64:PhysXCommon_64.dll
 0000:fff9a000       .debug$S                   0000000180000000     PhysXCommon_64:PhysXCommon_64.dll
 0000:fff9a000       .debug$S                   0000000180000000     PhysXCommon_64:PhysXCommon_64.dll
 0000:fff9a000       .debug$S                   0000000180000000     PhysXCommon_64:PhysXCommon_64.dll
 0000:fff9a000       .debug$S                   0000000180000000     PhysXCommon_64:PhysXCommon_64.dll
 0000:fff9a000       .debug$S                   0000000180000000     PhysXCommon_64:PhysXCommon_64.dll
 0000:fff9a000       .debug$S                   0000000180000000     PhysXCommon_64:PhysXCommon_64.dll
 0000:fff9a000       .debug$S                   0000000180000000     PhysXCommon_64:PhysXCommon_64.dll
 0000:fff9a000       .debug$S                   0000000180000000     PhysXCommon_64:PhysXCommon_64.dll
 0000:fff9a000       .debug$S                   0000000180000000     PhysXCommon_64:PhysXCommon_64.dll
 0000:fff9a000       .debug$S                   0000000180000000     PhysXCommon_64:PhysXCommon_64.dll
 0000:fff9a000       .debug$S                   0000000180000000     PhysXCommon_64:PhysXCommon_64.dll
 0000:fff9a000       .debug$S                   0000000180000000     PhysXCommon_64:PhysXCommon_64.dll
 0000:fff9a000       .debug$S                   0000000180000000     PhysXCommon_64:PhysXCommon_64.dll
 0000:fff9a000       .debug$S                   0000000180000000     PhysXCommon_64:PhysXCommon_64.dll
 0000:fff9a000       .debug$S                   0000000180000000     PhysXCommon_64:PhysXCommon_64.dll
 0000:fff9a000       .debug$S                   0000000180000000     PhysXCommon_64:PhysXCommon_64.dll
 0000:fff9a000       .debug$S                   0000000180000000     PhysXCommon_64:PhysXCommon_64.dll
 0000:fff9a000       .debug$S                   0000000180000000     PhysXCommon_64:PhysXCommon_64.dll
 0000:fff9a000       .debug$S                   0000000180000000     PhysXCommon_64:PhysXCommon_64.dll
 0000:fff9a000       .debug$S                   0000000180000000     PhysXCommon_64:PhysXCommon_64.dll
 0000:fff9a000       .debug$S                   0000000180000000     PhysXCommon_64:PhysXCommon_64.dll
 0000:fff9a000       .debug$S                   0000000180000000     PhysXCommon_64:PhysXCommon_64.dll
 0000:fff9a000       .debug$S                   0000000180000000     PhysXCommon_64:PhysXCommon_64.dll
 0000:fff9a000       .debug$S                   0000000180000000     PhysXCommon_64:PhysXCommon_64.dll
 0000:fff9a000       .debug$S                   0000000180000000     PhysXCommon_64:PhysXCommon_64.dll
 0000:fff9a000       .debug$S                   0000000180000000     PhysXFoundation_64:PhysXFoundation_64.dll
 0000:fff9a000       .debug$S                   0000000180000000     PhysXFoundation_64:PhysXFoundation_64.dll
 0000:fff9a000       .debug$S                   0000000180000000     PhysXFoundation_64:PhysXFoundation_64.dll
 0000:fff9a000       .debug$S                   0000000180000000     PhysXFoundation_64:PhysXFoundation_64.dll
 0000:fff9a000       .debug$S                   0000000180000000     PhysXFoundation_64:PhysXFoundation_64.dll
 0000:fff9a000       .debug$S                   0000000180000000     PhysXFoundation_64:PhysXFoundation_64.dll
 0000:fff9a000       .debug$S                   0000000180000000     PhysXFoundation_64:PhysXFoundation_64.dll
 0000:fff9a000       .debug$S                   0000000180000000     PhysXFoundation_64:PhysXFoundation_64.dll
 0000:fff9a000       .debug$S                   0000000180000000     PhysXFoundation_64:PhysXFoundation_64.dll
 0000:fff9a000       .debug$S                   0000000180000000     PhysXFoundation_64:PhysXFoundation_64.dll
 0000:fff9a000       .debug$S                   0000000180000000     PhysXFoundation_64:PhysXFoundation_64.dll
 0001:00000000       ??__EmaxFError@_VecMathTests@aos@shdfnd@physx@@YAXXZ 0000000180001000 f   Cooking.obj
 0001:00000010       ??__EmaxV3Error@_VecMathTests@aos@shdfnd@physx@@YAXXZ 0000000180001010 f   Cooking.obj
 0001:00000020       ??__EmaxV4Error@_VecMathTests@aos@shdfnd@physx@@YAXXZ 0000000180001020 f   Cooking.obj
 0001:00000030       ??__EminFError@_VecMathTests@aos@shdfnd@physx@@YAXXZ 0000000180001030 f   Cooking.obj
 0001:00000040       ??__EminV3Error@_VecMathTests@aos@shdfnd@physx@@YAXXZ 0000000180001040 f   Cooking.obj
 0001:00000050       ??__EminV4Error@_VecMathTests@aos@shdfnd@physx@@YAXXZ 0000000180001050 f   Cooking.obj
 0001:00000060       ??__EmaxFError@_VecMathTests@aos@shdfnd@physx@@YAXXZ 0000000180001060 f   BVHStructureBuilder.obj
 0001:00000070       ??__EmaxV3Error@_VecMathTests@aos@shdfnd@physx@@YAXXZ 0000000180001070 f   BVHStructureBuilder.obj
 0001:00000080       ??__EmaxV4Error@_VecMathTests@aos@shdfnd@physx@@YAXXZ 0000000180001080 f   BVHStructureBuilder.obj
 0001:00000090       ??__EminFError@_VecMathTests@aos@shdfnd@physx@@YAXXZ 0000000180001090 f   BVHStructureBuilder.obj
 0001:000000a0       ??__EminV3Error@_VecMathTests@aos@shdfnd@physx@@YAXXZ 00000001800010a0 f   BVHStructureBuilder.obj
 0001:000000b0       ??__EminV4Error@_VecMathTests@aos@shdfnd@physx@@YAXXZ 00000001800010b0 f   BVHStructureBuilder.obj
 0001:000000c0       ??__EmaxFError@_VecMathTests@aos@shdfnd@physx@@YAXXZ 00000001800010c0 f   RTreeCooking.obj
 0001:000000d0       ??__EmaxV3Error@_VecMathTests@aos@shdfnd@physx@@YAXXZ 00000001800010d0 f   RTreeCooking.obj
 0001:000000e0       ??__EmaxV4Error@_VecMathTests@aos@shdfnd@physx@@YAXXZ 00000001800010e0 f   RTreeCooking.obj
 0001:000000f0       ??__EminFError@_VecMathTests@aos@shdfnd@physx@@YAXXZ 00000001800010f0 f   RTreeCooking.obj
 0001:00000100       ??__EminV3Error@_VecMathTests@aos@shdfnd@physx@@YAXXZ 0000000180001100 f   RTreeCooking.obj
 0001:00000110       ??__EminV4Error@_VecMathTests@aos@shdfnd@physx@@YAXXZ 0000000180001110 f   RTreeCooking.obj
 0001:00000120       ??__EmaxFError@_VecMathTests@aos@shdfnd@physx@@YAXXZ 0000000180001120 f   MeshBuilder.obj
 0001:00000130       ??__EmaxV3Error@_VecMathTests@aos@shdfnd@physx@@YAXXZ 0000000180001130 f   MeshBuilder.obj
 0001:00000140       ??__EmaxV4Error@_VecMathTests@aos@shdfnd@physx@@YAXXZ 0000000180001140 f   MeshBuilder.obj
 0001:00000150       ??__EminFError@_VecMathTests@aos@shdfnd@physx@@YAXXZ 0000000180001150 f   MeshBuilder.obj
 0001:00000160       ??__EminV3Error@_VecMathTests@aos@shdfnd@physx@@YAXXZ 0000000180001160 f   MeshBuilder.obj
 0001:00000170       ??__EminV4Error@_VecMathTests@aos@shdfnd@physx@@YAXXZ 0000000180001170 f   MeshBuilder.obj
 0001:00000180       ??__EmaxFError@_VecMathTests@aos@shdfnd@physx@@YAXXZ 0000000180001180 f   TriangleMeshBuilder.obj
 0001:00000190       ??__EmaxV3Error@_VecMathTests@aos@shdfnd@physx@@YAXXZ 0000000180001190 f   TriangleMeshBuilder.obj
 0001:000001a0       ??__EmaxV4Error@_VecMathTests@aos@shdfnd@physx@@YAXXZ 00000001800011a0 f   TriangleMeshBuilder.obj
 0001:000001b0       ??__EminFError@_VecMathTests@aos@shdfnd@physx@@YAXXZ 00000001800011b0 f   TriangleMeshBuilder.obj
 0001:000001c0       ??__EminV3Error@_VecMathTests@aos@shdfnd@physx@@YAXXZ 00000001800011c0 f   TriangleMeshBuilder.obj
 0001:000001d0       ??__EminV4Error@_VecMathTests@aos@shdfnd@physx@@YAXXZ 00000001800011d0 f   TriangleMeshBuilder.obj
 0001:000001e0       ??__EmaxFError@_VecMathTests@aos@shdfnd@physx@@YAXXZ 00000001800011e0 f   BigConvexDataBuilder.obj
 0001:000001f0       ??__EmaxV3Error@_VecMathTests@aos@shdfnd@physx@@YAXXZ 00000001800011f0 f   BigConvexDataBuilder.obj
 0001:00000200       ??__EmaxV4Error@_VecMathTests@aos@shdfnd@physx@@YAXXZ 0000000180001200 f   BigConvexDataBuilder.obj
 0001:00000210       ??__EminFError@_VecMathTests@aos@shdfnd@physx@@YAXXZ 0000000180001210 f   BigConvexDataBuilder.obj
 0001:00000220       ??__EminV3Error@_VecMathTests@aos@shdfnd@physx@@YAXXZ 0000000180001220 f   BigConvexDataBuilder.obj
 0001:00000230       ??__EminV4Error@_VecMathTests@aos@shdfnd@physx@@YAXXZ 0000000180001230 f   BigConvexDataBuilder.obj
 0001:00000240       ??__EmaxFError@_VecMathTests@aos@shdfnd@physx@@YAXXZ 0000000180001240 f   ConvexHullBuilder.obj
 0001:00000250       ??__EmaxV3Error@_VecMathTests@aos@shdfnd@physx@@YAXXZ 0000000180001250 f   ConvexHullBuilder.obj
 0001:00000260       ??__EmaxV4Error@_VecMathTests@aos@shdfnd@physx@@YAXXZ 0000000180001260 f   ConvexHullBuilder.obj
 0001:00000270       ??__EminFError@_VecMathTests@aos@shdfnd@physx@@YAXXZ 0000000180001270 f   ConvexHullBuilder.obj
 0001:00000280       ??__EminV3Error@_VecMathTests@aos@shdfnd@physx@@YAXXZ 0000000180001280 f   ConvexHullBuilder.obj
 0001:00000290       ??__EminV4Error@_VecMathTests@aos@shdfnd@physx@@YAXXZ 0000000180001290 f   ConvexHullBuilder.obj
 0001:000002a0       ??__EmaxFError@_VecMathTests@aos@shdfnd@physx@@YAXXZ 00000001800012a0 f   ConvexHullUtils.obj
 0001:000002b0       ??__EmaxV3Error@_VecMathTests@aos@shdfnd@physx@@YAXXZ 00000001800012b0 f   ConvexHullUtils.obj
 0001:000002c0       ??__EmaxV4Error@_VecMathTests@aos@shdfnd@physx@@YAXXZ 00000001800012c0 f   ConvexHullUtils.obj
 0001:000002d0       ??__EminFError@_VecMathTests@aos@shdfnd@physx@@YAXXZ 00000001800012d0 f   ConvexHullUtils.obj
 0001:000002e0       ??__EminV3Error@_VecMathTests@aos@shdfnd@physx@@YAXXZ 00000001800012e0 f   ConvexHullUtils.obj
 0001:000002f0       ??__EminV4Error@_VecMathTests@aos@shdfnd@physx@@YAXXZ 00000001800012f0 f   ConvexHullUtils.obj
 0001:00000300       ??__EmaxFError@_VecMathTests@aos@shdfnd@physx@@YAXXZ 0000000180001300 f   ConvexMeshBuilder.obj
 0001:00000310       ??__EmaxV3Error@_VecMathTests@aos@shdfnd@physx@@YAXXZ 0000000180001310 f   ConvexMeshBuilder.obj
 0001:00000320       ??__EmaxV4Error@_VecMathTests@aos@shdfnd@physx@@YAXXZ 0000000180001320 f   ConvexMeshBuilder.obj
 0001:00000330       ??__EminFError@_VecMathTests@aos@shdfnd@physx@@YAXXZ 0000000180001330 f   ConvexMeshBuilder.obj
 0001:00000340       ??__EminV3Error@_VecMathTests@aos@shdfnd@physx@@YAXXZ 0000000180001340 f   ConvexMeshBuilder.obj
 0001:00000350       ??__EminV4Error@_VecMathTests@aos@shdfnd@physx@@YAXXZ 0000000180001350 f   ConvexMeshBuilder.obj
 0001:00000360       ??__EmaxFError@_VecMathTests@aos@shdfnd@physx@@YAXXZ 0000000180001360 f   VolumeIntegration.obj
 0001:00000370       ??__EmaxV3Error@_VecMathTests@aos@shdfnd@physx@@YAXXZ 0000000180001370 f   VolumeIntegration.obj
 0001:00000380       ??__EmaxV4Error@_VecMathTests@aos@shdfnd@physx@@YAXXZ 0000000180001380 f   VolumeIntegration.obj
 0001:00000390       ??__EminFError@_VecMathTests@aos@shdfnd@physx@@YAXXZ 0000000180001390 f   VolumeIntegration.obj
 0001:000003a0       ??__EminV3Error@_VecMathTests@aos@shdfnd@physx@@YAXXZ 00000001800013a0 f   VolumeIntegration.obj
 0001:000003b0       ??__EminV4Error@_VecMathTests@aos@shdfnd@physx@@YAXXZ 00000001800013b0 f   VolumeIntegration.obj
 0001:00000640       ?CreateDatabase@@YA_NPEAVAdjTriangle@physx@@IPEBVAdjEdge@@AEBUADJACENCIESCREATE@2@@Z 0000000180001640 f   Adjacencies.obj
 0001:00000c50       ?UpdateLink@@YA_NIIIIPEAVAdjTriangle@physx@@AEBUADJACENCIESCREATE@2@@Z 0000000180001c50 f   Adjacencies.obj
 0001:00008ee0       ?buildFromBounds@physx@@YAXAEAURTree@Gu@1@PEBUPxBounds3V@1@IAEAV?$Array@IV?$ReflectionAllocator@I@shdfnd@physx@@@shdfnd@1@PEAURemapCallback@RTreeCooker@1@AEAT__m128@@4MW4Enum@PxMeshCookingHint@1@@Z 0000000180009ee0 f   RTreeCooking.obj
 0001:0000ce50       ?buildAdjacencies@physx@@YAXPEAUuint4@1@PEAVPxVec3@1@PEBV31@PEBUuint3@1@I@Z 000000018000de50 f   TriangleMeshBuilder.obj
 0001:0000e5d0       ?findAdjacent@physx@@YAIPEBVPxVec3@1@0PEBUuint3@1@IIIAEBVPxPlane@1@PEAUEdgeTriLookup@1@I@Z 000000018000f5d0 f   TriangleMeshBuilder.obj
 0001:000134d0       ?checkPointsAABBValidity@local@@YA_NIPEBVPxVec3@physx@@IMMAEAV23@1AEAIPEAV23@_N@Z 00000001800144d0 f   ConvexHullLib.obj
 0001:00018950       ?ComputeInternalExtent@@YAXAEAUConvexHullData@Gu@physx@@PEBUHullPolygonData@23@@Z 0000000180019950 f   ConvexMeshBuilder.obj
 0001:00019d50       ?CheckFloodFillFace@Local@?7??extractHullPolygons@@YA_NAEAIAEAV?$Array@IV?$ReflectionAllocator@I@shdfnd@physx@@@shdfnd@physx@@AEBVConvexPolygonsBuilder@5@PEAV345@1@Z@SA_NIPEBVAdjTriangle@5@PEBI@Z 000000018001ad50 f   ConvexPolygonsBuilder.obj
 0001:0001a340       ?FloodFill@Local@?7??extractHullPolygons@@YA_NAEAIAEAV?$Array@IV?$ReflectionAllocator@I@shdfnd@physx@@@shdfnd@physx@@AEBVConvexPolygonsBuilder@5@PEAV345@1@Z@SAX1PEBVAdjTriangle@5@IPEA_N@Z 000000018001b340 f   ConvexPolygonsBuilder.obj
 0001:0001a420       ?TestDuplicateTriangles@@YA_NAEAIPEAU?$TriangleT@I@Gu@physx@@_N@Z 000000018001b420 f   ConvexPolygonsBuilder.obj
 0001:0001a5f0       ?checkRedundantVertices@@YAXAEAIAEAV?$Array@IV?$ReflectionAllocator@I@shdfnd@physx@@@shdfnd@physx@@AEBVConvexPolygonsBuilder@3@11@Z 000000018001b5f0 f   ConvexPolygonsBuilder.obj
 0001:0001d310       ?extractHullPolygons@@YA_NAEAIAEAV?$Array@IV?$ReflectionAllocator@I@shdfnd@physx@@@shdfnd@physx@@AEBVConvexPolygonsBuilder@3@PEAV123@1@Z 000000018001e310 f   ConvexPolygonsBuilder.obj
 0001:0001dd80       ?findLineStrip@@YA_NAEAV?$Array@IV?$ReflectionAllocator@I@shdfnd@physx@@@shdfnd@physx@@AEBV?$Array@VPair@@V?$ReflectionAllocator@VPair@@@shdfnd@physx@@@23@@Z 000000018001ed80 f   ConvexPolygonsBuilder.obj
 0001:00025790       ?computeVolumeIntegrals@VolumeIntegratorEberly@?A0x9236742b@physx@@QEAA_NAEAUPxIntegrals@3@AEBVPxVec3@3@@Z 0000000180026790 f   VolumeIntegration.obj
 0001:00026290       ?computeVolumeIntegralsSIMD@VolumeIntegratorEberly@?A0x9236742b@physx@@QEAA_NAEAUPxIntegrals@3@AEBVPxVec3@3@@Z 0000000180027290 f   VolumeIntegration.obj
 0001:00026950       $LN24                      0000000180027950     WindowsCookingDelayLoadHook.obj
 0001:00027480       $$000000                   0000000180028480     LIBCMT:chkstk.obj
 0001:000274e0       ?<lambda_invoker_cdecl>@_Closure_wrapper_0fe033df_2@@CAXQEAX@Z 00000001800284e0 f   libvcruntime:std_type_info.obj
 0001:000274f0       $$000000                   00000001800284f0     LIBCMT:svml_ssinf4_dispatch.obj
 0001:00027560       ?dllmain_crt_dispatch@@YAHQEAUHINSTANCE__@@KQEAX@Z 0000000180028560 f   LIBCMT:dll_dllmain.obj
 0001:000275b0       ?dllmain_crt_process_attach@@YAHQEAUHINSTANCE__@@QEAX@Z 00000001800285b0 f   LIBCMT:dll_dllmain.obj
 0001:000276c8       ?dllmain_crt_process_detach@@YAH_N@Z 00000001800286c8 f   LIBCMT:dll_dllmain.obj
 0001:0002774c       ?dllmain_dispatch@@YAHQEAUHINSTANCE__@@KQEAX@Z 000000018002874c f   LIBCMT:dll_dllmain.obj
 0001:00027a70       $$000000                   0000000180028a70     LIBCMT:svml_ssinf4_sse2.obj
 0001:000283b0       $$000000                   00000001800293b0     LIBCMT:svml_ssinf4_sse4.obj
 0001:00029100       $$000000                   000000018002a100     LIBCMT:svml_s_sin_cout.obj
 0001:000291a4       ?<lambda_invoker_cdecl>@_Closure_wrapper_0fe033df_1@@CAPEAX_K@Z 000000018002a1a4 f   libvcruntime:std_type_info.obj
 0001:00029320       $$000000                   000000018002a320     libvcruntime:memset.obj
 0001:000294e0       $$000000                   000000018002a4e0     libvcruntime:memcpy.obj
 0001:0002a660       ??1TrackRecursion@?1??getDecoratedName@UnDecorator@@CA?AVDName@@XZ@QEAA@XZ 000000018002b660 f   libvcruntime:undname.obj
 0001:00031e60       $$000000                   0000000180032e60     libvcruntime:notify.obj
 0001:00032900       ?try_get_function@@YAPEAXW4function_id@?A0xf6f43728@@QEBDQEBW4module_id@2@2@Z 0000000180033900 f   libvcruntime:winapi_downlevel.obj
 0001:00032cd0       ??$BuildCatchObjectHelperInternal@V__FrameHandler4@@@@YAHPEAUEHExceptionRecord@@PEAXPEAUHandlerType4@FH4@@PEBU_s_CatchableType@@@Z 0000000180033cd0 f   libvcruntime:frame.obj
 0001:00032ed4       ??$BuildCatchObjectInternal@V__FrameHandler4@@@@YAXPEAUEHExceptionRecord@@PEAXPEAUHandlerType4@FH4@@PEBU_s_CatchableType@@@Z 0000000180033ed4 f   libvcruntime:frame.obj
 0001:00032f98       ??$CatchIt@V__FrameHandler4@@@@YAXPEAUEHExceptionRecord@@PEA_KPEAU_CONTEXT@@PEAU_xDISPATCHER_CONTEXT@@PEAUFuncInfo4@FH4@@PEAUHandlerType4@4@PEBU_s_CatchableType@@PEAUTryBlockMapEntry4@4@H1EE@Z 0000000180033f98 f   libvcruntime:frame.obj
 0001:0003306c       ??$FindHandler@V__FrameHandler4@@@@YAXPEAUEHExceptionRecord@@PEA_KPEAU_CONTEXT@@PEAU_xDISPATCHER_CONTEXT@@PEAUFuncInfo4@FH4@@EH1@Z 000000018003406c f   libvcruntime:frame.obj
 0001:00033568       ??$FindHandlerForForeignException@V__FrameHandler4@@@@YAXPEAUEHExceptionRecord@@PEA_KPEAU_CONTEXT@@PEAU_xDISPATCHER_CONTEXT@@PEAUFuncInfo4@FH4@@HH1@Z 0000000180034568 f   libvcruntime:frame.obj
 0001:00034384       ?ExFilterRethrow@@YAHPEAU_EXCEPTION_POINTERS@@PEAUEHExceptionRecord@@PEAH@Z 0000000180035384 f   libvcruntime:frame.obj
 0001:0003440c       ?ExFilterRethrowFH4@@YAHPEAU_EXCEPTION_POINTERS@@PEAUEHExceptionRecord@@HPEAH@Z 000000018003540c f   libvcruntime:frame.obj
 0001:00034724       ?IsInExceptionSpec@@YAEPEAUEHExceptionRecord@@PEBU_s_ESTypeList@@@Z 0000000180035724 f   libvcruntime:frame.obj
 0001:00034814       ?Is_bad_exception_allowed@@YAEPEBU_s_ESTypeList@@@Z 0000000180035814 f   libvcruntime:frame.obj
 0001:00034b10       $$000000                   0000000180035b10     libvcruntime:handlers.obj
 0001:00034d70       $$000000                   0000000180035d70     libucrt:strcmp.obj
 0001:000351e0       $$000000                   00000001800361e0     libucrt:cosf.obj
 0001:000356e0       $$000000                   00000001800366e0     libucrt:sinf.obj
 0001:000360b0       ??$?RV<lambda_d80eeec6fff315bfe5c115232f3240e3>@@AEAV<lambda_6e4b09c48022b2350581041d5f6b0c4c>@@V<lambda_2358e3775559c9db80273638284d5e45>@@@?$__crt_seh_guarded_call@X@@QEAAX$$QEAV<lambda_d80eeec6fff315bfe5c115232f3240e3>@@AEAV<lambda_6e4b09c48022b2350581041d5f6b0c4c>@@$$QEAV<lambda_2358e3775559c9db80273638284d5e45>@@@Z 00000001800370b0 f   libucrt:exit.obj
 0001:000360e8       ??R<lambda_6e4b09c48022b2350581041d5f6b0c4c>@@QEBA@XZ 00000001800370e8 f   libucrt:exit.obj
 0001:000361ac       ?atexit_exception_filter@@YAHK@Z 00000001800371ac f   libucrt:exit.obj
 0001:000361b8       ?common_exit@@YAXHW4_crt_exit_cleanup_mode@@W4_crt_exit_return_mode@@@Z 00000001800371b8 f   libucrt:exit.obj
 0001:00036274       ?exit_or_terminate_process@@YAXI@Z 0000000180037274 f   libucrt:exit.obj
 0001:000362c0       ?try_cor_exit_process@@YAXI@Z 00000001800372c0 f   libucrt:exit.obj
 0001:00036348       ??$parse_command_line@D@@YAXPEADPEAPEAD0PEA_K2@Z 0000000180037348 f   libucrt:argv_parsing.obj
 0001:000366f0       ??$common_initialize_environment_nolock@D@@YAHXZ 00000001800376f0 f   libucrt:environment_initialization.obj
 0001:0003675c       ??$create_environment@D@@YAQEAPEADQEAD@Z 000000018003775c f   libucrt:environment_initialization.obj
 0001:00036864       ??$free_environment@D@@YAXQEAPEAD@Z 0000000180037864 f   libucrt:environment_initialization.obj
 0001:00036864       ??$free_environment@_W@@YAXQEAPEA_W@Z 0000000180037864 f   libucrt:environment_initialization.obj
 0001:000368a8       ??$uninitialize_environment_internal@D@@YAXAEAPEAPEAD@Z 00000001800378a8 f   libucrt:environment_initialization.obj
 0001:000368c4       ??$uninitialize_environment_internal@_W@@YAXAEAPEAPEA_W@Z 00000001800378c4 f   libucrt:environment_initialization.obj
 0001:00036920       ??$?RV<lambda_7777bce6b2f8c936911f934f8298dc43>@@AEAV<lambda_f03950bc5685219e0bcd2087efbe011e>@@V<lambda_3883c3dff614d5e0c5f61bb1ac94921c>@@@?$__crt_seh_guarded_call@H@@QEAAH$$QEAV<lambda_7777bce6b2f8c936911f934f8298dc43>@@AEAV<lambda_f03950bc5685219e0bcd2087efbe011e>@@$$QEAV<lambda_3883c3dff614d5e0c5f61bb1ac94921c>@@@Z 0000000180037920 f   libucrt:onexit.obj
 0001:0003695c       ??R<lambda_f03950bc5685219e0bcd2087efbe011e>@@QEBAHXZ 000000018003795c f   libucrt:onexit.obj
 0001:00036ad8       initialize_global_variables 0000000180037ad8 f   libucrt:initialization.obj
 0001:00036aec       initialize_c               0000000180037aec f   libucrt:initialization.obj
 0001:00036b10       initialize_environment     0000000180037b10 f   libucrt:initialization.obj
 0001:00036b10       initialize_global_state_isolation 0000000180037b10 f   libucrt:initialization.obj
 0001:00036b10       report_memory_leaks        0000000180037b10 f   libucrt:initialization.obj
 0001:00036b10       uninitialize_c             0000000180037b10 f   libucrt:initialization.obj
 0001:00036b10       uninitialize_global_state_isolation 0000000180037b10 f   libucrt:initialization.obj
 0001:00036b14       uninitialize_environment   0000000180037b14 f   libucrt:initialization.obj
 0001:00036b24       initialize_pointers        0000000180037b24 f   libucrt:initialization.obj
 0001:00036b64       uninitialize_vcruntime     0000000180037b64 f   libucrt:initialization.obj
 0001:00036b6c       uninitialize_allocated_memory 0000000180037b6c f   libucrt:initialization.obj
 0001:00036bac       uninitialize_allocated_io_buffers 0000000180037bac f   libucrt:initialization.obj
 0001:00036d68       ??$common_vsprintf@Vformat_validation_base@__crt_stdio_output@@D@@YAH_KQEAD0QEBDQEAU__crt_locale_pointers@@1@Z 0000000180037d68 f   libucrt:output.obj
 0001:00037b18       $LN17                      0000000180038b18     libucrt:output.obj
 0001:00038670       $$000000                   0000000180039670     libucrt:strncmp.obj
 0001:00038804       _call_matherr              0000000180039804 f   libucrt:libm_error.obj
 0001:0003886c       _exception_enabled         000000018003986c f   libucrt:libm_error.obj
 0001:00038bb0       $$000000                   0000000180039bb0     libucrt:remainder_piby2f_forasm.obj
 0001:00038d00       $$000000                   0000000180039d00     libucrt:remainder_piby2_forfma3.obj
 0001:00038f7c       _sincosf_special           0000000180039f7c f   libucrt:sincos_special.obj
 0001:00039090       $$000000                   000000018003a090     libucrt:remainder_piby2f_forc.obj
 0001:0003925c       ??$?RV<lambda_0ae27a3a962d80f24befdcbee591983d>@@AEAV<lambda_8d0ee55de4b1038c4002e0adecdf1839>@@V<lambda_dc504788e8f1664fe9b84e20bfb512f2>@@@?$__crt_seh_guarded_call@X@@QEAAX$$QEAV<lambda_0ae27a3a962d80f24befdcbee591983d>@@AEAV<lambda_8d0ee55de4b1038c4002e0adecdf1839>@@$$QEAV<lambda_dc504788e8f1664fe9b84e20bfb512f2>@@@Z 000000018003a25c f   libucrt:per_thread_data.obj
 0001:0003929c       ??$?RV<lambda_2d41944a1d46af3157314b8a01080d33>@@AEAV<lambda_8f455de75cd7d7f24b4096f044d8b9e6>@@V<lambda_aa500f224e6afead328df44964fe2772>@@@?$__crt_seh_guarded_call@X@@QEAAX$$QEAV<lambda_2d41944a1d46af3157314b8a01080d33>@@AEAV<lambda_8f455de75cd7d7f24b4096f044d8b9e6>@@$$QEAV<lambda_aa500f224e6afead328df44964fe2772>@@@Z 000000018003a29c f   libucrt:per_thread_data.obj
 0001:000392dc       ??$?RV<lambda_aa87e3671a710a21b5dc78c0bdf72e11>@@AEAV<lambda_92619d2358a28f41a33ba319515a20b9>@@V<lambda_6992ecaafeb10aed2b74cb1fae11a551>@@@?$__crt_seh_guarded_call@X@@QEAAX$$QEAV<lambda_aa87e3671a710a21b5dc78c0bdf72e11>@@AEAV<lambda_92619d2358a28f41a33ba319515a20b9>@@$$QEAV<lambda_6992ecaafeb10aed2b74cb1fae11a551>@@@Z 000000018003a2dc f   libucrt:per_thread_data.obj
 0001:00039324       ??$?RV<lambda_f2e299630e499de9f9a165e60fcd3db5>@@AEAV<lambda_2ae9d31cdba2644fcbeaf08da7c24588>@@V<lambda_40d01ff24d0e7b3814fdbdcee8eab3c7>@@@?$__crt_seh_guarded_call@X@@QEAAX$$QEAV<lambda_f2e299630e499de9f9a165e60fcd3db5>@@AEAV<lambda_2ae9d31cdba2644fcbeaf08da7c24588>@@$$QEAV<lambda_40d01ff24d0e7b3814fdbdcee8eab3c7>@@@Z 000000018003a324 f   libucrt:per_thread_data.obj
 0001:00039384       ?construct_ptd_array@@YAXQEAU__acrt_ptd@@@Z 000000018003a384 f   libucrt:per_thread_data.obj
 0001:00039454       ?destroy_fls@@YAXPEAX@Z    000000018003a454 f   libucrt:per_thread_data.obj
 0001:00039474       ?destroy_ptd_array@@YAXQEAU__acrt_ptd@@@Z 000000018003a474 f   libucrt:per_thread_data.obj
 0001:0003956c       ?replace_current_thread_locale_nolock@@YAXQEAU__acrt_ptd@@QEAU__crt_locale_data@@@Z 000000018003a56c f   libucrt:per_thread_data.obj
 0001:00039d80       ?<lambda_invoker_cdecl>@<lambda_a1ce4c8ae42411fd470c77163914f50e>@@CAHPEBX0@Z 000000018003ad80 f   libucrt:argv_wildcards.obj
 0001:0003a098       ??$common_expand_argv_wildcards@D@@YAHQEAPEADQEAPEAPEAD@Z 000000018003b098 f   libucrt:argv_wildcards.obj
 0001:0003a2a4       ??$copy_and_add_argument_to_buffer@D@@YAHQEBD0_KAEAV?$argument_list@D@?A0x5f5c8891@@@Z 000000018003b2a4 f   libucrt:argv_wildcards.obj
 0001:0003a42c       ??$expand_argument_wildcards@D@@YAHQEAD0AEAV?$argument_list@D@?A0x5f5c8891@@@Z 000000018003b42c f   libucrt:argv_wildcards.obj
 0001:0003a978       ??$?RV<lambda_efdfa57d1f175319df784efa44bb7b81>@@AEAV<lambda_5f0a4c1567f8adc6734073e5d1e1b35c>@@V<lambda_2e8a7d3640ea6ccb4c2413664c2db6fd>@@@?$__crt_seh_guarded_call@X@@QEAAX$$QEAV<lambda_efdfa57d1f175319df784efa44bb7b81>@@AEAV<lambda_5f0a4c1567f8adc6734073e5d1e1b35c>@@$$QEAV<lambda_2e8a7d3640ea6ccb4c2413664c2db6fd>@@@Z 000000018003b978 f   libucrt:mbctype.obj
 0001:0003ab34       ?getSystemCP@@YAHH@Z       000000018003bb34 f   libucrt:mbctype.obj
 0001:0003abb4       ?setSBCS@@YAXPEAU__crt_multibyte_data@@@Z 000000018003bbb4 f   libucrt:mbctype.obj
 0001:0003ac44       ?setSBUpLow@@YAXPEAU__crt_multibyte_data@@@Z 000000018003bc44 f   libucrt:mbctype.obj
 0001:0003ae28       ?setmbcp_internal@@YAHH_NQEAU__acrt_ptd@@QEAPEAU__crt_multibyte_data@@@Z 000000018003be28 f   libucrt:mbctype.obj
 0001:0003afe8       ?update_thread_multibyte_data_internal@@YAPEAU__crt_multibyte_data@@QEAU__acrt_ptd@@QEAPEAU1@@Z 000000018003bfe8 f   libucrt:mbctype.obj
 0001:0003b3d8       ?x_ismbbtype_l@@YAHPEAU__crt_locale_pointers@@IHH@Z 000000018003c3d8 f   libucrt:ismbbyte.obj
 0001:0003b734       ?try_get_function@@YAPEAXW4function_id@?A0x391cf84c@@QEBDQEBW4module_id@2@2@Z 000000018003c734 f   libucrt:winapi_thunks.obj
 0001:0003bcf4       ?initialize_inherited_file_handles_nolock@@YAXXZ 000000018003ccf4 f   libucrt:ioinit.obj
 0001:0003bde4       ?initialize_stdio_handles_nolock@@YAXXZ 000000018003cde4 f   libucrt:ioinit.obj
 0001:0003c094       ??$?RV<lambda_450d765d439847d4c735a33c368b5fc0>@@AEAV<lambda_44731a7d0e6d81c3e6aa82d741081786>@@V<lambda_601a2a7da3b7a96e9554ac7215c4b07c>@@@?$__crt_seh_guarded_call@P6AXH@Z@@QEAAP6AXH@Z$$QEAV<lambda_450d765d439847d4c735a33c368b5fc0>@@AEAV<lambda_44731a7d0e6d81c3e6aa82d741081786>@@$$QEAV<lambda_601a2a7da3b7a96e9554ac7215c4b07c>@@@Z 000000018003d094 f   libucrt:signal.obj
 0001:0003c3f0       ??$?RV<lambda_842d9ff0dc9ef11c61343bbaebe7f885>@@AEAV<lambda_c5860995281e5c4ce005b3de8f5874ee>@@V<lambda_d90129c13df834fdcbf8d2b88dafcf2d>@@@?$__crt_seh_guarded_call@X@@QEAAX$$QEAV<lambda_842d9ff0dc9ef11c61343bbaebe7f885>@@AEAV<lambda_c5860995281e5c4ce005b3de8f5874ee>@@$$QEAV<lambda_d90129c13df834fdcbf8d2b88dafcf2d>@@@Z 000000018003d3f0 f   libucrt:fflush.obj
 0001:0003c48c       ??$?RV<lambda_886d6c58226a84441f68b9f2b8217b83>@@AEAV<lambda_ab61a845afdef5b7c387490eaf3616ee>@@V<lambda_f7f22ab5edc0698d5f6905b0d3f44752>@@@?$__crt_seh_guarded_call@X@@QEAAX$$QEAV<lambda_886d6c58226a84441f68b9f2b8217b83>@@AEAV<lambda_ab61a845afdef5b7c387490eaf3616ee>@@$$QEAV<lambda_f7f22ab5edc0698d5f6905b0d3f44752>@@@Z 000000018003d48c f   libucrt:fflush.obj
 0001:0003c56c       ?common_flush_all@@YAH_N@Z 000000018003d56c f   libucrt:fflush.obj
 0001:0003cf70       ?fp_format_a@@YAHQEBNPEAD_KQEAD2H_NIQEAU__crt_locale_pointers@@W4__acrt_rounding_mode@@@Z 000000018003df70 f   libucrt:cvt.obj
 0001:0003d2f0       ?fp_format_e@@YAHQEBNQEAD_K12H_NIQEAU__crt_locale_pointers@@W4__acrt_rounding_mode@@@Z 000000018003e2f0 f   libucrt:cvt.obj
 0001:0003d3e0       ?fp_format_e_internal@@YAHQEAD_KH_NIQEAU_strflt@@2QEAU__crt_locale_pointers@@@Z 000000018003e3e0 f   libucrt:cvt.obj
 0001:0003d5b4       ?fp_format_f_internal@@YAHQEAD_KHQEAU_strflt@@_NQEAU__crt_locale_pointers@@@Z 000000018003e5b4 f   libucrt:cvt.obj
 0001:0003d71c       ?fp_format_g@@YAHQEBNQEAD_K12H_NIW4__acrt_rounding_mode@@QEAU__crt_locale_pointers@@@Z 000000018003e71c f   libucrt:cvt.obj
 0001:0003d864       ?should_round_up@@YA_NQEBN_KFW4__acrt_rounding_mode@@@Z 000000018003e864 f   libucrt:cvt.obj
 0001:0003dcf4       ??$?RV<lambda_410d79af7f07d98d83a3f525b3859a53>@@AEAV<lambda_3e16ef9562a7dcce91392c22ab16ea36>@@V<lambda_38119f0e861e05405d8a144b9b982f0a>@@@?$__crt_seh_guarded_call@X@@QEAAX$$QEAV<lambda_410d79af7f07d98d83a3f525b3859a53>@@AEAV<lambda_3e16ef9562a7dcce91392c22ab16ea36>@@$$QEAV<lambda_38119f0e861e05405d8a144b9b982f0a>@@@Z 000000018003ecf4 f   libucrt:wsetlocale.obj
 0001:0003dee0       $$000000                   000000018003eee0     libucrt:fpsr.obj
 0001:0003eb64       fallbackMethod             000000018003fb64 f   libucrt:strpbrk.obj
 0001:0003ef1c       $LN78                      000000018003ff1c     libucrt:strpbrk.obj
 0001:0003ef58       $LN77                      000000018003ff58     libucrt:strpbrk.obj
 0001:0003ef98       $LN76                      000000018003ff98     libucrt:strpbrk.obj
 0001:0003f204       ?__acrt_LCMapStringA_stat@@YAHPEAU__crt_locale_pointers@@PEB_WKPEBDHPEADHHH@Z 0000000180040204 f   libucrt:lcmapstringa.obj
 0001:0003f5b4       ?initialize_multibyte@@YAHXZ 00000001800405b4 f   libucrt:multibyte_initializer.obj
 0001:0003fa58       ??$?RV<lambda_a37b2b86f63e897a80ea819b0eb08c01>@@AEAV<lambda_38ce7e780aa69e748d6df282ebc68efe>@@V<lambda_99fb1378e971ab6e7edea83e3a7a83a2>@@@?$__crt_seh_guarded_call@H@@QEAAH$$QEAV<lambda_a37b2b86f63e897a80ea819b0eb08c01>@@AEAV<lambda_38ce7e780aa69e748d6df282ebc68efe>@@$$QEAV<lambda_99fb1378e971ab6e7edea83e3a7a83a2>@@@Z 0000000180040a58 f   libucrt:commit.obj
 0001:0003fb78       ?write_double_translated_ansi_nolock@@YA?AUwrite_result@?A0x17268360@@HQEBDI@Z 0000000180040b78 f   libucrt:write.obj
 0001:00040064       ?write_text_ansi_nolock@@YA?AUwrite_result@?A0x17268360@@HQEBDI@Z 0000000180041064 f   libucrt:write.obj
 0001:00040168       ?write_text_utf16le_nolock@@YA?AUwrite_result@?A0x17268360@@HQEBDI@Z 0000000180041168 f   libucrt:write.obj
 0001:00040284       ?write_text_utf8_nolock@@YA?AUwrite_result@?A0x17268360@@HQEBDI@Z 0000000180041284 f   libucrt:write.obj
 0001:000423a0       memcpy_s                   00000001800433a0 f   libucrt:cfout.obj
 0001:000425b4       ?free_crt_array_internal@@YAXQEAPEBX_K@Z 00000001800435b4 f   libucrt:inittime.obj
 0001:00042780       ??$common_lseek_nolock@_J@@YA_JH_JH@Z 0000000180043780 f   libucrt:lseek.obj
 0001:00042d10       $$000000                   0000000180043d10     libucrt:log10.obj
 0001:0004370c       ??$?RV<lambda_751a882b2c74d4b022dec766aa51a29a>@@AEAV<lambda_628dfdc04ba53c8bfc02c9951375f3f5>@@V<lambda_f6c7be5f7998530c34de24c7437d6b54>@@@?$__crt_seh_guarded_call@H@@QEAAH$$QEAV<lambda_751a882b2c74d4b022dec766aa51a29a>@@AEAV<lambda_628dfdc04ba53c8bfc02c9951375f3f5>@@$$QEAV<lambda_f6c7be5f7998530c34de24c7437d6b54>@@@Z 000000018004470c f   libucrt:close.obj
 0001:00043978       common_control87           0000000180044978 f   libucrt:ieee.obj
 0001:00043c60       _log_special_common        0000000180044c60 f   libucrt:log_special.obj
 0001:00043e50       $$000000                   0000000180044e50     LIBCMT:amdsecgs.obj
 0001:000440c0       capture_current_context    00000001800450c0 f   LIBCMT:gs_report.obj
 0001:00044130       capture_previous_context   0000000180045130 f   LIBCMT:gs_report.obj
 0001:000442d0       $$000000                   00000001800452d0     libvcruntime:memcmp.obj
 0001:000443b0       $$000000                   00000001800453b0     LIBCMT:guard_dispatch.obj
 0001:000443d0       $$000000                   00000001800453d0     LIBCMT:guard_xfg_dispatch.obj
 0001:000443f0       ?fin$0@?0??dllmain_crt_process_attach@@YAHQEAUHINSTANCE__@@QEAX@Z@4HA 00000001800453f0 f   LIBCMT:dll_dllmain.obj
 0001:00044407       ?fin$0@?0??dllmain_crt_process_detach@@YAH_N@Z@4HA 0000000180045407 f   LIBCMT:dll_dllmain.obj
 0001:00044420       ?fin$1@?0??dllmain_crt_process_detach@@YAH_N@Z@4HA 0000000180045420 f   LIBCMT:dll_dllmain.obj
 0001:00044434       ?filt$0@?0??dllmain_dispatch@@YAHQEAUHINSTANCE__@@KQEAX@Z@4HA 0000000180045434 f   LIBCMT:dll_dllmain.obj
 0001:0004446a       __scrt_is_nonwritable_in_current_image$filt$0 000000018004546a f   LIBCMT:utility.obj
 0001:00044482       __DestructExceptionObject$filt$0 0000000180045482 f   libvcruntime:ehhelpers.obj
 0001:00044518       ?dtor$0@?0??getDecoratedName@UnDecorator@@CA?AVDName@@XZ@4HA 0000000180045518 f   libvcruntime:undname.obj
 0001:00044524       __unDNameEx$fin$0          0000000180045524 f   libvcruntime:undname.obj
 0001:0004453a       ?filt$0@?0???$_CallSETranslator@V__FrameHandler4@@@@YAHPEAUEHExceptionRecord@@PEA_KPEAU_CONTEXT@@PEAU_xDISPATCHER_CONTEXT@@PEAUFuncInfo4@FH4@@K1H@Z@4HA 000000018004553a f   libvcruntime:risctrnsctrl.obj
 0001:000445d9       ?filt$0@?0??CxxCallCatchBlock@__FrameHandler4@@SAPEAXPEAU_EXCEPTION_RECORD@@@Z@4HA 00000001800455d9 f   libvcruntime:frame.obj
 0001:00044608       ?fin$1@?0??CxxCallCatchBlock@__FrameHandler4@@SAPEAXPEAU_EXCEPTION_RECORD@@@Z@4HA 0000000180045608 f   libvcruntime:frame.obj
 0001:0004468b       ?filt$0@?0??FrameUnwindToState@__FrameHandler4@@SAXPEA_KPEAU_xDISPATCHER_CONTEXT@@PEAUFuncInfo4@FH4@@H@Z@4HA 000000018004568b f   libvcruntime:frame.obj
 0001:000446a1       ?fin$1@?0??FrameUnwindToState@__FrameHandler4@@SAXPEA_KPEAU_xDISPATCHER_CONTEXT@@PEAUFuncInfo4@FH4@@H@Z@4HA 00000001800456a1 f   libvcruntime:frame.obj
 0001:000446c4       ?fin$0@?0???$?RV<lambda_0ae27a3a962d80f24befdcbee591983d>@@AEAV<lambda_8d0ee55de4b1038c4002e0adecdf1839>@@V<lambda_dc504788e8f1664fe9b84e20bfb512f2>@@@?$__crt_seh_guarded_call@X@@QEAAX$$QEAV<lambda_0ae27a3a962d80f24befdcbee591983d>@@AEAV<lambda_8d0ee55de4b1038c4002e0adecdf1839>@@$$QEAV<lambda_dc504788e8f1664fe9b84e20bfb512f2>@@@Z@4HA 00000001800456c4 f   libucrt:per_thread_data.obj
 0001:000446c4       ?fin$0@?0???$?RV<lambda_2d41944a1d46af3157314b8a01080d33>@@AEAV<lambda_8f455de75cd7d7f24b4096f044d8b9e6>@@V<lambda_aa500f224e6afead328df44964fe2772>@@@?$__crt_seh_guarded_call@X@@QEAAX$$QEAV<lambda_2d41944a1d46af3157314b8a01080d33>@@AEAV<lambda_8f455de75cd7d7f24b4096f044d8b9e6>@@$$QEAV<lambda_aa500f224e6afead328df44964fe2772>@@@Z@4HA 00000001800456c4 f   libucrt:per_thread_data.obj
 0001:000446c4       ?fin$0@?0???$?RV<lambda_aa87e3671a710a21b5dc78c0bdf72e11>@@AEAV<lambda_92619d2358a28f41a33ba319515a20b9>@@V<lambda_6992ecaafeb10aed2b74cb1fae11a551>@@@?$__crt_seh_guarded_call@X@@QEAAX$$QEAV<lambda_aa87e3671a710a21b5dc78c0bdf72e11>@@AEAV<lambda_92619d2358a28f41a33ba319515a20b9>@@$$QEAV<lambda_6992ecaafeb10aed2b74cb1fae11a551>@@@Z@4HA 00000001800456c4 f   libucrt:per_thread_data.obj
 0001:000446c4       ?fin$0@?0???$?RV<lambda_f2e299630e499de9f9a165e60fcd3db5>@@AEAV<lambda_2ae9d31cdba2644fcbeaf08da7c24588>@@V<lambda_40d01ff24d0e7b3814fdbdcee8eab3c7>@@@?$__crt_seh_guarded_call@X@@QEAAX$$QEAV<lambda_f2e299630e499de9f9a165e60fcd3db5>@@AEAV<lambda_2ae9d31cdba2644fcbeaf08da7c24588>@@$$QEAV<lambda_40d01ff24d0e7b3814fdbdcee8eab3c7>@@@Z@4HA 00000001800456c4 f   libucrt:per_thread_data.obj
 0001:000446c4       ?fin$0@?0???$?RV<lambda_efdfa57d1f175319df784efa44bb7b81>@@AEAV<lambda_5f0a4c1567f8adc6734073e5d1e1b35c>@@V<lambda_2e8a7d3640ea6ccb4c2413664c2db6fd>@@@?$__crt_seh_guarded_call@X@@QEAAX$$QEAV<lambda_efdfa57d1f175319df784efa44bb7b81>@@AEAV<lambda_5f0a4c1567f8adc6734073e5d1e1b35c>@@$$QEAV<lambda_2e8a7d3640ea6ccb4c2413664c2db6fd>@@@Z@4HA 00000001800456c4 f   libucrt:mbctype.obj
 0001:000446c4       ?fin$0@?0???$?RV<lambda_450d765d439847d4c735a33c368b5fc0>@@AEAV<lambda_44731a7d0e6d81c3e6aa82d741081786>@@V<lambda_601a2a7da3b7a96e9554ac7215c4b07c>@@@?$__crt_seh_guarded_call@P6AXH@Z@@QEAAP6AXH@Z$$QEAV<lambda_450d765d439847d4c735a33c368b5fc0>@@AEAV<lambda_44731a7d0e6d81c3e6aa82d741081786>@@$$QEAV<lambda_601a2a7da3b7a96e9554ac7215c4b07c>@@@Z@4HA 00000001800456c4 f   libucrt:signal.obj
 0001:000446c4       ?fin$0@?0???$?RV<lambda_d80eeec6fff315bfe5c115232f3240e3>@@AEAV<lambda_6e4b09c48022b2350581041d5f6b0c4c>@@V<lambda_2358e3775559c9db80273638284d5e45>@@@?$__crt_seh_guarded_call@X@@QEAAX$$QEAV<lambda_d80eeec6fff315bfe5c115232f3240e3>@@AEAV<lambda_6e4b09c48022b2350581041d5f6b0c4c>@@$$QEAV<lambda_2358e3775559c9db80273638284d5e45>@@@Z@4HA 00000001800456c4 f   libucrt:exit.obj
 0001:000446c4       ?fin$0@?0???$?RV<lambda_7777bce6b2f8c936911f934f8298dc43>@@AEAV<lambda_f03950bc5685219e0bcd2087efbe011e>@@V<lambda_3883c3dff614d5e0c5f61bb1ac94921c>@@@?$__crt_seh_guarded_call@H@@QEAAH$$QEAV<lambda_7777bce6b2f8c936911f934f8298dc43>@@AEAV<lambda_f03950bc5685219e0bcd2087efbe011e>@@$$QEAV<lambda_3883c3dff614d5e0c5f61bb1ac94921c>@@@Z@4HA 00000001800456c4 f   libucrt:onexit.obj
 0001:000446de       ?filt$0@?0???R<lambda_6e4b09c48022b2350581041d5f6b0c4c>@@QEBA@XZ@4HA 00000001800456de f   libucrt:exit.obj
 0001:000446f9       _ctrlfp$filt$0             00000001800456f9 f   libucrt:fpctrl.obj
 0001:000446f9       common_control87$filt$0    00000001800456f9 f   libucrt:ieee.obj
 0001:00044725       ?fin$0@?0??update_thread_multibyte_data_internal@@YAPEAU__crt_multibyte_data@@QEAU__acrt_ptd@@QEAPEAU1@@Z@4HA 0000000180045725 f   libucrt:mbctype.obj
 0001:0004473e       __acrt_initialize_lowio$fin$0 000000018004573e f   libucrt:ioinit.obj
 0001:0004473e       __acrt_lowio_ensure_fh_exists$fin$0 000000018004573e f   libucrt:osfinfo.obj
 0001:00044757       _query_new_handler$fin$0   0000000180045757 f   libucrt:new_handler.obj
 0001:0004476d       raise$fin$0                000000018004576d f   libucrt:signal.obj
 0001:0004478e       ?fin$0@?0???$?RV<lambda_842d9ff0dc9ef11c61343bbaebe7f885>@@AEAV<lambda_c5860995281e5c4ce005b3de8f5874ee>@@V<lambda_d90129c13df834fdcbf8d2b88dafcf2d>@@@?$__crt_seh_guarded_call@X@@QEAAX$$QEAV<lambda_842d9ff0dc9ef11c61343bbaebe7f885>@@AEAV<lambda_c5860995281e5c4ce005b3de8f5874ee>@@$$QEAV<lambda_d90129c13df834fdcbf8d2b88dafcf2d>@@@Z@4HA 000000018004578e f   libucrt:fflush.obj
 0001:000447a9       ?fin$0@?0???$?RV<lambda_886d6c58226a84441f68b9f2b8217b83>@@AEAV<lambda_ab61a845afdef5b7c387490eaf3616ee>@@V<lambda_f7f22ab5edc0698d5f6905b0d3f44752>@@@?$__crt_seh_guarded_call@X@@QEAAX$$QEAV<lambda_886d6c58226a84441f68b9f2b8217b83>@@AEAV<lambda_ab61a845afdef5b7c387490eaf3616ee>@@$$QEAV<lambda_f7f22ab5edc0698d5f6905b0d3f44752>@@@Z@4HA 00000001800457a9 f   libucrt:fflush.obj
 0001:000447c6       ?fin$0@?0???$?RV<lambda_410d79af7f07d98d83a3f525b3859a53>@@AEAV<lambda_3e16ef9562a7dcce91392c22ab16ea36>@@V<lambda_38119f0e861e05405d8a144b9b982f0a>@@@?$__crt_seh_guarded_call@X@@QEAAX$$QEAV<lambda_410d79af7f07d98d83a3f525b3859a53>@@AEAV<lambda_3e16ef9562a7dcce91392c22ab16ea36>@@$$QEAV<lambda_38119f0e861e05405d8a144b9b982f0a>@@@Z@4HA 00000001800457c6 f   libucrt:wsetlocale.obj
 0001:000447e0       __acrt_update_thread_locale_data$fin$0 00000001800457e0 f   libucrt:locale_refcounting.obj
 0001:000447f9       ?fin$0@?0???$?RV<lambda_751a882b2c74d4b022dec766aa51a29a>@@AEAV<lambda_628dfdc04ba53c8bfc02c9951375f3f5>@@V<lambda_f6c7be5f7998530c34de24c7437d6b54>@@@?$__crt_seh_guarded_call@H@@QEAAH$$QEAV<lambda_751a882b2c74d4b022dec766aa51a29a>@@AEAV<lambda_628dfdc04ba53c8bfc02c9951375f3f5>@@$$QEAV<lambda_f6c7be5f7998530c34de24c7437d6b54>@@@Z@4HA 00000001800457f9 f   libucrt:close.obj
 0001:000447f9       ?fin$0@?0???$?RV<lambda_a37b2b86f63e897a80ea819b0eb08c01>@@AEAV<lambda_38ce7e780aa69e748d6df282ebc68efe>@@V<lambda_99fb1378e971ab6e7edea83e3a7a83a2>@@@?$__crt_seh_guarded_call@H@@QEAAH$$QEAV<lambda_a37b2b86f63e897a80ea819b0eb08c01>@@AEAV<lambda_38ce7e780aa69e748d6df282ebc68efe>@@$$QEAV<lambda_99fb1378e971ab6e7edea83e3a7a83a2>@@@Z@4HA 00000001800457f9 f   libucrt:commit.obj
 0001:00044813       _write$fin$0               0000000180045813 f   libucrt:write.obj
 0001:0004482a       _fcloseall$fin$0           000000018004582a f   libucrt:closeall.obj
 0001:00044843       fclose$fin$0               0000000180045843 f   libucrt:fclose.obj
 0001:00044860       _IsNonwritableInCurrentImage$filt$0 0000000180045860 f   LIBCMT:pesect.obj
 0002:00000288       ?minFError$initializer$@_VecMathTests@aos@shdfnd@physx@@3P6AXXZEA 0000000180046288     Cooking.obj
 0002:00000290       ?maxFError$initializer$@_VecMathTests@aos@shdfnd@physx@@3P6AXXZEA 0000000180046290     Cooking.obj
 0002:00000298       ?minV3Error$initializer$@_VecMathTests@aos@shdfnd@physx@@3P6AXXZEA 0000000180046298     Cooking.obj
 0002:000002a0       ?maxV3Error$initializer$@_VecMathTests@aos@shdfnd@physx@@3P6AXXZEA 00000001800462a0     Cooking.obj
 0002:000002a8       ?minV4Error$initializer$@_VecMathTests@aos@shdfnd@physx@@3P6AXXZEA 00000001800462a8     Cooking.obj
 0002:000002b0       ?maxV4Error$initializer$@_VecMathTests@aos@shdfnd@physx@@3P6AXXZEA 00000001800462b0     Cooking.obj
 0002:000002b8       ?minFError$initializer$@_VecMathTests@aos@shdfnd@physx@@3P6AXXZEA 00000001800462b8     BVHStructureBuilder.obj
 0002:000002c0       ?maxFError$initializer$@_VecMathTests@aos@shdfnd@physx@@3P6AXXZEA 00000001800462c0     BVHStructureBuilder.obj
 0002:000002c8       ?minV3Error$initializer$@_VecMathTests@aos@shdfnd@physx@@3P6AXXZEA 00000001800462c8     BVHStructureBuilder.obj
 0002:000002d0       ?maxV3Error$initializer$@_VecMathTests@aos@shdfnd@physx@@3P6AXXZEA 00000001800462d0     BVHStructureBuilder.obj
 0002:000002d8       ?minV4Error$initializer$@_VecMathTests@aos@shdfnd@physx@@3P6AXXZEA 00000001800462d8     BVHStructureBuilder.obj
 0002:000002e0       ?maxV4Error$initializer$@_VecMathTests@aos@shdfnd@physx@@3P6AXXZEA 00000001800462e0     BVHStructureBuilder.obj
 0002:000002e8       ?minFError$initializer$@_VecMathTests@aos@shdfnd@physx@@3P6AXXZEA 00000001800462e8     RTreeCooking.obj
 0002:000002f0       ?maxFError$initializer$@_VecMathTests@aos@shdfnd@physx@@3P6AXXZEA 00000001800462f0     RTreeCooking.obj
 0002:000002f8       ?minV3Error$initializer$@_VecMathTests@aos@shdfnd@physx@@3P6AXXZEA 00000001800462f8     RTreeCooking.obj
 0002:00000300       ?maxV3Error$initializer$@_VecMathTests@aos@shdfnd@physx@@3P6AXXZEA 0000000180046300     RTreeCooking.obj
 0002:00000308       ?minV4Error$initializer$@_VecMathTests@aos@shdfnd@physx@@3P6AXXZEA 0000000180046308     RTreeCooking.obj
 0002:00000310       ?maxV4Error$initializer$@_VecMathTests@aos@shdfnd@physx@@3P6AXXZEA 0000000180046310     RTreeCooking.obj
 0002:00000318       ?minFError$initializer$@_VecMathTests@aos@shdfnd@physx@@3P6AXXZEA 0000000180046318     MeshBuilder.obj
 0002:00000320       ?maxFError$initializer$@_VecMathTests@aos@shdfnd@physx@@3P6AXXZEA 0000000180046320     MeshBuilder.obj
 0002:00000328       ?minV3Error$initializer$@_VecMathTests@aos@shdfnd@physx@@3P6AXXZEA 0000000180046328     MeshBuilder.obj
 0002:00000330       ?maxV3Error$initializer$@_VecMathTests@aos@shdfnd@physx@@3P6AXXZEA 0000000180046330     MeshBuilder.obj
 0002:00000338       ?minV4Error$initializer$@_VecMathTests@aos@shdfnd@physx@@3P6AXXZEA 0000000180046338     MeshBuilder.obj
 0002:00000340       ?maxV4Error$initializer$@_VecMathTests@aos@shdfnd@physx@@3P6AXXZEA 0000000180046340     MeshBuilder.obj
 0002:00000348       ?minFError$initializer$@_VecMathTests@aos@shdfnd@physx@@3P6AXXZEA 0000000180046348     TriangleMeshBuilder.obj
 0002:00000350       ?maxFError$initializer$@_VecMathTests@aos@shdfnd@physx@@3P6AXXZEA 0000000180046350     TriangleMeshBuilder.obj
 0002:00000358       ?minV3Error$initializer$@_VecMathTests@aos@shdfnd@physx@@3P6AXXZEA 0000000180046358     TriangleMeshBuilder.obj
 0002:00000360       ?maxV3Error$initializer$@_VecMathTests@aos@shdfnd@physx@@3P6AXXZEA 0000000180046360     TriangleMeshBuilder.obj
 0002:00000368       ?minV4Error$initializer$@_VecMathTests@aos@shdfnd@physx@@3P6AXXZEA 0000000180046368     TriangleMeshBuilder.obj
 0002:00000370       ?maxV4Error$initializer$@_VecMathTests@aos@shdfnd@physx@@3P6AXXZEA 0000000180046370     TriangleMeshBuilder.obj
 0002:00000378       ?minFError$initializer$@_VecMathTests@aos@shdfnd@physx@@3P6AXXZEA 0000000180046378     BigConvexDataBuilder.obj
 0002:00000380       ?maxFError$initializer$@_VecMathTests@aos@shdfnd@physx@@3P6AXXZEA 0000000180046380     BigConvexDataBuilder.obj
 0002:00000388       ?minV3Error$initializer$@_VecMathTests@aos@shdfnd@physx@@3P6AXXZEA 0000000180046388     BigConvexDataBuilder.obj
 0002:00000390       ?maxV3Error$initializer$@_VecMathTests@aos@shdfnd@physx@@3P6AXXZEA 0000000180046390     BigConvexDataBuilder.obj
 0002:00000398       ?minV4Error$initializer$@_VecMathTests@aos@shdfnd@physx@@3P6AXXZEA 0000000180046398     BigConvexDataBuilder.obj
 0002:000003a0       ?maxV4Error$initializer$@_VecMathTests@aos@shdfnd@physx@@3P6AXXZEA 00000001800463a0     BigConvexDataBuilder.obj
 0002:000003a8       ?minFError$initializer$@_VecMathTests@aos@shdfnd@physx@@3P6AXXZEA 00000001800463a8     ConvexHullBuilder.obj
 0002:000003b0       ?maxFError$initializer$@_VecMathTests@aos@shdfnd@physx@@3P6AXXZEA 00000001800463b0     ConvexHullBuilder.obj
 0002:000003b8       ?minV3Error$initializer$@_VecMathTests@aos@shdfnd@physx@@3P6AXXZEA 00000001800463b8     ConvexHullBuilder.obj
 0002:000003c0       ?maxV3Error$initializer$@_VecMathTests@aos@shdfnd@physx@@3P6AXXZEA 00000001800463c0     ConvexHullBuilder.obj
 0002:000003c8       ?minV4Error$initializer$@_VecMathTests@aos@shdfnd@physx@@3P6AXXZEA 00000001800463c8     ConvexHullBuilder.obj
 0002:000003d0       ?maxV4Error$initializer$@_VecMathTests@aos@shdfnd@physx@@3P6AXXZEA 00000001800463d0     ConvexHullBuilder.obj
 0002:000003d8       ?minFError$initializer$@_VecMathTests@aos@shdfnd@physx@@3P6AXXZEA 00000001800463d8     ConvexHullUtils.obj
 0002:000003e0       ?maxFError$initializer$@_VecMathTests@aos@shdfnd@physx@@3P6AXXZEA 00000001800463e0     ConvexHullUtils.obj
 0002:000003e8       ?minV3Error$initializer$@_VecMathTests@aos@shdfnd@physx@@3P6AXXZEA 00000001800463e8     ConvexHullUtils.obj
 0002:000003f0       ?maxV3Error$initializer$@_VecMathTests@aos@shdfnd@physx@@3P6AXXZEA 00000001800463f0     ConvexHullUtils.obj
 0002:000003f8       ?minV4Error$initializer$@_VecMathTests@aos@shdfnd@physx@@3P6AXXZEA 00000001800463f8     ConvexHullUtils.obj
 0002:00000400       ?maxV4Error$initializer$@_VecMathTests@aos@shdfnd@physx@@3P6AXXZEA 0000000180046400     ConvexHullUtils.obj
 0002:00000408       ?minFError$initializer$@_VecMathTests@aos@shdfnd@physx@@3P6AXXZEA 0000000180046408     ConvexMeshBuilder.obj
 0002:00000410       ?maxFError$initializer$@_VecMathTests@aos@shdfnd@physx@@3P6AXXZEA 0000000180046410     ConvexMeshBuilder.obj
 0002:00000418       ?minV3Error$initializer$@_VecMathTests@aos@shdfnd@physx@@3P6AXXZEA 0000000180046418     ConvexMeshBuilder.obj
 0002:00000420       ?maxV3Error$initializer$@_VecMathTests@aos@shdfnd@physx@@3P6AXXZEA 0000000180046420     ConvexMeshBuilder.obj
 0002:00000428       ?minV4Error$initializer$@_VecMathTests@aos@shdfnd@physx@@3P6AXXZEA 0000000180046428     ConvexMeshBuilder.obj
 0002:00000430       ?maxV4Error$initializer$@_VecMathTests@aos@shdfnd@physx@@3P6AXXZEA 0000000180046430     ConvexMeshBuilder.obj
 0002:00000438       ?minFError$initializer$@_VecMathTests@aos@shdfnd@physx@@3P6AXXZEA 0000000180046438     VolumeIntegration.obj
 0002:00000440       ?maxFError$initializer$@_VecMathTests@aos@shdfnd@physx@@3P6AXXZEA 0000000180046440     VolumeIntegration.obj
 0002:00000448       ?minV3Error$initializer$@_VecMathTests@aos@shdfnd@physx@@3P6AXXZEA 0000000180046448     VolumeIntegration.obj
 0002:00000450       ?maxV3Error$initializer$@_VecMathTests@aos@shdfnd@physx@@3P6AXXZEA 0000000180046450     VolumeIntegration.obj
 0002:00000458       ?minV4Error$initializer$@_VecMathTests@aos@shdfnd@physx@@3P6AXXZEA 0000000180046458     VolumeIntegration.obj
 0002:00000460       ?maxV4Error$initializer$@_VecMathTests@aos@shdfnd@physx@@3P6AXXZEA 0000000180046460     VolumeIntegration.obj
 0002:000005f0       ?minus1w@?A0x6394854b@aos@shdfnd@physx@@3QBMB 00000001800465f0     Cooking.obj
 0002:00000600       ?gMaskXYZ@internalWindowsSimd@aos@shdfnd@physx@@3QBIB 0000000180046600     Cooking.obj
 0002:00000d80       ?minus1w@?A0xda133a41@aos@shdfnd@physx@@3QBMB 0000000180046d80     BVHStructureBuilder.obj
 0002:00000d90       ?gMaskXYZ@internalWindowsSimd@aos@shdfnd@physx@@3QBIB 0000000180046d90     BVHStructureBuilder.obj
 0002:00000e10       ?minus1w@?A0xea11aa7c@aos@shdfnd@physx@@3QBMB 0000000180046e10     RTreeCooking.obj
 0002:00000e20       ?gMaskXYZ@internalWindowsSimd@aos@shdfnd@physx@@3QBIB 0000000180046e20     RTreeCooking.obj
 0002:00000e68       ?stopAtTrisPerPage@physx@@3QBIB 0000000180046e68     RTreeCooking.obj
 0002:00000ea8       ?stopAtTrisPerLeaf@physx@@3QBIB 0000000180046ea8     RTreeCooking.obj
 0002:00001050       ?minus1w@?A0x95be1eff@aos@shdfnd@physx@@3QBMB 0000000180047050     MeshBuilder.obj
 0002:00001060       ?gMaskXYZ@internalWindowsSimd@aos@shdfnd@physx@@3QBIB 0000000180047060     MeshBuilder.obj
 0002:00001080       ?minus1w@?A0xf72fe9d3@aos@shdfnd@physx@@3QBMB 0000000180047080     TriangleMeshBuilder.obj
 0002:00001090       ?gMaskXYZ@internalWindowsSimd@aos@shdfnd@physx@@3QBIB 0000000180047090     TriangleMeshBuilder.obj
 0002:00001450       ?minus1w@?A0xb3d2c3e8@aos@shdfnd@physx@@3QBMB 0000000180047450     BigConvexDataBuilder.obj
 0002:00001460       ?gMaskXYZ@internalWindowsSimd@aos@shdfnd@physx@@3QBIB 0000000180047460     BigConvexDataBuilder.obj
 0002:000014e0       ?minus1w@?A0x13d8670f@aos@shdfnd@physx@@3QBMB 00000001800474e0     ConvexHullBuilder.obj
 0002:000014f0       ?gMaskXYZ@internalWindowsSimd@aos@shdfnd@physx@@3QBIB 00000001800474f0     ConvexHullBuilder.obj
 0002:00001970       ?minus1w@?A0xa873f9cb@aos@shdfnd@physx@@3QBMB 0000000180047970     ConvexHullUtils.obj
 0002:00001980       ?gMaskXYZ@internalWindowsSimd@aos@shdfnd@physx@@3QBIB 0000000180047980     ConvexHullUtils.obj
 0002:00001a20       ?minus1w@?A0xdd7cc75a@aos@shdfnd@physx@@3QBMB 0000000180047a20     ConvexMeshBuilder.obj
 0002:00001a30       ?gMaskXYZ@internalWindowsSimd@aos@shdfnd@physx@@3QBIB 0000000180047a30     ConvexMeshBuilder.obj
 0002:00001fb0       ?minus1w@?A0x9236742b@aos@shdfnd@physx@@3QBMB 0000000180047fb0     VolumeIntegration.obj
 0002:00001fc0       ?gMaskXYZ@internalWindowsSimd@aos@shdfnd@physx@@3QBIB 0000000180047fc0     VolumeIntegration.obj
 0002:00002140       L_abs_mask                 0000000180048140     LIBCMT:svml_ssinf4_dispatch.obj
 0002:00002150       L_real_one                 0000000180048150     LIBCMT:svml_ssinf4_dispatch.obj
 0002:00002160       L_one_half                 0000000180048160     LIBCMT:svml_ssinf4_dispatch.obj
 0002:00002170       L_two_to_neg_13            0000000180048170     LIBCMT:svml_ssinf4_dispatch.obj
 0002:00002180       L_pi_over_two              0000000180048180     LIBCMT:svml_ssinf4_dispatch.obj
 0002:00002190       L_pi_over_two2             0000000180048190     LIBCMT:svml_ssinf4_dispatch.obj
 0002:00002310       ?tokenTable@@3QBUStringLiteral@@B 0000000180048310     libvcruntime:undname.obj
 0002:00002410       ?nameTable@@3QBUStringLiteral@@B 0000000180048410     libvcruntime:undname.obj
 0002:00002940       ?rttiTable@@3QBUStringLiteral@@B 0000000180048940     libvcruntime:undname.obj
 0002:00002990       ?IndirectionName@@3QBUStringLiteral@@B 0000000180048990     libvcruntime:undname.obj
 0002:000029f0       ?PrefixName@@3QBUStringLiteral@@B 00000001800489f0     libvcruntime:undname.obj
 0002:00003630       ?result@?1??IsValidIdentChar@@YA_ND@Z@4U<unnamed-type-result>@?1??InitValidIdentChar@@YA@XZ@B 0000000180049630     libvcruntime:undname.obj
 0002:000037a0       ?ExceptionTemplate@?1??UnwindNestedFrames@__FrameHandler4@@SAXPEA_KPEAUEHExceptionRecord@@PEAU_CONTEXT@@0PEAXPEAUFuncInfo4@FH4@@HHPEAUHandlerType4@6@PEAU_xDISPATCHER_CONTEXT@@E@Z@4U_EXCEPTION_RECORD@@B 00000001800497a0     libvcruntime:risctrnsctrl.obj
 0002:00003838       ?module_names@?A0xf6f43728@@3QBQEB_WB 0000000180049838     libvcruntime:winapi_downlevel.obj
 0002:000038f8       ?candidate_modules@?1??try_get_FlsAlloc@@YAP6AKP6AXPEAX@Z@ZXZ@4QBW4module_id@?A0xf6f43728@@B 00000001800498f8     libvcruntime:winapi_downlevel.obj
 0002:00003910       ?candidate_modules@?1??try_get_FlsFree@@YAP6AHK@ZXZ@4QBW4module_id@?A0xf6f43728@@B 0000000180049910     libvcruntime:winapi_downlevel.obj
 0002:00003920       ?candidate_modules@?1??try_get_FlsGetValue@@YAP6APEAXK@ZXZ@4QBW4module_id@?A0xf6f43728@@B 0000000180049920     libvcruntime:winapi_downlevel.obj
 0002:00003938       ?candidate_modules@?1??try_get_FlsSetValue@@YAP6AHKPEAX@ZXZ@4QBW4module_id@?A0xf6f43728@@B 0000000180049938     libvcruntime:winapi_downlevel.obj
 0002:00003950       ?candidate_modules@?1??try_get_InitializeCriticalSectionEx@@YAP6AHPEAU_RTL_CRITICAL_SECTION@@KK@ZXZ@4QBW4module_id@?A0xf6f43728@@B 0000000180049950     libvcruntime:winapi_downlevel.obj
 0002:000039d0       ?atan_jby256@?1??atan2f@@9@9 00000001800499d0     libucrt:atan2f.obj
 0002:000041d0       L_real_one                 000000018004a1d0     libucrt:cosf.obj
 0002:000041e0       L_one_half                 000000018004a1e0     libucrt:cosf.obj
 0002:000041f0       L_2bypi                    000000018004a1f0     libucrt:cosf.obj
 0002:00004200       L_one_sixth                000000018004a200     libucrt:cosf.obj
 0002:00004210       L_piby2                    000000018004a210     libucrt:cosf.obj
 0002:00004220       L_piby2_1                  000000018004a220     libucrt:cosf.obj
 0002:00004230       L_piby2_1tail              000000018004a230     libucrt:cosf.obj
 0002:00004240       L_piby2_2                  000000018004a240     libucrt:cosf.obj
 0002:00004250       L_piby2_2tail              000000018004a250     libucrt:cosf.obj
 0002:00004260       L_large_x_sse2             000000018004a260     libucrt:cosf.obj
 0002:00004270       L_large_x_fma3             000000018004a270     libucrt:cosf.obj
 0002:00004280       L_sign_mask                000000018004a280     libucrt:cosf.obj
 0002:00004290       L__int_three               000000018004a290     libucrt:cosf.obj
 0002:000042a0       L__min_norm_double         000000018004a2a0     libucrt:cosf.obj
 0002:000042b0       L_two_to_neg_7             000000018004a2b0     libucrt:cosf.obj
 0002:000042c0       L_two_to_neg_13            000000018004a2c0     libucrt:cosf.obj
 0002:000042d0       L_two_to_32_float          000000018004a2d0     libucrt:cosf.obj
 0002:000042d8       L_one_float                000000018004a2d8     libucrt:cosf.obj
 0002:000042e0       L_inf_mask_32              000000018004a2e0     libucrt:cosf.obj
 0002:000042f0       L_signbit                  000000018004a2f0     libucrt:sinf.obj
 0002:00004300       L_sign_mask                000000018004a300     libucrt:sinf.obj
 0002:00004310       L_one                      000000018004a310     libucrt:sinf.obj
 0002:00004320       L_int_three                000000018004a320     libucrt:sinf.obj
 0002:00004330       L_one_half                 000000018004a330     libucrt:sinf.obj
 0002:00004340       L_twobypi                  000000018004a340     libucrt:sinf.obj
 0002:00004350       L_piby2_1                  000000018004a350     libucrt:sinf.obj
 0002:00004360       L_one_sixth                000000018004a360     libucrt:sinf.obj
 0002:00004370       L_piby2_1tail              000000018004a370     libucrt:sinf.obj
 0002:00004380       L_piby2_2                  000000018004a380     libucrt:sinf.obj
 0002:00004390       L_piby2_2tail              000000018004a390     libucrt:sinf.obj
 0002:000043a0       L_inf_mask_32              000000018004a3a0     libucrt:sinf.obj
 0002:000043b0       L_int_two                  000000018004a3b0     libucrt:sinf.obj
 0002:000043c0       L_piby2_lead               000000018004a3c0     libucrt:sinf.obj
 0002:000043d0       L_piby4                    000000018004a3d0     libucrt:sinf.obj
 0002:000043e0       L_mask_3f2                 000000018004a3e0     libucrt:sinf.obj
 0002:000043f0       L_mask_3f8                 000000018004a3f0     libucrt:sinf.obj
 0002:00004400       L_large_x_fma3             000000018004a400     libucrt:sinf.obj
 0002:00004408       L_large_x_sse2             000000018004a408     libucrt:sinf.obj
 0002:00004410       L_near_one                 000000018004a410     libucrt:sinf.obj
 0002:00004418       L_two_to_32                000000018004a418     libucrt:sinf.obj
 0002:00004520       __acrt_initializers        000000018004a520     libucrt:initialization.obj
 0002:00004a40       L__piby2                   000000018004aa40     libucrt:remainder_piby2f_forasm.obj
 0002:00004a50       L_piby2_lead               000000018004aa50     libucrt:remainder_piby2_forfma3.obj
 0002:00004a60       L_fff800                   000000018004aa60     libucrt:remainder_piby2_forfma3.obj
 0002:00004a70       L_piby2_part1              000000018004aa70     libucrt:remainder_piby2_forfma3.obj
 0002:00004a80       L_piby2_part2              000000018004aa80     libucrt:remainder_piby2_forfma3.obj
 0002:00004a90       L_piby2_part3              000000018004aa90     libucrt:remainder_piby2_forfma3.obj
 0002:00004aa0       L_piby2_1                  000000018004aaa0     libucrt:remainder_piby2_forfma3.obj
 0002:00004ab0       L_piby2_2                  000000018004aab0     libucrt:remainder_piby2_forfma3.obj
 0002:00004ac0       L_piby2_3                  000000018004aac0     libucrt:remainder_piby2_forfma3.obj
 0002:00004ad0       L_piby2_1tail              000000018004aad0     libucrt:remainder_piby2_forfma3.obj
 0002:00004ae0       L_piby2_2tail              000000018004aae0     libucrt:remainder_piby2_forfma3.obj
 0002:00004af0       L_piby2_3tail              000000018004aaf0     libucrt:remainder_piby2_forfma3.obj
 0002:00004b00       L_sign_mask                000000018004ab00     libucrt:remainder_piby2_forfma3.obj
 0002:00004b10       L_twobypi                  000000018004ab10     libucrt:remainder_piby2_forfma3.obj
 0002:00004b20       L_point_five               000000018004ab20     libucrt:remainder_piby2_forfma3.obj
 0002:00004b30       L_int_three                000000018004ab30     libucrt:remainder_piby2_forfma3.obj
 0002:00004b40       L_inf_mask_64              000000018004ab40     libucrt:remainder_piby2_forfma3.obj
 0002:00004b50       L_signbit                  000000018004ab50     libucrt:remainder_piby2_forfma3.obj
 0002:00004b60       L_r                        000000018004ab60     libucrt:remainder_piby2_forfma3.obj
 0002:00004b70       L_xc1                      000000018004ab70     libucrt:remainder_piby2_forfma3.obj
 0002:00004b80       L_xc2                      000000018004ab80     libucrt:remainder_piby2_forfma3.obj
 0002:00004b90       L_xc3                      000000018004ab90     libucrt:remainder_piby2_forfma3.obj
 0002:00004ba0       L_sigma                    000000018004aba0     libucrt:remainder_piby2_forfma3.obj
 0002:00004cb0       L__piby2                   000000018004acb0     libucrt:remainder_piby2f_forc.obj
 0002:00004cc0       L__2_by_pi_bits            000000018004acc0     libucrt:remainder_piby2f_forc.obj
 0002:00004d60       ?errtable@@3QBUerrentry@?A0x31fdb9ec@@B 000000018004ad60     libucrt:errno.obj
 0002:00004ec8       ?_mb_locale_names@@3QBQEB_WB 000000018004aec8     libucrt:mbctype.obj
 0002:00004f30       ?module_names@?A0x391cf84c@@3QBQEB_WB 000000018004af30     libucrt:winapi_thunks.obj
 0002:00005438       ?candidate_modules@?1??try_get_AreFileApisANSI@@YAP6AHXZXZ@4QBW4module_id@?A0x391cf84c@@B 000000018004b438     libucrt:winapi_thunks.obj
 0002:00005450       ?candidate_modules@?1??try_get_FlsAlloc@@YAP6AKP6AXPEAX@Z@ZXZ@4QBW4module_id@?A0x391cf84c@@B 000000018004b450     libucrt:winapi_thunks.obj
 0002:00005458       ?candidate_modules@?1??try_get_FlsFree@@YAP6AHK@ZXZ@4QBW4module_id@?A0x391cf84c@@B 000000018004b458     libucrt:winapi_thunks.obj
 0002:00005460       ?candidate_modules@?1??try_get_FlsGetValue@@YAP6APEAXK@ZXZ@4QBW4module_id@?A0x391cf84c@@B 000000018004b460     libucrt:winapi_thunks.obj
 0002:00005468       ?candidate_modules@?1??try_get_FlsSetValue@@YAP6AHKPEAX@ZXZ@4QBW4module_id@?A0x391cf84c@@B 000000018004b468     libucrt:winapi_thunks.obj
 0002:00005470       ?candidate_modules@?1??try_get_InitializeCriticalSectionEx@@YAP6AHPEAU_RTL_CRITICAL_SECTION@@KK@ZXZ@4QBW4module_id@?A0x391cf84c@@B 000000018004b470     libucrt:winapi_thunks.obj
 0002:00005478       ?candidate_modules@?1??try_get_LCMapStringEx@@YAP6AHPEB_WK0HPEA_WHPEAU_nlsversioninfo@@PEAX_J@ZXZ@4QBW4module_id@?A0x391cf84c@@B 000000018004b478     libucrt:winapi_thunks.obj
 0002:00005490       ?candidate_modules@?1??try_get_LocaleNameToLCID@@YAP6AKPEB_WK@ZXZ@4QBW4module_id@?A0x391cf84c@@B 000000018004b490     libucrt:winapi_thunks.obj
 0002:000054ac       ?candidate_modules@?1??try_get_AppPolicyGetProcessTerminationMethod@@YAP6AJPEAXPEAW4AppPolicyProcessTerminationMethod@@@ZXZ@4QBW4module_id@?A0x391cf84c@@B 000000018004b4ac     libucrt:winapi_thunks.obj
 0002:00005b60       ?strings@?1??fp_format_nan_or_infinity@@YAHW4__acrt_fp_class@@_NPEAD_K1@Z@4QAY03QEBDA 000000018004bb60     libucrt:cvt.obj
 0002:00006240       __real@433fffffffffffff    000000018004c240     libucrt:fpsr.obj
 0002:00006248       __real@c33fffffffffffff    000000018004c248     libucrt:fpsr.obj
 0002:00006260       ?LcidToLocaleNameTable@?A0x881e4c05@@3QBULcidToLocaleName@1@B 000000018004c260     libucrt:lcidtoname_downlevel.obj
 0002:00007cc0       ?LocaleNameToIndexTable@?A0x881e4c05@@3QBULocaleNameIndex@1@B 000000018004dcc0     libucrt:lcidtoname_downlevel.obj
 0002:00009f50       __real_ninf                000000018004ff50     libucrt:log10.obj
 0002:00009f60       __real_inf                 000000018004ff60     libucrt:log10.obj
 0002:00009f70       __real_neg_qnan            000000018004ff70     libucrt:log10.obj
 0002:00009f80       __real_qnanbit             000000018004ff80     libucrt:log10.obj
 0002:00009f90       __int_1023                 000000018004ff90     libucrt:log10.obj
 0002:00009fa0       __mask_001                 000000018004ffa0     libucrt:log10.obj
 0002:00009fb0       __mask_mant                000000018004ffb0     libucrt:log10.obj
 0002:00009fc0       __mask_mant_top8           000000018004ffc0     libucrt:log10.obj
 0002:00009fd0       __mask_mant9               000000018004ffd0     libucrt:log10.obj
 0002:00009fe0       __real_log10_e             000000018004ffe0     libucrt:log10.obj
 0002:00009ff0       __real_log10_e_lead        000000018004fff0     libucrt:log10.obj
 0002:0000a000       __real_log10_e_tail        0000000180050000     libucrt:log10.obj
 0002:0000a010       __real_log10_2_lead        0000000180050010     libucrt:log10.obj
 0002:0000a020       __real_log10_2_tail        0000000180050020     libucrt:log10.obj
 0002:0000a030       __real_two                 0000000180050030     libucrt:log10.obj
 0002:0000a040       __real_one                 0000000180050040     libucrt:log10.obj
 0002:0000a050       __real_half                0000000180050050     libucrt:log10.obj
 0002:0000a060       __mask_100                 0000000180050060     libucrt:log10.obj
 0002:0000a070       __real_1_over_512          0000000180050070     libucrt:log10.obj
 0002:0000a080       __real_1_over_2            0000000180050080     libucrt:log10.obj
 0002:0000a090       __real_1_over_3            0000000180050090     libucrt:log10.obj
 0002:0000a0a0       __real_1_over_4            00000001800500a0     libucrt:log10.obj
 0002:0000a0b0       __real_1_over_5            00000001800500b0     libucrt:log10.obj
 0002:0000a0c0       __real_1_over_6            00000001800500c0     libucrt:log10.obj
 0002:0000a0d0       __real_neg_1023            00000001800500d0     libucrt:log10.obj
 0002:0000a0e0       __mask_2045                00000001800500e0     libucrt:log10.obj
 0002:0000a0f0       __real_threshold           00000001800500f0     libucrt:log10.obj
 0002:0000a100       __real_near_one_lt         0000000180050100     libucrt:log10.obj
 0002:0000a110       __real_near_one_gt         0000000180050110     libucrt:log10.obj
 0002:0000a120       __real_min_norm            0000000180050120     libucrt:log10.obj
 0002:0000a130       __real_notsign             0000000180050130     libucrt:log10.obj
 0002:0000a140       __real_ca1                 0000000180050140     libucrt:log10.obj
 0002:0000a150       __real_ca2                 0000000180050150     libucrt:log10.obj
 0002:0000a160       __real_ca3                 0000000180050160     libucrt:log10.obj
 0002:0000a170       __real_ca4                 0000000180050170     libucrt:log10.obj
 0002:0000a180       __mask_lower               0000000180050180     libucrt:log10.obj
 0002:0000a190       __flag_x_zero              0000000180050190     libucrt:log10.obj
 0002:0000a194       __flag_x_neg               0000000180050194     libucrt:log10.obj
 0002:0000a198       __flag_x_nan               0000000180050198     libucrt:log10.obj
 0002:0000b9e0       GS_ExceptionPointers       00000001800519e0     LIBCMT:gs_report.obj
 0002:0000c318       $unwind$??1Adjacencies@physx@@QEAA@XZ 0000000180052318     Adjacencies.obj
 0002:0000c318       $unwind$??_EPxFoundation@physx@@MEAAPEAXI@Z 0000000180052318     Adjacencies.obj
 0002:0000c318       $unwind$??0ConvexMeshBuilder@physx@@QEAA@_N@Z 0000000180052318     ConvexMeshBuilder.obj
 0002:0000c318       $unwind$?isFinite@PxVec3@physx@@QEBA_NXZ 0000000180052318     ConvexMeshBuilder.obj
 0002:0000c318       $unwind$??0ConvexPolygonsBuilder@physx@@QEAA@PEAUConvexHullData@Gu@1@_N@Z 0000000180052318     ConvexPolygonsBuilder.obj
 0002:0000c318       $unwind$??_GCooking@physx@@UEAAPEAXI@Z 0000000180052318     Cooking.obj
 0002:0000c318       $unwind$??_GPxBase@physx@@MEAAPEAXI@Z 0000000180052318     Cooking.obj
 0002:0000c318       $unwind$??_GPxCooking@physx@@MEAAPEAXI@Z 0000000180052318     Cooking.obj
 0002:0000c318       $unwind$?isKindOf@PxConvexMesh@physx@@MEBA_NPEBD@Z 0000000180052318     Cooking.obj
 0002:0000c318       $unwind$?isKindOf@PxHeightField@physx@@MEBA_NPEBD@Z 0000000180052318     Cooking.obj
 0002:0000c318       $unwind$??_GQuantizer@physx@@MEAAPEAXI@Z 0000000180052318     Quantizer.obj
 0002:0000c318       $unwind$??1RTreeTriangleData@Gu@physx@@UEAA@XZ 0000000180052318     TriangleMeshBuilder.obj
 0002:0000c318       $unwind$??1RTreeTriangleMeshBuilder@physx@@UEAA@XZ 0000000180052318     TriangleMeshBuilder.obj
 0002:0000c318       $unwind$??_GRTreeCookerRemap@physx@@UEAAPEAXI@Z 0000000180052318     TriangleMeshBuilder.obj
 0002:0000c318       $unwind$??_GRemapCallback@RTreeCooker@physx@@UEAAPEAXI@Z 0000000180052318     TriangleMeshBuilder.obj
 0002:0000c318       $unwind$?DloadAcquireSectionWriteAccess@@YAXXZ 0000000180052318     Delayimp:delayhlp.obj
 0002:0000c318       $unwind$__raise_securityfailure 0000000180052318     LIBCMT:gs_report.obj
 0002:0000c318       $unwind$??_Gtype_info@@UEAAPEAXI@Z 0000000180052318     LIBCMT:std_type_info_static.obj
 0002:0000c318       $unwind$__scrt_initialize_crt 0000000180052318     LIBCMT:utility.obj
 0002:0000c318       $unwind$__scrt_initialize_onexit_tables 0000000180052318     LIBCMT:utility.obj
 0002:0000c318       $unwind$__scrt_release_startup_lock 0000000180052318     LIBCMT:utility.obj
 0002:0000c318       $unwind$__scrt_uninitialize_crt 0000000180052318     LIBCMT:utility.obj
 0002:0000c318       $unwind$_IsExceptionObjectToBeDestroyed 0000000180052318     libvcruntime:ehhelpers.obj
 0002:0000c318       $unwind$??0HandlerMap4@FH4@@QEAA@PEBUTryBlockMapEntry4@1@_KH@Z 0000000180052318     libvcruntime:frame.obj
 0002:0000c318       $unwind$??0bad_exception@std@@QEAA@AEBV01@@Z 0000000180052318     libvcruntime:frame.obj
 0002:0000c318       $unwind$??0exception@std@@QEAA@AEBV01@@Z 0000000180052318     libvcruntime:frame.obj
 0002:0000c318       $unwind$?ExFilterRethrow@@YAHPEAU_EXCEPTION_POINTERS@@PEAUEHExceptionRecord@@PEAH@Z 0000000180052318     libvcruntime:frame.obj
 0002:0000c318       $unwind$__vcrt_uninitialize_locks 0000000180052318     libvcruntime:locks.obj
 0002:0000c318       $unwind$__vcrt_freeptd     0000000180052318     libvcruntime:per_thread_data.obj
 0002:0000c318       $unwind$_CreateFrameInfo   0000000180052318     libvcruntime:risctrnsctrl.obj
 0002:0000c318       $unwind$_SetImageBase      0000000180052318     libvcruntime:risctrnsctrl.obj
 0002:0000c318       $unwind$_SetThrowImageBase 0000000180052318     libvcruntime:risctrnsctrl.obj
 0002:0000c318       $unwind$__std_exception_destroy 0000000180052318     libvcruntime:std_exception.obj
 0002:0000c318       $unwind$__std_type_info_destroy_list 0000000180052318     libvcruntime:std_type_info.obj
 0002:0000c318       $unwind$??$?0$00@DName@@QEAA@PEBDU?$StringLifeSelector@$00@@@Z 0000000180052318     libvcruntime:undname.obj
 0002:0000c318       $unwind$??$?0$01@DName@@QEAA@PEBDU?$StringLifeSelector@$01@@@Z 0000000180052318     libvcruntime:undname.obj
 0002:0000c318       $unwind$??$?0$0A@@DName@@QEAA@PEBDU?$StringLifeSelector@$0A@@@@Z 0000000180052318     libvcruntime:undname.obj
 0002:0000c318       $unwind$??0DName@@QEAA@AEBUStringLiteral@@@Z 0000000180052318     libvcruntime:undname.obj
 0002:0000c318       $unwind$??HDName@@QEBA?AV0@AEBUStringLiteral@@@Z 0000000180052318     libvcruntime:undname.obj
 0002:0000c318       $unwind$??HDName@@QEBA?AV0@AEBV0@@Z 0000000180052318     libvcruntime:undname.obj
 0002:0000c318       $unwind$??HDName@@QEBA?AV0@D@Z 0000000180052318     libvcruntime:undname.obj
 0002:0000c318       $unwind$??HDName@@QEBA?AV0@W4DNameStatus@@@Z 0000000180052318     libvcruntime:undname.obj
 0002:0000c318       $unwind$??YDName@@QEAAAEAV0@AEBV0@@Z 0000000180052318     libvcruntime:undname.obj
 0002:0000c318       $unwind$??YDName@@QEAAAEAV0@W4DNameStatus@@@Z 0000000180052318     libvcruntime:undname.obj
 0002:0000c318       $unwind$?getLastChar@pairNode@@UEBADXZ 0000000180052318     libvcruntime:undname.obj
 0002:0000c318       $unwind$?getReturnType@UnDecorator@@CA?AVDName@@PEAV2@@Z 0000000180052318     libvcruntime:undname.obj
 0002:0000c318       $unwind$?getStringObject@UnDecorator@@CA?AVDName@@XZ 0000000180052318     libvcruntime:undname.obj
 0002:0000c318       $unwind$?getSymbolName@UnDecorator@@CA?AVDName@@XZ 0000000180052318     libvcruntime:undname.obj
 0002:0000c318       $unwind$?getValue@UnDecorator@@CA?AV?$optional@_K@std@@XZ 0000000180052318     libvcruntime:undname.obj
 0002:0000c318       $unwind$__vcrt_FlsAlloc    0000000180052318     libvcruntime:winapi_downlevel.obj
 0002:0000c318       $unwind$__vcrt_FlsFree     0000000180052318     libvcruntime:winapi_downlevel.obj
 0002:0000c318       $unwind$__vcrt_FlsGetValue 0000000180052318     libvcruntime:winapi_downlevel.obj
 0002:0000c318       $unwind$_calloc_base       0000000180052318     libucrt:calloc_base.obj
 0002:0000c318       $unwind$_malloc_base       0000000180052318     libucrt:malloc_base.obj
 0002:0000c318       $unwind$_callnewh          0000000180052318     libucrt:new_handler.obj
 0002:0000c318       $unwind$initialize_pointers 0000000180052318     libucrt:initialization.obj
 0002:0000c318       $unwind$uninitialize_allocated_memory 0000000180052318     libucrt:initialization.obj
 0002:0000c318       $unwind$__acrt_initialize_locks 0000000180052318     libucrt:locks.obj
 0002:0000c318       $unwind$__acrt_uninitialize_locks 0000000180052318     libucrt:locks.obj
 0002:0000c318       $unwind$__acrt_freeptd     0000000180052318     libucrt:per_thread_data.obj
 0002:0000c318       $unwind$__acrt_getptd_head 0000000180052318     libucrt:per_thread_data.obj
 0002:0000c318       $unwind$__acrt_get_process_end_policy 0000000180052318     libucrt:win_policies.obj
 0002:0000c318       $unwind$__acrt_AppPolicyGetProcessTerminationMethodInternal 0000000180052318     libucrt:winapi_thunks.obj
 0002:0000c318       $unwind$__acrt_FlsAlloc    0000000180052318     libucrt:winapi_thunks.obj
 0002:0000c318       $unwind$__acrt_FlsFree     0000000180052318     libucrt:winapi_thunks.obj
 0002:0000c318       $unwind$__acrt_FlsGetValue 0000000180052318     libucrt:winapi_thunks.obj
 0002:0000c318       $unwind$__acrt_uninitialize_winapi_thunks 0000000180052318     libucrt:winapi_thunks.obj
 0002:0000c318       $unwind$__acrt_update_locale_info 0000000180052318     libucrt:locale_update.obj
 0002:0000c318       $unwind$__acrt_update_multibyte_info 0000000180052318     libucrt:locale_update.obj
 0002:0000c318       $unwind$__acrt_allocate_buffer_for_argv 0000000180052318     libucrt:argv_parsing.obj
 0002:0000c318       $unwind$?exit_or_terminate_process@@YAXI@Z 0000000180052318     libucrt:exit.obj
 0002:0000c318       $unwind$?try_cor_exit_process@@YAXI@Z 0000000180052318     libucrt:exit.obj
 0002:0000c318       $unwind$__acrt_uninitialize_stdio 0000000180052318     libucrt:_file.obj
 0002:0000c318       $unwind$__acrt_stdio_free_buffer_nolock 0000000180052318     libucrt:_freebuf.obj
 0002:0000c318       $unwind$_fflush_nolock     0000000180052318     libucrt:fflush.obj
 0002:0000c318       $unwind$?state_case_normal@?$output_processor@DV?$string_output_adapter@D@__crt_stdio_output@@V?$format_validation_base@DV?$string_output_adapter@D@__crt_stdio_output@@@2@@__crt_stdio_output@@AEAA_NXZ 0000000180052318     libucrt:output.obj
 0002:0000c318       $unwind$?type_case_s@?$output_processor@DV?$string_output_adapter@D@__crt_stdio_output@@V?$format_validation_base@DV?$string_output_adapter@D@__crt_stdio_output@@@2@@__crt_stdio_output@@AEAA_NXZ 0000000180052318     libucrt:output.obj
 0002:0000c318       $unwind$strcpy_s           0000000180052318     libucrt:strcpy_s.obj
 0002:0000c318       $unwind$_clrfp             0000000180052318     libucrt:fpctrl.obj
 0002:0000c318       $unwind$_set_statfp        0000000180052318     libucrt:fpctrl.obj
 0002:0000c318       $unwind$_clearfp           0000000180052318     libucrt:ieee.obj
 0002:0000c318       $unwind$_controlfp_s       0000000180052318     libucrt:contrlfp.obj
 0002:0000c318       $unwind$fegetenv           0000000180052318     libucrt:fegetenv.obj
 0002:0000c318       $unwind$feholdexcept       0000000180052318     libucrt:feholdexcept.obj
 0002:0000c318       $unwind$fesetenv           0000000180052318     libucrt:fesetenv.obj
 0002:0000c320       $chain$0$??_EPxFoundation@physx@@MEAAPEAXI@Z 0000000180052320     Adjacencies.obj
 0002:0000c334       $chain$1$??_EPxFoundation@physx@@MEAAPEAXI@Z 0000000180052334     Adjacencies.obj
 0002:0000c344       $chain$0$??1Adjacencies@physx@@QEAA@XZ 0000000180052344     Adjacencies.obj
 0002:0000c358       $chain$2$??1Adjacencies@physx@@QEAA@XZ 0000000180052358     Adjacencies.obj
 0002:0000c36c       $chain$3$??1Adjacencies@physx@@QEAA@XZ 000000018005236c     Adjacencies.obj
 0002:0000c37c       $unwind$?Init@AdjacenciesBuilder@physx@@QEAA_NAEBUADJACENCIESCREATE@2@@Z 000000018005237c     Adjacencies.obj
 0002:0000c390       $chain$2$?Init@AdjacenciesBuilder@physx@@QEAA_NAEBUADJACENCIESCREATE@2@@Z 0000000180052390     Adjacencies.obj
 0002:0000c3a4       $chain$3$?Init@AdjacenciesBuilder@physx@@QEAA_NAEBUADJACENCIESCREATE@2@@Z 00000001800523a4     Adjacencies.obj
 0002:0000c3b8       $chain$4$?Init@AdjacenciesBuilder@physx@@QEAA_NAEBUADJACENCIESCREATE@2@@Z 00000001800523b8     Adjacencies.obj
 0002:0000c3c8       $chain$5$?Init@AdjacenciesBuilder@physx@@QEAA_NAEBUADJACENCIESCREATE@2@@Z 00000001800523c8     Adjacencies.obj
 0002:0000c3d8       $unwind$??$?_UV?$ReflectionAllocator@VAdjTriangle@physx@@@shdfnd@physx@@@UserAllocated@shdfnd@physx@@SAPEAX_KV?$ReflectionAllocator@VAdjTriangle@physx@@@12@PEBDH@Z 00000001800523d8     Adjacencies.obj
 0002:0000c3d8       $unwind$??$?_UE@@YAPEAX_KV?$ReflectionAllocator@E@shdfnd@physx@@PEBDH@Z 00000001800523d8     ConvexHullBuilder.obj
 0002:0000c3d8       $unwind$??$?_UI@@YAPEAX_KV?$ReflectionAllocator@I@shdfnd@physx@@PEBDH@Z 00000001800523d8     EdgeList.obj
 0002:0000c3d8       $unwind$?allocate@?$ReflectionAllocator@I@shdfnd@physx@@QEAAPEAX_KPEBDH@Z 00000001800523d8     RTreeCooking.obj
 0002:0000c3d8       $unwind$??$?_UG@@YAPEAX_KV?$ReflectionAllocator@G@shdfnd@physx@@PEBDH@Z 00000001800523d8     TriangleMeshBuilder.obj
 0002:0000c3e8       $chain$0$??$?_UV?$ReflectionAllocator@VAdjTriangle@physx@@@shdfnd@physx@@@UserAllocated@shdfnd@physx@@SAPEAX_KV?$ReflectionAllocator@VAdjTriangle@physx@@@12@PEBDH@Z 00000001800523e8     Adjacencies.obj
 0002:0000c3fc       $chain$1$??$?_UV?$ReflectionAllocator@VAdjTriangle@physx@@@shdfnd@physx@@@UserAllocated@shdfnd@physx@@SAPEAX_KV?$ReflectionAllocator@VAdjTriangle@physx@@@12@PEBDH@Z 00000001800523fc     Adjacencies.obj
 0002:0000c40c       $unwind$?UpdateLink@@YA_NIIIIPEAVAdjTriangle@physx@@AEBUADJACENCIESCREATE@2@@Z 000000018005240c     Adjacencies.obj
 0002:0000c418       $chain$3$?UpdateLink@@YA_NIIIIPEAVAdjTriangle@physx@@AEBUADJACENCIESCREATE@2@@Z 0000000180052418     Adjacencies.obj
 0002:0000c438       $chain$5$?UpdateLink@@YA_NIIIIPEAVAdjTriangle@physx@@AEBUADJACENCIESCREATE@2@@Z 0000000180052438     Adjacencies.obj
 0002:0000c450       $chain$6$?UpdateLink@@YA_NIIIIPEAVAdjTriangle@physx@@AEBUADJACENCIESCREATE@2@@Z 0000000180052450     Adjacencies.obj
 0002:0000c460       $chain$7$?UpdateLink@@YA_NIIIIPEAVAdjTriangle@physx@@AEBUADJACENCIESCREATE@2@@Z 0000000180052460     Adjacencies.obj
 0002:0000c478       $chain$8$?UpdateLink@@YA_NIIIIPEAVAdjTriangle@physx@@AEBUADJACENCIESCREATE@2@@Z 0000000180052478     Adjacencies.obj
 0002:0000c488       $unwind$?CreateDatabase@@YA_NPEAVAdjTriangle@physx@@IPEBVAdjEdge@@AEBUADJACENCIESCREATE@2@@Z 0000000180052488     Adjacencies.obj
 0002:0000c4a4       $unwind$?getTransform@Box@Gu@physx@@QEBA?AVPxTransform@3@XZ 00000001800524a4     ConvexHullUtils.obj
 0002:0000c4a4       $unwind$PxCreateCooking    00000001800524a4     Cooking.obj
 0002:0000c4b0       $unwind$?release@Cooking@physx@@UEAAXXZ 00000001800524b0     Cooking.obj
 0002:0000c4b0       $unwind$?cookingDelayHook@@YAP6A_JXZIPEAUDelayLoadInfo@@@Z 00000001800524b0     WindowsCookingDelayLoadHook.obj
 0002:0000c4b0       $unwind$?DloadReleaseSectionWriteAccess@@YAXXZ 00000001800524b0     Delayimp:delayhlp.obj
 0002:0000c4b0       $unwind$__scrt_initialize_default_local_stdio_options 00000001800524b0     LIBCMT:default_local_stdio_options.obj
 0002:0000c4b0       $unwind$?dllmain_crt_dispatch@@YAHQEAUHINSTANCE__@@KQEAX@Z 00000001800524b0     LIBCMT:dll_dllmain.obj
 0002:0000c4b0       $unwind$__report_rangecheckfailure 00000001800524b0     LIBCMT:gs_report.obj
 0002:0000c4b0       $unwind$__GSHandlerCheck   00000001800524b0     LIBCMT:gshandler.obj
 0002:0000c4b0       $unwind$__scrt_acquire_startup_lock 00000001800524b0     LIBCMT:utility.obj
 0002:0000c4b0       $unwind$__scrt_dllmain_after_initialize_c 00000001800524b0     LIBCMT:utility.obj
 0002:0000c4b0       $unwind$__scrt_dllmain_before_initialize_c 00000001800524b0     LIBCMT:utility.obj
 0002:0000c4b0       $unwind$__scrt_dllmain_crt_thread_attach 00000001800524b0     LIBCMT:utility.obj
 0002:0000c4b0       $unwind$__scrt_dllmain_crt_thread_detach 00000001800524b0     LIBCMT:utility.obj
 0002:0000c4b0       $unwind$__scrt_dllmain_uninitialize_c 00000001800524b0     LIBCMT:utility.obj
 0002:0000c4b0       $unwind$__scrt_dllmain_uninitialize_critical 00000001800524b0     LIBCMT:utility.obj
 0002:0000c4b0       $unwind$__vcrt_initialize  00000001800524b0     libvcruntime:initialization.obj
 0002:0000c4b0       $unwind$__vcrt_thread_attach 00000001800524b0     libvcruntime:initialization.obj
 0002:0000c4b0       $unwind$__vcrt_thread_detach 00000001800524b0     libvcruntime:initialization.obj
 0002:0000c4b0       $unwind$__vcrt_uninitialize 00000001800524b0     libvcruntime:initialization.obj
 0002:0000c4b0       $unwind$__vcrt_uninitialize_critical 00000001800524b0     libvcruntime:initialization.obj
 0002:0000c4b0       $unwind$__vcrt_initialize_locks 00000001800524b0     libvcruntime:locks.obj
 0002:0000c4b0       $unwind$__vcrt_freefls     00000001800524b0     libvcruntime:per_thread_data.obj
 0002:0000c4b0       $unwind$__vcrt_getptd      00000001800524b0     libvcruntime:per_thread_data.obj
 0002:0000c4b0       $unwind$__vcrt_initialize_ptd 00000001800524b0     libvcruntime:per_thread_data.obj
 0002:0000c4b0       $unwind$__vcrt_uninitialize_ptd 00000001800524b0     libvcruntime:per_thread_data.obj
 0002:0000c4b0       $unwind$_purecall          00000001800524b0     libvcruntime:purevirt.obj
 0002:0000c4b0       $unwind$?FrameUnwindToEmptyState@__FrameHandler4@@SAXPEA_KPEAU_xDISPATCHER_CONTEXT@@PEAUFuncInfo4@FH4@@@Z 00000001800524b0     libvcruntime:risctrnsctrl.obj
 0002:0000c4b0       $unwind$_GetImageBase      00000001800524b0     libvcruntime:risctrnsctrl.obj
 0002:0000c4b0       $unwind$_GetThrowImageBase 00000001800524b0     libvcruntime:risctrnsctrl.obj
 0002:0000c4b0       $unwind$?getLastChar@pDNameNode@@UEBADXZ 00000001800524b0     libvcruntime:undname.obj
 0002:0000c4b0       $unwind$?getString@pDNameNode@@UEBAPEADPEAD0@Z 00000001800524b0     libvcruntime:undname.obj
 0002:0000c4b0       $unwind$?getTypeEncoding@UnDecorator@@CAHXZ 00000001800524b0     libvcruntime:undname.obj
 0002:0000c4b0       $unwind$?length@pDNameNode@@UEBAHXZ 00000001800524b0     libvcruntime:undname.obj
 0002:0000c4b0       $unwind$__dcrt_terminate_console_output 00000001800524b0     libucrt:initcon.obj
 0002:0000c4b0       $unwind$??$uninitialize_environment_internal@D@@YAXAEAPEAPEAD@Z 00000001800524b0     libucrt:environment_initialization.obj
 0002:0000c4b0       $unwind$??$uninitialize_environment_internal@_W@@YAXAEAPEAPEA_W@Z 00000001800524b0     libucrt:environment_initialization.obj
 0002:0000c4b0       $unwind$__dcrt_uninitialize_environments_nolock 00000001800524b0     libucrt:environment_initialization.obj
 0002:0000c4b0       $unwind$?__c32rtomb_utf8@__crt_mbstring@@YA_KPEAD_UPEAU_Mbstatet@@@Z 00000001800524b0     libucrt:c32rtomb.obj
 0002:0000c4b0       $unwind$__acrt_initialize_heap 00000001800524b0     libucrt:heap_handle.obj
 0002:0000c4b0       $unwind$_msize_base        00000001800524b0     libucrt:msize.obj
 0002:0000c4b0       $unwind$?initialize_multibyte@@YAHXZ 00000001800524b0     libucrt:multibyte_initializer.obj
 0002:0000c4b0       $unwind$__acrt_thread_attach 00000001800524b0     libucrt:initialization.obj
 0002:0000c4b0       $unwind$__acrt_thread_detach 00000001800524b0     libucrt:initialization.obj
 0002:0000c4b0       $unwind$__acrt_uninitialize 00000001800524b0     libucrt:initialization.obj
 0002:0000c4b0       $unwind$__acrt_uninitialize_critical 00000001800524b0     libucrt:initialization.obj
 0002:0000c4b0       $unwind$initialize_c       00000001800524b0     libucrt:initialization.obj
 0002:0000c4b0       $unwind$uninitialize_allocated_io_buffers 00000001800524b0     libucrt:initialization.obj
 0002:0000c4b0       $unwind$uninitialize_environment 00000001800524b0     libucrt:initialization.obj
 0002:0000c4b0       $unwind$__acrt_initialize_ptd 00000001800524b0     libucrt:per_thread_data.obj
 0002:0000c4b0       $unwind$__acrt_uninitialize_ptd 00000001800524b0     libucrt:per_thread_data.obj
 0002:0000c4b0       $unwind$__acrt_AreFileApisANSI 00000001800524b0     libucrt:winapi_thunks.obj
 0002:0000c4b0       $unwind$__pctype_func      00000001800524b0     libucrt:ctype.obj
 0002:0000c4b0       $unwind$__acrt_release_locale_ref 00000001800524b0     libucrt:locale_refcounting.obj
 0002:0000c4b0       $unwind$_isatty            00000001800524b0     libucrt:isatty.obj
 0002:0000c4b0       $unwind$_get_osfhandle     00000001800524b0     libucrt:osfinfo.obj
 0002:0000c4b0       $unwind$__acrt_initialize_multibyte 00000001800524b0     libucrt:mbctype.obj
 0002:0000c4b0       $unwind$__acrt_update_thread_multibyte_data 00000001800524b0     libucrt:mbctype.obj
 0002:0000c4b0       $unwind$__doserrno         00000001800524b0     libucrt:errno.obj
 0002:0000c4b0       $unwind$_errno             00000001800524b0     libucrt:errno.obj
 0002:0000c4b0       $unwind$_invoke_watson     00000001800524b0     libucrt:invalid_parameter.obj
 0002:0000c4b0       $unwind$abort              00000001800524b0     libucrt:abort.obj
 0002:0000c4b0       $unwind$__acrt_initialize_command_line 00000001800524b0     libucrt:argv_data.obj
 0002:0000c4b0       $unwind$_fileno            00000001800524b0     libucrt:fileno.obj
 0002:0000c4b0       $unwind$?state_case_normal_tchar@?$output_processor@DV?$string_output_adapter@D@__crt_stdio_output@@V?$format_validation_base@DV?$string_output_adapter@D@__crt_stdio_output@@@2@@__crt_stdio_output@@AEAA_ND@Z 00000001800524b0     libucrt:output.obj
 0002:0000c4b0       $unwind$?state_case_size@?$output_processor@DV?$string_output_adapter@D@__crt_stdio_output@@V?$format_validation_base@DV?$string_output_adapter@D@__crt_stdio_output@@@2@@__crt_stdio_output@@AEAA_NXZ 00000001800524b0     libucrt:output.obj
 0002:0000c4b0       $unwind$_statfp            00000001800524b0     libucrt:fpctrl.obj
 0002:0000c4b0       $unwind$fegetround         00000001800524b0     libucrt:fegetround.obj
 0002:0000c4b0       $unwind$_set_errno_from_matherr 00000001800524b0     libucrt:fpexcept.obj
 0002:0000c4b8       $unwind$?cookConvexMesh@Cooking@physx@@UEBA_NAEBVPxConvexMeshDesc@2@AEAVPxOutputStream@2@PEAW4Enum@PxConvexMeshCookingResult@2@@Z 00000001800524b8     Cooking.obj
 0002:0000c4b8       $unwind$?cookTriangleMesh@Cooking@physx@@UEBA_NAEBVPxTriangleMeshDesc@2@AEAVPxOutputStream@2@PEAW4Enum@PxTriangleMeshCookingResult@2@@Z 00000001800524b8     Cooking.obj
 0002:0000c4b8       $unwind$?createTriangleMesh@Cooking@physx@@UEBAPEAVPxTriangleMesh@2@AEBVPxTriangleMeshDesc@2@AEAVPxPhysicsInsertionCallback@2@PEAW4Enum@PxTriangleMeshCookingResult@2@@Z 00000001800524b8     Cooking.obj
 0002:0000c4d4       $unwind$?validateTriangleMesh@Cooking@physx@@UEBA_NAEBVPxTriangleMeshDesc@2@@Z 00000001800524d4     Cooking.obj
 0002:0000c4e4       $unwind$?createConvexMesh@Cooking@physx@@UEBAPEAVPxConvexMesh@2@AEBVPxConvexMeshDesc@2@AEAVPxPhysicsInsertionCallback@2@PEAW4Enum@PxConvexMeshCookingResult@2@@Z 00000001800524e4     Cooking.obj
 0002:0000c500       $unwind$?validateConvexMesh@Cooking@physx@@UEBA_NAEBVPxConvexMeshDesc@2@@Z 0000000180052500     Cooking.obj
 0002:0000c510       $unwind$?computeHullPolygons@Cooking@physx@@UEBA_NAEBVPxSimpleTriangleMesh@2@AEAVPxAllocatorCallback@2@AEAIAEAPEAVPxVec3@2@2AEAPEAI2AEAPEAUPxHullPolygon@2@@Z 0000000180052510     Cooking.obj
 0002:0000c530       $unwind$?cookHeightField@Cooking@physx@@UEBA_NAEBVPxHeightFieldDesc@2@AEAVPxOutputStream@2@@Z 0000000180052530     Cooking.obj
 0002:0000c544       $unwind$?createHeightField@Cooking@physx@@UEBAPEAVPxHeightField@2@AEBVPxHeightFieldDesc@2@AEAVPxPhysicsInsertionCallback@2@@Z 0000000180052544     Cooking.obj
 0002:0000c554       $unwind$?cookBVHStructure@Cooking@physx@@UEBA_NAEBVPxBVHStructureDesc@2@AEAVPxOutputStream@2@@Z 0000000180052554     Cooking.obj
 0002:0000c564       $unwind$?createBVHStructure@Cooking@physx@@UEBAPEAVPxBVHStructure@2@AEBVPxBVHStructureDesc@2@AEAVPxPhysicsInsertionCallback@2@@Z 0000000180052564     Cooking.obj
 0002:0000c564       $unwind$?DloadMakePermanentImageCommit@@YAXPEAX_K@Z 0000000180052564     Delayimp:delayhlp.obj
 0002:0000c570       $unwind$?cookConvexMeshInternal@Cooking@physx@@AEBA_NAEBVPxConvexMeshDesc@2@AEAVConvexMeshBuilder@2@PEAVConvexHullLib@2@PEAW4Enum@PxConvexMeshCookingResult@2@@Z 0000000180052570     Cooking.obj
 0002:0000c584       $chain$1$?cookConvexMeshInternal@Cooking@physx@@AEBA_NAEBVPxConvexMeshDesc@2@AEAVConvexMeshBuilder@2@PEAVConvexHullLib@2@PEAW4Enum@PxConvexMeshCookingResult@2@@Z 0000000180052584     Cooking.obj
 0002:0000c598       $chain$2$?cookConvexMeshInternal@Cooking@physx@@AEBA_NAEBVPxConvexMeshDesc@2@AEAVConvexMeshBuilder@2@PEAVConvexHullLib@2@PEAW4Enum@PxConvexMeshCookingResult@2@@Z 0000000180052598     Cooking.obj
 0002:0000c5a8       $chain$3$?cookConvexMeshInternal@Cooking@physx@@AEBA_NAEBVPxConvexMeshDesc@2@AEAVConvexMeshBuilder@2@PEAVConvexHullLib@2@PEAW4Enum@PxConvexMeshCookingResult@2@@Z 00000001800525a8     Cooking.obj
 0002:0000c5bc       $unwind$?allocate@?$Array@USlab@NodeAllocator@Gu@physx@@V?$ReflectionAllocator@USlab@NodeAllocator@Gu@physx@@@shdfnd@4@@shdfnd@physx@@IEAAPEAUSlab@NodeAllocator@Gu@3@I@Z 00000001800525bc     BVHStructureBuilder.obj
 0002:0000c5bc       $unwind$?allocate@?$Array@VHalfEdge@ConvexHull@physx@@V?$ReflectionAllocator@VHalfEdge@ConvexHull@physx@@@shdfnd@3@@shdfnd@physx@@IEAAPEAVHalfEdge@ConvexHull@3@I@Z 00000001800525bc     ConvexHullUtils.obj
 0002:0000c5bc       $unwind$?allocate@?$Array@VPxPlane@physx@@V?$ReflectionAllocator@VPxPlane@physx@@@shdfnd@2@@shdfnd@physx@@IEAAPEAVPxPlane@3@I@Z 00000001800525bc     ConvexHullUtils.obj
 0002:0000c5bc       $unwind$?computeBoxPoints@Box@Gu@physx@@QEBAXPEIAVPxVec3@3@@Z 00000001800525bc     ConvexHullUtils.obj
 0002:0000c5bc       $unwind$?allocate@?$Array@VPair@@V?$ReflectionAllocator@VPair@@@shdfnd@physx@@@shdfnd@physx@@IEAAPEAVPair@@I@Z 00000001800525bc     ConvexPolygonsBuilder.obj
 0002:0000c5bc       $unwind$?allocate@?$Array@UPxDebugLine@physx@@V?$ReflectionAllocator@UPxDebugLine@physx@@@shdfnd@2@@shdfnd@physx@@IEAAPEAUPxDebugLine@3@I@Z 00000001800525bc     Cooking.obj
 0002:0000c5bc       $unwind$?allocate@?$Array@PEAUQuickHullFace@local@@V?$ReflectionAllocator@PEAUQuickHullFace@local@@@shdfnd@physx@@@shdfnd@physx@@IEAAPEAPEAUQuickHullFace@local@@I@Z 00000001800525bc     QuickHullConvexHullLib.obj
 0002:0000c5bc       $unwind$?allocate@?$Array@PEAUQuickHullHalfEdge@local@@V?$ReflectionAllocator@PEAUQuickHullHalfEdge@local@@@shdfnd@physx@@@shdfnd@physx@@IEAAPEAPEAUQuickHullHalfEdge@local@@I@Z 00000001800525bc     QuickHullConvexHullLib.obj
 0002:0000c5bc       $unwind$?allocate@?$Array@PEAUQuickHullVertex@local@@V?$ReflectionAllocator@PEAUQuickHullVertex@local@@@shdfnd@physx@@@shdfnd@physx@@IEAAPEAPEAUQuickHullVertex@local@@I@Z 00000001800525bc     QuickHullConvexHullLib.obj
 0002:0000c5bc       $unwind$?allocate@?$Array@UExpandPoint@local@@V?$ReflectionAllocator@UExpandPoint@local@@@shdfnd@physx@@@shdfnd@physx@@IEAAPEAUExpandPoint@local@@I@Z 00000001800525bc     QuickHullConvexHullLib.obj
 0002:0000c5bc       $unwind$?allocate@?$Array@UInterval@physx@@V?$InlineAllocator@$0CAAA@V?$ReflectionAllocator@UInterval@physx@@@shdfnd@physx@@@shdfnd@2@@shdfnd@physx@@IEAAPEAUInterval@3@I@Z 00000001800525bc     RTreeCooking.obj
 0002:0000c5bc       $unwind$?allocate@?$Array@UPxBounds3V@physx@@V?$ReflectionAllocator@UPxBounds3V@physx@@@shdfnd@2@@shdfnd@physx@@IEAAPEAUPxBounds3V@3@I@Z 00000001800525bc     RTreeCooking.obj
 0002:0000c5bc       $unwind$?allocate@?$Array@URTreeNodeNQ@physx@@V?$ReflectionAllocator@URTreeNodeNQ@physx@@@shdfnd@2@@shdfnd@physx@@IEAAPEAURTreeNodeNQ@3@I@Z 00000001800525bc     RTreeCooking.obj
 0002:0000c5bc       $unwind$?allocate@?$Array@URTreeNodeQ@Gu@physx@@V?$ReflectionAllocator@URTreeNodeQ@Gu@physx@@@shdfnd@3@@shdfnd@physx@@IEAAPEAURTreeNodeQ@Gu@3@I@Z 00000001800525bc     RTreeCooking.obj
 0002:0000c5bc       $unwind$?allocate@?$Array@VPxVec3@physx@@V?$ReflectionAllocator@VPxVec3@physx@@@shdfnd@2@@shdfnd@physx@@IEAAPEAVPxVec3@3@I@Z 00000001800525bc     RTreeCooking.obj
 0002:0000c5bc       $unwind$atol               00000001800525bc     libucrt:atox.obj
 0002:0000c5bc       $unwind$strtol             00000001800525bc     libucrt:strtox.obj
 0002:0000c5bc       $unwind$_invalid_parameter_noinfo 00000001800525bc     libucrt:invalid_parameter.obj
 0002:0000c5bc       $unwind$_log10_special     00000001800525bc     libucrt:log_special.obj
 0002:0000c5c4       $chain$1$?allocate@?$Array@UPxDebugLine@physx@@V?$ReflectionAllocator@UPxDebugLine@physx@@@shdfnd@2@@shdfnd@physx@@IEAAPEAUPxDebugLine@3@I@Z 00000001800525c4     Cooking.obj
 0002:0000c5dc       $chain$3$?allocate@?$Array@UPxDebugLine@physx@@V?$ReflectionAllocator@UPxDebugLine@physx@@@shdfnd@2@@shdfnd@physx@@IEAAPEAUPxDebugLine@3@I@Z 00000001800525dc     Cooking.obj
 0002:0000c5f0       $chain$4$?allocate@?$Array@UPxDebugLine@physx@@V?$ReflectionAllocator@UPxDebugLine@physx@@@shdfnd@2@@shdfnd@physx@@IEAAPEAUPxDebugLine@3@I@Z 00000001800525f0     Cooking.obj
 0002:0000c600       $unwind$?recreate@?$Array@USlab@NodeAllocator@Gu@physx@@V?$ReflectionAllocator@USlab@NodeAllocator@Gu@physx@@@shdfnd@4@@shdfnd@physx@@IEAAXI@Z 0000000180052600     BVHStructureBuilder.obj
 0002:0000c600       $unwind$?recreate@?$Array@VHalfEdge@ConvexHull@physx@@V?$ReflectionAllocator@VHalfEdge@ConvexHull@physx@@@shdfnd@3@@shdfnd@physx@@IEAAXI@Z 0000000180052600     ConvexHullUtils.obj
 0002:0000c600       $unwind$?recreate@?$Array@VPxPlane@physx@@V?$ReflectionAllocator@VPxPlane@physx@@@shdfnd@2@@shdfnd@physx@@IEAAXI@Z 0000000180052600     ConvexHullUtils.obj
 0002:0000c600       $unwind$?copy@ConvexMeshBuilder@physx@@QEAA_NAEAUConvexHullInitData@Gu@2@@Z 0000000180052600     ConvexMeshBuilder.obj
 0002:0000c600       $unwind$?recreate@?$Array@UPxDebugLine@physx@@V?$ReflectionAllocator@UPxDebugLine@physx@@@shdfnd@2@@shdfnd@physx@@IEAAXI@Z 0000000180052600     Cooking.obj
 0002:0000c600       $unwind$?recreate@?$Array@PEAUQuickHullFace@local@@V?$ReflectionAllocator@PEAUQuickHullFace@local@@@shdfnd@physx@@@shdfnd@physx@@IEAAXI@Z 0000000180052600     QuickHullConvexHullLib.obj
 0002:0000c600       $unwind$?recreate@?$Array@PEAUQuickHullHalfEdge@local@@V?$ReflectionAllocator@PEAUQuickHullHalfEdge@local@@@shdfnd@physx@@@shdfnd@physx@@IEAAXI@Z 0000000180052600     QuickHullConvexHullLib.obj
 0002:0000c600       $unwind$?recreate@?$Array@PEAUQuickHullVertex@local@@V?$ReflectionAllocator@PEAUQuickHullVertex@local@@@shdfnd@physx@@@shdfnd@physx@@IEAAXI@Z 0000000180052600     QuickHullConvexHullLib.obj
 0002:0000c600       $unwind$?recreate@?$Array@UExpandPoint@local@@V?$ReflectionAllocator@UExpandPoint@local@@@shdfnd@physx@@@shdfnd@physx@@IEAAXI@Z 0000000180052600     QuickHullConvexHullLib.obj
 0002:0000c600       $unwind$?recreate@?$Array@IV?$ReflectionAllocator@I@shdfnd@physx@@@shdfnd@physx@@IEAAXI@Z 0000000180052600     RTreeCooking.obj
 0002:0000c600       $unwind$?recreate@?$Array@UPxBounds3V@physx@@V?$ReflectionAllocator@UPxBounds3V@physx@@@shdfnd@2@@shdfnd@physx@@IEAAXI@Z 0000000180052600     RTreeCooking.obj
 0002:0000c600       $unwind$?recreate@?$Array@URTreeNodeNQ@physx@@V?$ReflectionAllocator@URTreeNodeNQ@physx@@@shdfnd@2@@shdfnd@physx@@IEAAXI@Z 0000000180052600     RTreeCooking.obj
 0002:0000c600       $unwind$?recreate@?$Array@URTreeNodeQ@Gu@physx@@V?$ReflectionAllocator@URTreeNodeQ@Gu@physx@@@shdfnd@3@@shdfnd@physx@@IEAAXI@Z 0000000180052600     RTreeCooking.obj
 0002:0000c600       $unwind$?recreate@?$Array@VPxVec3@physx@@V?$ReflectionAllocator@VPxVec3@physx@@@shdfnd@2@@shdfnd@physx@@IEAAXI@Z 0000000180052600     RTreeCooking.obj
 0002:0000c610       $chain$0$?recreate@?$Array@UPxDebugLine@physx@@V?$ReflectionAllocator@UPxDebugLine@physx@@@shdfnd@2@@shdfnd@physx@@IEAAXI@Z 0000000180052610     Cooking.obj
 0002:0000c624       $chain$1$?recreate@?$Array@UPxDebugLine@physx@@V?$ReflectionAllocator@UPxDebugLine@physx@@@shdfnd@2@@shdfnd@physx@@IEAAXI@Z 0000000180052624     Cooking.obj
 0002:0000c634       $unwind$??$copy@V?$ReflectionAllocator@USlab@NodeAllocator@Gu@physx@@@shdfnd@physx@@@?$Array@USlab@NodeAllocator@Gu@physx@@V?$ReflectionAllocator@USlab@NodeAllocator@Gu@physx@@@shdfnd@4@@shdfnd@physx@@IEAAXAEBV012@@Z 0000000180052634     BVHStructureBuilder.obj
 0002:0000c634       $unwind$??0NodeAllocator@Gu@physx@@QEAA@AEBV012@@Z 0000000180052634     BVHStructureBuilder.obj
 0002:0000c634       $unwind$??1ConvexHullLib@physx@@UEAA@XZ 0000000180052634     ConvexHullLib.obj
 0002:0000c634       $unwind$??1ConvexMeshBuilder@physx@@QEAA@XZ 0000000180052634     ConvexMeshBuilder.obj
 0002:0000c634       $unwind$??$copy@V?$ReflectionAllocator@VPair@@@shdfnd@physx@@@?$Array@VPair@@V?$ReflectionAllocator@VPair@@@shdfnd@physx@@@shdfnd@physx@@IEAAXAEBV012@@Z 0000000180052634     ConvexPolygonsBuilder.obj
 0002:0000c634       $unwind$??1ConvexPolygonsBuilder@physx@@QEAA@XZ 0000000180052634     ConvexPolygonsBuilder.obj
 0002:0000c634       $unwind$?reserveSegments@RenderOutput@Cm@physx@@QEAAPEAUPxDebugLine@3@I@Z 0000000180052634     Cooking.obj
 0002:0000c634       $unwind$?Clean@ReducedVertexCloud@physx@@QEAAAEAV12@XZ 0000000180052634     CookingUtils.obj
 0002:0000c634       $unwind$?computeLocalBounds@MeshBulider@physx@@IEAAXAEAVMeshDataBase@Gu@2@@Z 0000000180052634     MeshBuilder.obj
 0002:0000c634       $unwind$??1QuickHull@local@@QEAA@XZ 0000000180052634     QuickHullConvexHullLib.obj
 0002:0000c634       $unwind$?fillConvexMeshDesc@QuickHullConvexHullLib@physx@@UEAAXAEAVPxConvexMeshDesc@2@@Z 0000000180052634     QuickHullConvexHullLib.obj
 0002:0000c634       $unwind$?resizeUninitialized@?$Array@URTreeNodeNQ@physx@@V?$ReflectionAllocator@URTreeNodeNQ@physx@@@shdfnd@2@@shdfnd@physx@@QEAAXI@Z 0000000180052634     RTreeCooking.obj
 0002:0000c634       $unwind$??0BV4TriangleMeshBuilder@physx@@QEAA@AEBUPxCookingParams@1@@Z 0000000180052634     TriangleMeshBuilder.obj
 0002:0000c634       $unwind$??1BV4TriangleMeshBuilder@physx@@UEAA@XZ 0000000180052634     TriangleMeshBuilder.obj
 0002:0000c634       $unwind$??1TriangleMeshBuilder@physx@@UEAA@XZ 0000000180052634     TriangleMeshBuilder.obj
 0002:0000c634       $unwind$??1TriangleMeshData@Gu@physx@@UEAA@XZ 0000000180052634     TriangleMeshBuilder.obj
 0002:0000c634       $unwind$??_GBV4TriangleData@Gu@physx@@UEAAPEAXI@Z 0000000180052634     TriangleMeshBuilder.obj
 0002:0000c634       $unwind$??_GMeshDataBase@Gu@physx@@UEAAPEAXI@Z 0000000180052634     TriangleMeshBuilder.obj
 0002:0000c634       $unwind$??_GRTreeTriangleData@Gu@physx@@UEAAPEAXI@Z 0000000180052634     TriangleMeshBuilder.obj
 0002:0000c634       $unwind$??_GRTreeTriangleMeshBuilder@physx@@UEAAPEAXI@Z 0000000180052634     TriangleMeshBuilder.obj
 0002:0000c634       $unwind$??_GTriangleMeshBuilder@physx@@UEAAPEAXI@Z 0000000180052634     TriangleMeshBuilder.obj
 0002:0000c634       $unwind$??_GTriangleMeshData@Gu@physx@@UEAAPEAXI@Z 0000000180052634     TriangleMeshBuilder.obj
 0002:0000c634       $unwind$?DloadGetSRWLockFunctionPointers@@YAEXZ 0000000180052634     Delayimp:delayhlp.obj
 0002:0000c634       $unwind$_RTC_Initialize    0000000180052634     LIBCMT:initsect.obj
 0002:0000c634       $unwind$_RTC_Terminate     0000000180052634     LIBCMT:initsect.obj
 0002:0000c634       $unwind$__FrameUnwindFilter 0000000180052634     libvcruntime:ehhelpers.obj
 0002:0000c634       $unwind$??_Gbad_exception@std@@UEAAPEAXI@Z 0000000180052634     libvcruntime:frame.obj
 0002:0000c634       $unwind$??_Gexception@std@@UEAAPEAXI@Z 0000000180052634     libvcruntime:frame.obj
 0002:0000c634       $unwind$?ExFilterRethrowFH4@@YAHPEAU_EXCEPTION_POINTERS@@PEAUEHExceptionRecord@@HPEAH@Z 0000000180052634     libvcruntime:frame.obj
 0002:0000c634       $unwind$_FindAndUnlinkFrame 0000000180052634     libvcruntime:risctrnsctrl.obj
 0002:0000c634       $unwind$??$append@VDNameNode@@@DName@@AEAAXPEBVDNameNode@@@Z 0000000180052634     libvcruntime:undname.obj
 0002:0000c634       $unwind$??$append@VDNameStatusNode@@@DName@@AEAAXPEBVDNameStatusNode@@@Z 0000000180052634     libvcruntime:undname.obj
 0002:0000c634       $unwind$??$append@VcharNode@@@DName@@AEAAXPEBVcharNode@@@Z 0000000180052634     libvcruntime:undname.obj
 0002:0000c634       $unwind$??$append@VpcharNode@@@DName@@AEAAXPEBVpcharNode@@@Z 0000000180052634     libvcruntime:undname.obj
 0002:0000c634       $unwind$??YDName@@QEAAAEAV0@AEBUStringLiteral@@@Z 0000000180052634     libvcruntime:undname.obj
 0002:0000c634       $unwind$??YDName@@QEAAAEAV0@D@Z 0000000180052634     libvcruntime:undname.obj
 0002:0000c634       $unwind$??YReplicator@@QEAAAEAV0@AEBVDName@@@Z 0000000180052634     libvcruntime:undname.obj
 0002:0000c634       $unwind$?getString@pairNode@@UEBAPEADPEAD0@Z 0000000180052634     libvcruntime:undname.obj
 0002:0000c634       $unwind$?length@pairNode@@UEBAHXZ 0000000180052634     libvcruntime:undname.obj
 0002:0000c634       $unwind$__vcrt_FlsSetValue 0000000180052634     libvcruntime:winapi_downlevel.obj
 0002:0000c634       $unwind$??$common_initialize_environment_nolock@D@@YAHXZ 0000000180052634     libucrt:environment_initialization.obj
 0002:0000c634       $unwind$_realloc_base      0000000180052634     libucrt:realloc_base.obj
 0002:0000c634       $unwind$?replace_current_thread_locale_nolock@@YAXQEAU__acrt_ptd@@QEAU__crt_locale_data@@@Z 0000000180052634     libucrt:per_thread_data.obj
 0002:0000c634       $unwind$__acrt_execute_uninitializers 0000000180052634     libucrt:shared_initialization.obj
 0002:0000c634       $unwind$__acrt_FlsSetValue 0000000180052634     libucrt:winapi_thunks.obj
 0002:0000c634       $unwind$__acrt_LocaleNameToLCID 0000000180052634     libucrt:winapi_thunks.obj
 0002:0000c634       $unwind$_updatetlocinfoEx_nolock 0000000180052634     libucrt:locale_refcounting.obj
 0002:0000c634       $unwind$_close_nolock      0000000180052634     libucrt:close.obj
 0002:0000c634       $unwind$__acrt_uninitialize_lowio 0000000180052634     libucrt:ioinit.obj
 0002:0000c634       $unwind$__acrt_errno_map_os_error 0000000180052634     libucrt:errno.obj
 0002:0000c634       $unwind$_initterm_e        0000000180052634     libucrt:initterm.obj
 0002:0000c634       $unwind$_fclose_nolock     0000000180052634     libucrt:fclose.obj
 0002:0000c634       $unwind$?type_case_n@?$output_processor@DV?$string_output_adapter@D@__crt_stdio_output@@V?$format_validation_base@DV?$string_output_adapter@D@__crt_stdio_output@@@2@@__crt_stdio_output@@AEAA_NXZ 0000000180052634     libucrt:output.obj
 0002:0000c634       $unwind$strncpy_s          0000000180052634     libucrt:strncpy_s.obj
 0002:0000c640       $unwind$?outputSegment@RenderOutput@Cm@physx@@QEAAXAEBVPxVec3@3@0@Z 0000000180052640     Cooking.obj
 0002:0000c658       $unwind$?getHeight@HeightField@Gu@physx@@UEBAMMM@Z 0000000180052658     Cooking.obj
 0002:0000c658       $unwind$?getAddressOf@UnDecorator@@CA?AVDName@@XZ 0000000180052658     libvcruntime:undname.obj
 0002:0000c658       $unwind$?getArrayAccess@UnDecorator@@CA?AVDName@@XZ 0000000180052658     libvcruntime:undname.obj
 0002:0000c658       $unwind$?getArrayObject@UnDecorator@@CA?AVDName@@XZ 0000000180052658     libvcruntime:undname.obj
 0002:0000c658       $unwind$?getMemberAccess@UnDecorator@@CA?AVDName@@XZ 0000000180052658     libvcruntime:undname.obj
 0002:0000c658       $unwind$?getStringEncoding@UnDecorator@@CA?AVDName@@W4PrefixKind@@H@Z 0000000180052658     libvcruntime:undname.obj
 0002:0000c658       $unwind$?getUnionObject@UnDecorator@@CA?AVDName@@XZ 0000000180052658     libvcruntime:undname.obj
 0002:0000c658       $unwind$__dcrt_lowio_ensure_console_output_initialized 0000000180052658     libucrt:initcon.obj
 0002:0000c658       $unwind$_isleadbyte_l      0000000180052658     libucrt:_wctype.obj
 0002:0000c658       $unwind$?getSystemCP@@YAHH@Z 0000000180052658     libucrt:mbctype.obj
 0002:0000c660       $unwind$?getTriangleNormal@HeightField@Gu@physx@@UEBA?AVPxVec3@3@I@Z 0000000180052660     Cooking.obj
 0002:0000c66c       $unwind$?getHeightInternal2@HeightField@Gu@physx@@QEBAMIMM@Z 000000018005266c     Cooking.obj
 0002:0000c678       $chain$0$?getHeightInternal2@HeightField@Gu@physx@@QEBAMIMM@Z 0000000180052678     Cooking.obj
 0002:0000c68c       $chain$2$?getHeightInternal2@HeightField@Gu@physx@@QEBAMIMM@Z 000000018005268c     Cooking.obj
 0002:0000c6a0       $unwind$?Reduce@ReducedVertexCloud@physx@@QEAA_NPEAUREDUCEDCLOUD@2@@Z 00000001800526a0     CookingUtils.obj
 0002:0000c6bc       $unwind$??1AABBTreeBuildParams@Gu@physx@@QEAA@XZ 00000001800526bc     BVHStructureBuilder.obj
 0002:0000c6bc       $unwind$??1BVHStructureBuilder@physx@@QEAA@XZ 00000001800526bc     BVHStructureBuilder.obj
 0002:0000c6bc       $unwind$?reset@AABBTreeBuildParams@Gu@physx@@QEAAXXZ 00000001800526bc     BVHStructureBuilder.obj
 0002:0000c6bc       $unwind$??1ConvexHullBuilder@physx@@QEAA@XZ 00000001800526bc     ConvexHullBuilder.obj
 0002:0000c6bc       $unwind$??_GConvexHullLib@physx@@UEAAPEAXI@Z 00000001800526bc     ConvexHullLib.obj
 0002:0000c6bc       $unwind$?resize@?$Array@VPxPlane@physx@@V?$ReflectionAllocator@VPxPlane@physx@@@shdfnd@2@@shdfnd@physx@@QEAAXIAEBVPxPlane@3@@Z 00000001800526bc     ConvexHullUtils.obj
 0002:0000c6bc       $unwind$?resize@?$Array@VPxVec3@physx@@V?$ReflectionAllocator@VPxVec3@physx@@@shdfnd@2@@shdfnd@physx@@QEAAXIAEBVPxVec3@3@@Z 00000001800526bc     ConvexHullUtils.obj
 0002:0000c6bc       $unwind$??1EdgeList@Gu@physx@@QEAA@XZ 00000001800526bc     EdgeList.obj
 0002:0000c6bc       $unwind$??1MeshCleaner@physx@@QEAA@XZ 00000001800526bc     MeshCleaner.obj
 0002:0000c6bc       $unwind$??1MeshDataBase@Gu@physx@@UEAA@XZ 00000001800526bc     TriangleMeshBuilder.obj
 0002:0000c6bc       $unwind$??_GBV4TriangleMeshBuilder@physx@@UEAAPEAXI@Z 00000001800526bc     TriangleMeshBuilder.obj
 0002:0000c6bc       $unwind$_DllMainCRTStartup 00000001800526bc     LIBCMT:dll_dllmain.obj
 0002:0000c6bc       $unwind$__vcrt_getptd_noexit 00000001800526bc     libvcruntime:per_thread_data.obj
 0002:0000c6bc       $unwind$??$?0$01@pcharNode@@QEAA@PEBDHU?$StringLifeSelector@$01@@@Z 00000001800526bc     libvcruntime:undname.obj
 0002:0000c6bc       $unwind$??$?0$0A@@pcharNode@@QEAA@PEBDHU?$StringLifeSelector@$0A@@@@Z 00000001800526bc     libvcruntime:undname.obj
 0002:0000c6bc       $unwind$??$doPchar@$01@DName@@AEAAXPEBDH@Z 00000001800526bc     libvcruntime:undname.obj
 0002:0000c6bc       $unwind$??$doPchar@$0A@@DName@@AEAAXPEBDH@Z 00000001800526bc     libvcruntime:undname.obj
 0002:0000c6bc       $unwind$??0DName@@QEAA@AEAPEBDD@Z 00000001800526bc     libvcruntime:undname.obj
 0002:0000c6bc       $unwind$??0DName@@QEAA@PEAV0@@Z 00000001800526bc     libvcruntime:undname.obj
 0002:0000c6bc       $unwind$?getMemoryWithBuffer@_HeapManager@@QEAAPEAX_K@Z 00000001800526bc     libvcruntime:undname.obj
 0002:0000c6bc       $unwind$__vcrt_InitializeCriticalSectionEx 00000001800526bc     libvcruntime:winapi_downlevel.obj
 0002:0000c6bc       $unwind$memcpy_s           00000001800526bc     libucrt:cfout.obj
 0002:0000c6bc       $unwind$__acrt_getptd      00000001800526bc     libucrt:per_thread_data.obj
 0002:0000c6bc       $unwind$__acrt_getptd_noexit 00000001800526bc     libucrt:per_thread_data.obj
 0002:0000c6bc       $unwind$__acrt_execute_initializers 00000001800526bc     libucrt:shared_initialization.obj
 0002:0000c6bc       $unwind$__acrt_InitializeCriticalSectionEx 00000001800526bc     libucrt:winapi_thunks.obj
 0002:0000c6bc       $unwind$?free_crt_array_internal@@YAXQEAPEBX_K@Z 00000001800526bc     libucrt:inittime.obj
 0002:0000c6bc       $unwind$??$common_lseek_nolock@_J@@YA_JH_JH@Z 00000001800526bc     libucrt:lseek.obj
 0002:0000c6bc       $unwind$__acrt_stdio_flush_nolock 00000001800526bc     libucrt:fflush.obj
 0002:0000c6bc       $unwind$??0_LocaleUpdate@@QEAA@QEAU__crt_locale_pointers@@@Z 00000001800526bc     libucrt:output.obj
 0002:0000c6bc       $unwind$_exception_enabled 00000001800526bc     libucrt:libm_error.obj
 0002:0000c6cc       $unwind$?init@EdgeListBuilder@Gu@physx@@QEAA_NAEBUEDGELISTCREATE@23@@Z 00000001800526cc     EdgeList.obj
 0002:0000c6cc       $unwind$?preallocate@QuickHull@local@@QEAAXI@Z 00000001800526cc     QuickHullConvexHullLib.obj
 0002:0000c6cc       $unwind$?allocateVertices@MeshDataBase@Gu@physx@@QEAAPEAVPxVec3@3@I@Z 00000001800526cc     TriangleMeshBuilder.obj
 0002:0000c6cc       $unwind$?getStateFromIterators@UWMap4@FH4@@SAHAEBViterator@12@H0H0@Z 00000001800526cc     libvcruntime:frame.obj
 0002:0000c6cc       $unwind$?getUndecoratedName@UnDecorator@@QEAAPEADPEADH@Z 00000001800526cc     libvcruntime:undname.obj
 0002:0000c6dc       $unwind$?createFacesToEdges@EdgeListBuilder@Gu@physx@@AEAA_NIPEBIPEBG@Z 00000001800526dc     EdgeList.obj
 0002:0000c6ec       $chain$3$?createFacesToEdges@EdgeListBuilder@Gu@physx@@AEAA_NIPEBIPEBG@Z 00000001800526ec     EdgeList.obj
 0002:0000c70c       $chain$4$?createFacesToEdges@EdgeListBuilder@Gu@physx@@AEAA_NIPEBIPEBG@Z 000000018005270c     EdgeList.obj
 0002:0000c724       $chain$5$?createFacesToEdges@EdgeListBuilder@Gu@physx@@AEAA_NIPEBIPEBG@Z 0000000180052724     EdgeList.obj
 0002:0000c738       $chain$6$?createFacesToEdges@EdgeListBuilder@Gu@physx@@AEAA_NIPEBIPEBG@Z 0000000180052738     EdgeList.obj
 0002:0000c748       $unwind$?createEdgesToFaces@EdgeListBuilder@Gu@physx@@AEAA_NIPEBIPEBG@Z 0000000180052748     EdgeList.obj
 0002:0000c754       $chain$1$?createEdgesToFaces@EdgeListBuilder@Gu@physx@@AEAA_NIPEBIPEBG@Z 0000000180052754     EdgeList.obj
 0002:0000c76c       $chain$2$?createEdgesToFaces@EdgeListBuilder@Gu@physx@@AEAA_NIPEBIPEBG@Z 000000018005276c     EdgeList.obj
 0002:0000c780       $unwind$?computeActiveEdges@EdgeListBuilder@Gu@physx@@AEAA_NIPEBIPEBGPEBVPxVec3@3@M@Z 0000000180052780     EdgeList.obj
 0002:0000c790       $chain$0$?computeActiveEdges@EdgeListBuilder@Gu@physx@@AEAA_NIPEBIPEBGPEBVPxVec3@3@M@Z 0000000180052790     EdgeList.obj
 0002:0000c7a4       $chain$3$?computeActiveEdges@EdgeListBuilder@Gu@physx@@AEAA_NIPEBIPEBGPEBVPxVec3@3@M@Z 00000001800527a4     EdgeList.obj
 0002:0000c7bc       $chain$16$?computeActiveEdges@EdgeListBuilder@Gu@physx@@AEAA_NIPEBIPEBGPEBVPxVec3@3@M@Z 00000001800527bc     EdgeList.obj
 0002:0000c800       $chain$17$?computeActiveEdges@EdgeListBuilder@Gu@physx@@AEAA_NIPEBIPEBGPEBVPxVec3@3@M@Z 0000000180052800     EdgeList.obj
 0002:0000c814       $chain$18$?computeActiveEdges@EdgeListBuilder@Gu@physx@@AEAA_NIPEBIPEBGPEBVPxVec3@3@M@Z 0000000180052814     EdgeList.obj
 0002:0000c824       $chain$19$?computeActiveEdges@EdgeListBuilder@Gu@physx@@AEAA_NIPEBIPEBGPEBVPxVec3@3@M@Z 0000000180052824     EdgeList.obj
 0002:0000c834       $chain$0$??$?_UI@@YAPEAX_KV?$ReflectionAllocator@I@shdfnd@physx@@PEBDH@Z 0000000180052834     EdgeList.obj
 0002:0000c848       $chain$1$??$?_UI@@YAPEAX_KV?$ReflectionAllocator@I@shdfnd@physx@@PEBDH@Z 0000000180052848     EdgeList.obj
 0002:0000c858       $unwind$??0MeshCleaner@physx@@QEAA@IPEBVPxVec3@1@IPEBIM@Z 0000000180052858     MeshCleaner.obj
 0002:0000c864       $chain$1$??0MeshCleaner@physx@@QEAA@IPEBVPxVec3@1@IPEBIM@Z 0000000180052864     MeshCleaner.obj
 0002:0000c87c       $chain$5$??0MeshCleaner@physx@@QEAA@IPEBVPxVec3@1@IPEBIM@Z 000000018005287c     MeshCleaner.obj
 0002:0000c89c       $chain$7$??0MeshCleaner@physx@@QEAA@IPEBVPxVec3@1@IPEBIM@Z 000000018005289c     MeshCleaner.obj
 0002:0000c8b4       $chain$8$??0MeshCleaner@physx@@QEAA@IPEBVPxVec3@1@IPEBIM@Z 00000001800528b4     MeshCleaner.obj
 0002:0000c8c8       $chain$9$??0MeshCleaner@physx@@QEAA@IPEBVPxVec3@1@IPEBIM@Z 00000001800528c8     MeshCleaner.obj
 0002:0000c8d8       $chain$10$??0MeshCleaner@physx@@QEAA@IPEBVPxVec3@1@IPEBIM@Z 00000001800528d8     MeshCleaner.obj
 0002:0000c8d8       $chain$12$??0MeshCleaner@physx@@QEAA@IPEBVPxVec3@1@IPEBIM@Z 00000001800528d8     MeshCleaner.obj
 0002:0000c8e8       $chain$11$??0MeshCleaner@physx@@QEAA@IPEBVPxVec3@1@IPEBIM@Z 00000001800528e8     MeshCleaner.obj
 0002:0000c900       $chain$13$??0MeshCleaner@physx@@QEAA@IPEBVPxVec3@1@IPEBIM@Z 0000000180052900     MeshCleaner.obj
 0002:0000c91c       $chain$14$??0MeshCleaner@physx@@QEAA@IPEBVPxVec3@1@IPEBIM@Z 000000018005291c     MeshCleaner.obj
 0002:0000c92c       $unwind$?createQuantizer@physx@@YAPEAVQuantizer@1@XZ 000000018005292c     Quantizer.obj
 0002:0000c92c       $unwind$?getNoexcept@UnDecorator@@CA?AVDName@@XZ 000000018005292c     libvcruntime:undname.obj
 0002:0000c92c       $unwind$?getVCallThunkType@UnDecorator@@CA?AVDName@@XZ 000000018005292c     libvcruntime:undname.obj
 0002:0000c92c       $unwind$?getVdispMapType@UnDecorator@@CA?AVDName@@AEBV2@@Z 000000018005292c     libvcruntime:undname.obj
 0002:0000c92c       $unwind$?__mbrtowc_utf8@__crt_mbstring@@YA_KPEA_WPEBD_KPEAU_Mbstatet@@@Z 000000018005292c     libucrt:mbrtowc.obj
 0002:0000c92c       $unwind$?type_case_c_tchar@?$output_processor@DV?$string_output_adapter@D@__crt_stdio_output@@V?$format_validation_base@DV?$string_output_adapter@D@__crt_stdio_output@@@2@@__crt_stdio_output@@AEAA_ND@Z 000000018005292c     libucrt:output.obj
 0002:0000c92c       $unwind$__stdio_common_vsprintf_s 000000018005292c     libucrt:output.obj
 0002:0000c934       $unwind$??$kmeans_cluster@VPxVec3@physx@@M@@YAIPEBVPxVec3@physx@@IIPEAV01@PEAIMM@Z 0000000180052934     Quantizer.obj
 0002:0000c940       $chain$3$??$kmeans_cluster@VPxVec3@physx@@M@@YAIPEBVPxVec3@physx@@IIPEAV01@PEAIMM@Z 0000000180052940     Quantizer.obj
 0002:0000c960       $chain$6$??$kmeans_cluster@VPxVec3@physx@@M@@YAIPEBVPxVec3@physx@@IIPEAV01@PEAIMM@Z 0000000180052960     Quantizer.obj
 0002:0000c97c       $chain$12$??$kmeans_cluster@VPxVec3@physx@@M@@YAIPEBVPxVec3@physx@@IIPEAV01@PEAIMM@Z 000000018005297c     Quantizer.obj
 0002:0000c9a4       $chain$13$??$kmeans_cluster@VPxVec3@physx@@M@@YAIPEBVPxVec3@physx@@IIPEAV01@PEAIMM@Z 00000001800529a4     Quantizer.obj
 0002:0000c9b4       $chain$14$??$kmeans_cluster@VPxVec3@physx@@M@@YAIPEBVPxVec3@physx@@IIPEAV01@PEAIMM@Z 00000001800529b4     Quantizer.obj
 0002:0000c9cc       $chain$15$??$kmeans_cluster@VPxVec3@physx@@M@@YAIPEBVPxVec3@physx@@IIPEAV01@PEAIMM@Z 00000001800529cc     Quantizer.obj
 0002:0000c9dc       $unwind$?kmeansQuantize3D@QuantizerImpl@@UEAAPEBVPxVec3@physx@@IPEBV23@I_NIAEAI@Z 00000001800529dc     Quantizer.obj
 0002:0000c9ec       $chain$1$?kmeansQuantize3D@QuantizerImpl@@UEAAPEBVPxVec3@physx@@IPEBV23@I_NIAEAI@Z 00000001800529ec     Quantizer.obj
 0002:0000ca04       $chain$2$?kmeansQuantize3D@QuantizerImpl@@UEAAPEBVPxVec3@physx@@IPEBV23@I_NIAEAI@Z 0000000180052a04     Quantizer.obj
 0002:0000ca18       $chain$3$?kmeansQuantize3D@QuantizerImpl@@UEAAPEBVPxVec3@physx@@IPEBV23@I_NIAEAI@Z 0000000180052a18     Quantizer.obj
 0002:0000ca28       $unwind$?normalizeInput@QuantizerImpl@@AEAAXIPEBVPxVec3@physx@@I@Z 0000000180052a28     Quantizer.obj
 0002:0000ca44       $chain$2$?normalizeInput@QuantizerImpl@@AEAAXIPEBVPxVec3@physx@@I@Z 0000000180052a44     Quantizer.obj
 0002:0000ca60       $chain$6$?normalizeInput@QuantizerImpl@@AEAAXIPEBVPxVec3@physx@@I@Z 0000000180052a60     Quantizer.obj
 0002:0000ca80       $chain$7$?normalizeInput@QuantizerImpl@@AEAAXIPEBVPxVec3@physx@@I@Z 0000000180052a80     Quantizer.obj
 0002:0000ca90       $chain$8$?normalizeInput@QuantizerImpl@@AEAAXIPEBVPxVec3@physx@@I@Z 0000000180052a90     Quantizer.obj
 0002:0000caa0       $chain$10$?normalizeInput@QuantizerImpl@@AEAAXIPEBVPxVec3@physx@@I@Z 0000000180052aa0     Quantizer.obj
 0002:0000cab8       $chain$11$?normalizeInput@QuantizerImpl@@AEAAXIPEBVPxVec3@physx@@I@Z 0000000180052ab8     Quantizer.obj
 0002:0000cac8       $unwind$?growAndPushBack@?$Array@VPxVec3@physx@@V?$ReflectionAllocator@VPxVec3@physx@@@shdfnd@2@@shdfnd@physx@@IEAAAEAVPxVec3@3@AEBV43@@Z 0000000180052ac8     Quantizer.obj
 0002:0000cac8       $unwind$?saveMidPhaseStructure@BV4TriangleMeshBuilder@physx@@UEBAXAEAVPxOutputStream@2@_N@Z 0000000180052ac8     TriangleMeshBuilder.obj
 0002:0000cad4       $chain$0$?growAndPushBack@?$Array@VPxVec3@physx@@V?$ReflectionAllocator@VPxVec3@physx@@@shdfnd@2@@shdfnd@physx@@IEAAAEAVPxVec3@3@AEBV43@@Z 0000000180052ad4     Quantizer.obj
 0002:0000cae8       $chain$1$?growAndPushBack@?$Array@VPxVec3@physx@@V?$ReflectionAllocator@VPxVec3@physx@@@shdfnd@2@@shdfnd@physx@@IEAAAEAVPxVec3@3@AEBV43@@Z 0000000180052ae8     Quantizer.obj
 0002:0000cafc       $chain$2$?growAndPushBack@?$Array@VPxVec3@physx@@V?$ReflectionAllocator@VPxVec3@physx@@@shdfnd@2@@shdfnd@physx@@IEAAAEAVPxVec3@3@AEBV43@@Z 0000000180052afc     Quantizer.obj
 0002:0000cb0c       $chain$4$?growAndPushBack@?$Array@VPxVec3@physx@@V?$ReflectionAllocator@VPxVec3@physx@@@shdfnd@2@@shdfnd@physx@@IEAAAEAVPxVec3@3@AEBV43@@Z 0000000180052b0c     Quantizer.obj
 0002:0000cb20       $chain$3$?growAndPushBack@?$Array@VPxVec3@physx@@V?$ReflectionAllocator@VPxVec3@physx@@@shdfnd@2@@shdfnd@physx@@IEAAAEAVPxVec3@3@AEBV43@@Z 0000000180052b20     Quantizer.obj
 0002:0000cb30       $unwind$??_GQuantizerImpl@@EEAAPEAXI@Z 0000000180052b30     Quantizer.obj
 0002:0000cb30       $unwind$??_GConvexHull@physx@@QEAAPEAXI@Z 0000000180052b30     QuickHullConvexHullLib.obj
 0002:0000cb3c       $chain$0$??_GQuantizerImpl@@EEAAPEAXI@Z 0000000180052b3c     Quantizer.obj
 0002:0000cb50       $chain$1$??_GQuantizerImpl@@EEAAPEAXI@Z 0000000180052b50     Quantizer.obj
 0002:0000cb60       $unwind$?loadFromDesc@BVHStructureBuilder@physx@@QEAA_NAEBVPxBVHStructureDesc@2@@Z 0000000180052b60     BVHStructureBuilder.obj
 0002:0000cb6c       $chain$4$?loadFromDesc@BVHStructureBuilder@physx@@QEAA_NAEBVPxBVHStructureDesc@2@@Z 0000000180052b6c     BVHStructureBuilder.obj
 0002:0000cb90       $chain$6$?loadFromDesc@BVHStructureBuilder@physx@@QEAA_NAEBVPxBVHStructureDesc@2@@Z 0000000180052b90     BVHStructureBuilder.obj
 0002:0000cba8       $chain$7$?loadFromDesc@BVHStructureBuilder@physx@@QEAA_NAEBVPxBVHStructureDesc@2@@Z 0000000180052ba8     BVHStructureBuilder.obj
 0002:0000cbb8       $chain$8$?loadFromDesc@BVHStructureBuilder@physx@@QEAA_NAEBVPxBVHStructureDesc@2@@Z 0000000180052bb8     BVHStructureBuilder.obj
 0002:0000cbc8       $unwind$?save@BVHStructureBuilder@physx@@QEBA_NAEAVPxOutputStream@2@_N@Z 0000000180052bc8     BVHStructureBuilder.obj
 0002:0000cbd8       $chain$2$?save@BVHStructureBuilder@physx@@QEBA_NAEAVPxOutputStream@2@_N@Z 0000000180052bd8     BVHStructureBuilder.obj
 0002:0000cbf0       $chain$3$?save@BVHStructureBuilder@physx@@QEBA_NAEAVPxOutputStream@2@_N@Z 0000000180052bf0     BVHStructureBuilder.obj
 0002:0000cc04       $chain$1$?allocate@?$Array@USlab@NodeAllocator@Gu@physx@@V?$ReflectionAllocator@USlab@NodeAllocator@Gu@physx@@@shdfnd@4@@shdfnd@physx@@IEAAPEAUSlab@NodeAllocator@Gu@3@I@Z 0000000180052c04     BVHStructureBuilder.obj
 0002:0000cc1c       $chain$3$?allocate@?$Array@USlab@NodeAllocator@Gu@physx@@V?$ReflectionAllocator@USlab@NodeAllocator@Gu@physx@@@shdfnd@4@@shdfnd@physx@@IEAAPEAUSlab@NodeAllocator@Gu@3@I@Z 0000000180052c1c     BVHStructureBuilder.obj
 0002:0000cc30       $chain$4$?allocate@?$Array@USlab@NodeAllocator@Gu@physx@@V?$ReflectionAllocator@USlab@NodeAllocator@Gu@physx@@@shdfnd@4@@shdfnd@physx@@IEAAPEAUSlab@NodeAllocator@Gu@3@I@Z 0000000180052c30     BVHStructureBuilder.obj
 0002:0000cc40       $chain$0$?recreate@?$Array@USlab@NodeAllocator@Gu@physx@@V?$ReflectionAllocator@USlab@NodeAllocator@Gu@physx@@@shdfnd@4@@shdfnd@physx@@IEAAXI@Z 0000000180052c40     BVHStructureBuilder.obj
 0002:0000cc54       $chain$1$?recreate@?$Array@USlab@NodeAllocator@Gu@physx@@V?$ReflectionAllocator@USlab@NodeAllocator@Gu@physx@@@shdfnd@4@@shdfnd@physx@@IEAAXI@Z 0000000180052c54     BVHStructureBuilder.obj
 0002:0000cc64       $unwind$??4NodeAllocator@Gu@physx@@QEAAAEAV012@AEBV012@@Z 0000000180052c64     BVHStructureBuilder.obj
 0002:0000cc64       $unwind$__std_exception_copy 0000000180052c64     libvcruntime:std_exception.obj
 0002:0000cc64       $unwind$??$doPchar@$00@DName@@AEAAXPEBDH@Z 0000000180052c64     libvcruntime:undname.obj
 0002:0000cc64       $unwind$_free_osfhnd       0000000180052c64     libucrt:osfinfo.obj
 0002:0000cc64       $unwind$?process@?$output_processor@DV?$string_output_adapter@D@__crt_stdio_output@@V?$format_validation_base@DV?$string_output_adapter@D@__crt_stdio_output@@@2@@__crt_stdio_output@@QEAAHXZ 0000000180052c64     libucrt:output.obj
 0002:0000cc78       $unwind$?saveHeightField@physx@@YA_NAEBVHeightField@Gu@1@AEAVPxOutputStream@1@_N@Z 0000000180052c78     HeightFieldCooking.obj
 0002:0000cc88       $chain$2$?saveHeightField@physx@@YA_NAEBVHeightField@Gu@1@AEAVPxOutputStream@1@_N@Z 0000000180052c88     HeightFieldCooking.obj
 0002:0000cca0       $chain$3$?saveHeightField@physx@@YA_NAEBVHeightField@Gu@1@AEAVPxOutputStream@1@_N@Z 0000000180052ca0     HeightFieldCooking.obj
 0002:0000ccb0       $chain$0$?allocate@?$ReflectionAllocator@I@shdfnd@physx@@QEAAPEAX_KPEBDH@Z 0000000180052cb0     RTreeCooking.obj
 0002:0000ccc4       $chain$1$?allocate@?$ReflectionAllocator@I@shdfnd@physx@@QEAAPEAX_KPEBDH@Z 0000000180052cc4     RTreeCooking.obj
 0002:0000ccd4       $unwind$?buildFromTriangles@RTreeCooker@physx@@SAXAEAURTree@Gu@2@PEBVPxVec3@2@IPEBGPEBIIAEAV?$Array@IV?$ReflectionAllocator@I@shdfnd@physx@@@shdfnd@2@PEAURemapCallback@12@MW4Enum@PxMeshCookingHint@2@@Z 0000000180052cd4     RTreeCooking.obj
 0002:0000cce0       $chain$7$?buildFromTriangles@RTreeCooker@physx@@SAXAEAURTree@Gu@2@PEBVPxVec3@2@IPEBGPEBIIAEAV?$Array@IV?$ReflectionAllocator@I@shdfnd@physx@@@shdfnd@2@PEAURemapCallback@12@MW4Enum@PxMeshCookingHint@2@@Z 0000000180052ce0     RTreeCooking.obj
 0002:0000cd10       $chain$9$?buildFromTriangles@RTreeCooker@physx@@SAXAEAURTree@Gu@2@PEBVPxVec3@2@IPEBGPEBIIAEAV?$Array@IV?$ReflectionAllocator@I@shdfnd@physx@@@shdfnd@2@PEAURemapCallback@12@MW4Enum@PxMeshCookingHint@2@@Z 0000000180052d10     RTreeCooking.obj
 0002:0000cd28       $chain$10$?buildFromTriangles@RTreeCooker@physx@@SAXAEAURTree@Gu@2@PEBVPxVec3@2@IPEBGPEBIIAEAV?$Array@IV?$ReflectionAllocator@I@shdfnd@physx@@@shdfnd@2@PEAURemapCallback@12@MW4Enum@PxMeshCookingHint@2@@Z 0000000180052d28     RTreeCooking.obj
 0002:0000cd38       $chain$11$?buildFromTriangles@RTreeCooker@physx@@SAXAEAURTree@Gu@2@PEBVPxVec3@2@IPEBGPEBIIAEAV?$Array@IV?$ReflectionAllocator@I@shdfnd@physx@@@shdfnd@2@PEAURemapCallback@12@MW4Enum@PxMeshCookingHint@2@@Z 0000000180052d38     RTreeCooking.obj
 0002:0000cd48       $unwind$?buildFromBounds@physx@@YAXAEAURTree@Gu@1@PEBUPxBounds3V@1@IAEAV?$Array@IV?$ReflectionAllocator@I@shdfnd@physx@@@shdfnd@1@PEAURemapCallback@RTreeCooker@1@AEAT__m128@@4MW4Enum@PxMeshCookingHint@1@@Z 0000000180052d48     RTreeCooking.obj
 0002:0000cd64       $chain$1$?allocate@?$Array@UPxBounds3V@physx@@V?$ReflectionAllocator@UPxBounds3V@physx@@@shdfnd@2@@shdfnd@physx@@IEAAPEAUPxBounds3V@3@I@Z 0000000180052d64     RTreeCooking.obj
 0002:0000cd7c       $chain$3$?allocate@?$Array@UPxBounds3V@physx@@V?$ReflectionAllocator@UPxBounds3V@physx@@@shdfnd@2@@shdfnd@physx@@IEAAPEAUPxBounds3V@3@I@Z 0000000180052d7c     RTreeCooking.obj
 0002:0000cd90       $chain$4$?allocate@?$Array@UPxBounds3V@physx@@V?$ReflectionAllocator@UPxBounds3V@physx@@@shdfnd@2@@shdfnd@physx@@IEAAPEAUPxBounds3V@3@I@Z 0000000180052d90     RTreeCooking.obj
 0002:0000cda0       $unwind$?growAndPushBack@?$Array@VHalfEdge@ConvexHull@physx@@V?$ReflectionAllocator@VHalfEdge@ConvexHull@physx@@@shdfnd@3@@shdfnd@physx@@IEAAAEAVHalfEdge@ConvexHull@3@AEBV453@@Z 0000000180052da0     ConvexHullUtils.obj
 0002:0000cda0       $unwind$?growAndPushBack@?$Array@VPxPlane@physx@@V?$ReflectionAllocator@VPxPlane@physx@@@shdfnd@2@@shdfnd@physx@@IEAAAEAVPxPlane@3@AEBV43@@Z 0000000180052da0     ConvexHullUtils.obj
 0002:0000cda0       $unwind$?resize@?$Array@VHalfEdge@ConvexHull@physx@@V?$ReflectionAllocator@VHalfEdge@ConvexHull@physx@@@shdfnd@3@@shdfnd@physx@@QEAAXIAEBVHalfEdge@ConvexHull@3@@Z 0000000180052da0     ConvexHullUtils.obj
 0002:0000cda0       $unwind$?growAndPushBack@?$Array@VPair@@V?$ReflectionAllocator@VPair@@@shdfnd@physx@@@shdfnd@physx@@IEAAAEAVPair@@AEBV4@@Z 0000000180052da0     ConvexPolygonsBuilder.obj
 0002:0000cda0       $unwind$??_GQuickHullConvexHullLib@physx@@UEAAPEAXI@Z 0000000180052da0     QuickHullConvexHullLib.obj
 0002:0000cda0       $unwind$?growAndPushBack@?$Array@PEAUQuickHullFace@local@@V?$ReflectionAllocator@PEAUQuickHullFace@local@@@shdfnd@physx@@@shdfnd@physx@@IEAAAEAPEAUQuickHullFace@local@@AEBQEAU45@@Z 0000000180052da0     QuickHullConvexHullLib.obj
 0002:0000cda0       $unwind$?growAndPushBack@?$Array@PEAUQuickHullHalfEdge@local@@V?$ReflectionAllocator@PEAUQuickHullHalfEdge@local@@@shdfnd@physx@@@shdfnd@physx@@IEAAAEAPEAUQuickHullHalfEdge@local@@AEBQEAU45@@Z 0000000180052da0     QuickHullConvexHullLib.obj
 0002:0000cda0       $unwind$?growAndPushBack@?$Array@PEAUQuickHullVertex@local@@V?$ReflectionAllocator@PEAUQuickHullVertex@local@@@shdfnd@physx@@@shdfnd@physx@@IEAAAEAPEAUQuickHullVertex@local@@AEBQEAU45@@Z 0000000180052da0     QuickHullConvexHullLib.obj
 0002:0000cda0       $unwind$?growAndPushBack@?$Array@UExpandPoint@local@@V?$ReflectionAllocator@UExpandPoint@local@@@shdfnd@physx@@@shdfnd@physx@@IEAAAEAUExpandPoint@local@@AEBU45@@Z 0000000180052da0     QuickHullConvexHullLib.obj
 0002:0000cda0       $unwind$?growAndPushBack@?$Array@UInterval@physx@@V?$InlineAllocator@$0CAAA@V?$ReflectionAllocator@UInterval@physx@@@shdfnd@physx@@@shdfnd@2@@shdfnd@physx@@IEAAAEAUInterval@3@AEBU43@@Z 0000000180052da0     RTreeCooking.obj
 0002:0000cda0       $unwind$?growAndPushBack@?$Array@UPxBounds3V@physx@@V?$ReflectionAllocator@UPxBounds3V@physx@@@shdfnd@2@@shdfnd@physx@@IEAAAEAUPxBounds3V@3@AEBU43@@Z 0000000180052da0     RTreeCooking.obj
 0002:0000cda0       $unwind$?growAndPushBack@?$Array@URTreeNodeNQ@physx@@V?$ReflectionAllocator@URTreeNodeNQ@physx@@@shdfnd@2@@shdfnd@physx@@IEAAAEAURTreeNodeNQ@3@AEBU43@@Z 0000000180052da0     RTreeCooking.obj
 0002:0000cda0       $unwind$?growAndPushBack@?$Array@URTreeNodeQ@Gu@physx@@V?$ReflectionAllocator@URTreeNodeQ@Gu@physx@@@shdfnd@3@@shdfnd@physx@@IEAAAEAURTreeNodeQ@Gu@3@AEBU453@@Z 0000000180052da0     RTreeCooking.obj
 0002:0000cda0       $unwind$?resize@?$Array@IV?$ReflectionAllocator@I@shdfnd@physx@@@shdfnd@physx@@QEAAXIAEBI@Z 0000000180052da0     RTreeCooking.obj
 0002:0000cda0       $unwind$__scrt_dllmain_exception_filter 0000000180052da0     LIBCMT:utility.obj
 0002:0000cda0       $unwind$?Is_bad_exception_allowed@@YAEPEBU_s_ESTypeList@@@Z 0000000180052da0     libvcruntime:frame.obj
 0002:0000cda0       $unwind$_ischartype_l      0000000180052da0     libucrt:atox.obj
 0002:0000cda0       $unwind$_recalloc_base     0000000180052da0     libucrt:recalloc.obj
 0002:0000cda0       $unwind$__acrt_free_locale 0000000180052da0     libucrt:locale_refcounting.obj
 0002:0000cda0       $unwind$__acrt_lowio_create_handle_array 0000000180052da0     libucrt:osfinfo.obj
 0002:0000cda0       $unwind$?setSBCS@@YAXPEAU__crt_multibyte_data@@@Z 0000000180052da0     libucrt:mbctype.obj
 0002:0000cda0       $unwind$_seh_filter_exe    0000000180052da0     libucrt:exception_filter.obj
 0002:0000cda0       $unwind$_initterm          0000000180052da0     libucrt:initterm.obj
 0002:0000cda0       $unwind$??$ensure_buffer_is_big_enough@D@formatting_buffer@__crt_stdio_output@@QEAA_N_K@Z 0000000180052da0     libucrt:output.obj
 0002:0000cdb4       $chain$0$?recreate@?$Array@UPxBounds3V@physx@@V?$ReflectionAllocator@UPxBounds3V@physx@@@shdfnd@2@@shdfnd@physx@@IEAAXI@Z 0000000180052db4     RTreeCooking.obj
 0002:0000cdc8       $chain$1$?recreate@?$Array@UPxBounds3V@physx@@V?$ReflectionAllocator@UPxBounds3V@physx@@@shdfnd@2@@shdfnd@physx@@IEAAXI@Z 0000000180052dc8     RTreeCooking.obj
 0002:0000cdd8       $unwind$?growAndPushBack@?$Array@IV?$ReflectionAllocator@I@shdfnd@physx@@@shdfnd@physx@@IEAAAEAIAEBI@Z 0000000180052dd8     RTreeCooking.obj
 0002:0000cde8       $chain$0$?growAndPushBack@?$Array@IV?$ReflectionAllocator@I@shdfnd@physx@@@shdfnd@physx@@IEAAAEAIAEBI@Z 0000000180052de8     RTreeCooking.obj
 0002:0000cdfc       $chain$2$?growAndPushBack@?$Array@IV?$ReflectionAllocator@I@shdfnd@physx@@@shdfnd@physx@@IEAAAEAIAEBI@Z 0000000180052dfc     RTreeCooking.obj
 0002:0000ce10       $chain$1$?growAndPushBack@?$Array@IV?$ReflectionAllocator@I@shdfnd@physx@@@shdfnd@physx@@IEAAAEAIAEBI@Z 0000000180052e10     RTreeCooking.obj
 0002:0000ce20       $chain$0$?recreate@?$Array@IV?$ReflectionAllocator@I@shdfnd@physx@@@shdfnd@physx@@IEAAXI@Z 0000000180052e20     RTreeCooking.obj
 0002:0000ce34       $chain$1$?recreate@?$Array@IV?$ReflectionAllocator@I@shdfnd@physx@@@shdfnd@physx@@IEAAXI@Z 0000000180052e34     RTreeCooking.obj
 0002:0000ce44       $chain$1$?allocate@?$Array@VPxVec3@physx@@V?$ReflectionAllocator@VPxVec3@physx@@@shdfnd@2@@shdfnd@physx@@IEAAPEAVPxVec3@3@I@Z 0000000180052e44     RTreeCooking.obj
 0002:0000ce5c       $chain$3$?allocate@?$Array@VPxVec3@physx@@V?$ReflectionAllocator@VPxVec3@physx@@@shdfnd@2@@shdfnd@physx@@IEAAPEAVPxVec3@3@I@Z 0000000180052e5c     RTreeCooking.obj
 0002:0000ce70       $chain$4$?allocate@?$Array@VPxVec3@physx@@V?$ReflectionAllocator@VPxVec3@physx@@@shdfnd@2@@shdfnd@physx@@IEAAPEAVPxVec3@3@I@Z 0000000180052e70     RTreeCooking.obj
 0002:0000ce80       $chain$0$?recreate@?$Array@VPxVec3@physx@@V?$ReflectionAllocator@VPxVec3@physx@@@shdfnd@2@@shdfnd@physx@@IEAAXI@Z 0000000180052e80     RTreeCooking.obj
 0002:0000ce94       $chain$1$?recreate@?$Array@VPxVec3@physx@@V?$ReflectionAllocator@VPxVec3@physx@@@shdfnd@2@@shdfnd@physx@@IEAAXI@Z 0000000180052e94     RTreeCooking.obj
 0002:0000cea4       $unwind$?sort4@SubSortQuick@physx@@QEAAXPEIAIIAEAV?$Array@URTreeNodeNQ@physx@@V?$ReflectionAllocator@URTreeNodeNQ@physx@@@shdfnd@2@@shdfnd@2@AEAIAEAUPxBounds3V@2@I@Z 0000000180052ea4     RTreeCooking.obj
 0002:0000cebc       $chain$1$?allocate@?$Array@URTreeNodeNQ@physx@@V?$ReflectionAllocator@URTreeNodeNQ@physx@@@shdfnd@2@@shdfnd@physx@@IEAAPEAURTreeNodeNQ@3@I@Z 0000000180052ebc     RTreeCooking.obj
 0002:0000ced4       $chain$3$?allocate@?$Array@URTreeNodeNQ@physx@@V?$ReflectionAllocator@URTreeNodeNQ@physx@@@shdfnd@2@@shdfnd@physx@@IEAAPEAURTreeNodeNQ@3@I@Z 0000000180052ed4     RTreeCooking.obj
 0002:0000cee8       $chain$4$?allocate@?$Array@URTreeNodeNQ@physx@@V?$ReflectionAllocator@URTreeNodeNQ@physx@@@shdfnd@2@@shdfnd@physx@@IEAAPEAURTreeNodeNQ@3@I@Z 0000000180052ee8     RTreeCooking.obj
 0002:0000cef8       $chain$0$?recreate@?$Array@URTreeNodeNQ@physx@@V?$ReflectionAllocator@URTreeNodeNQ@physx@@@shdfnd@2@@shdfnd@physx@@IEAAXI@Z 0000000180052ef8     RTreeCooking.obj
 0002:0000cf0c       $chain$1$?recreate@?$Array@URTreeNodeNQ@physx@@V?$ReflectionAllocator@URTreeNodeNQ@physx@@@shdfnd@2@@shdfnd@physx@@IEAAXI@Z 0000000180052f0c     RTreeCooking.obj
 0002:0000cf1c       $unwind$??$quickSelectFirstK@UBoundsLTE@physx@@@quickSelect@physx@@YAXPEIAIIIIAEBUBoundsLTE@1@@Z 0000000180052f1c     RTreeCooking.obj
 0002:0000cf34       $unwind$?split@SubSortSAH@physx@@QEAAIPEAII@Z 0000000180052f34     RTreeCooking.obj
 0002:0000cf40       $chain$3$?split@SubSortSAH@physx@@QEAAIPEAII@Z 0000000180052f40     RTreeCooking.obj
 0002:0000cf60       $chain$6$?split@SubSortSAH@physx@@QEAAIPEAII@Z 0000000180052f60     RTreeCooking.obj
 0002:0000cf7c       $chain$7$?split@SubSortSAH@physx@@QEAAIPEAII@Z 0000000180052f7c     RTreeCooking.obj
 0002:0000cf7c       $chain$9$?split@SubSortSAH@physx@@QEAAIPEAII@Z 0000000180052f7c     RTreeCooking.obj
 0002:0000cf8c       $chain$8$?split@SubSortSAH@physx@@QEAAIPEAII@Z 0000000180052f8c     RTreeCooking.obj
 0002:0000cfa8       $chain$10$?split@SubSortSAH@physx@@QEAAIPEAII@Z 0000000180052fa8     RTreeCooking.obj
 0002:0000cfb8       $unwind$?sort4@SubSortSAH@physx@@QEAAXPEAIIAEAV?$Array@URTreeNodeNQ@physx@@V?$ReflectionAllocator@URTreeNodeNQ@physx@@@shdfnd@2@@shdfnd@2@AEAIIPEAURTreeNodeNQ@2@@Z 0000000180052fb8     RTreeCooking.obj
 0002:0000cfe4       $chain$1$?allocate@?$Array@UInterval@physx@@V?$InlineAllocator@$0CAAA@V?$ReflectionAllocator@UInterval@physx@@@shdfnd@physx@@@shdfnd@2@@shdfnd@physx@@IEAAPEAUInterval@3@I@Z 0000000180052fe4     RTreeCooking.obj
 0002:0000cffc       $chain$3$?allocate@?$Array@UInterval@physx@@V?$InlineAllocator@$0CAAA@V?$ReflectionAllocator@UInterval@physx@@@shdfnd@physx@@@shdfnd@2@@shdfnd@physx@@IEAAPEAUInterval@3@I@Z 0000000180052ffc     RTreeCooking.obj
 0002:0000d010       $chain$4$?allocate@?$Array@UInterval@physx@@V?$InlineAllocator@$0CAAA@V?$ReflectionAllocator@UInterval@physx@@@shdfnd@physx@@@shdfnd@2@@shdfnd@physx@@IEAAPEAUInterval@3@I@Z 0000000180053010     RTreeCooking.obj
 0002:0000d020       $chain$1$?allocate@?$Array@URTreeNodeQ@Gu@physx@@V?$ReflectionAllocator@URTreeNodeQ@Gu@physx@@@shdfnd@3@@shdfnd@physx@@IEAAPEAURTreeNodeQ@Gu@3@I@Z 0000000180053020     RTreeCooking.obj
 0002:0000d038       $chain$3$?allocate@?$Array@URTreeNodeQ@Gu@physx@@V?$ReflectionAllocator@URTreeNodeQ@Gu@physx@@@shdfnd@3@@shdfnd@physx@@IEAAPEAURTreeNodeQ@Gu@3@I@Z 0000000180053038     RTreeCooking.obj
 0002:0000d04c       $chain$4$?allocate@?$Array@URTreeNodeQ@Gu@physx@@V?$ReflectionAllocator@URTreeNodeQ@Gu@physx@@@shdfnd@3@@shdfnd@physx@@IEAAPEAURTreeNodeQ@Gu@3@I@Z 000000018005304c     RTreeCooking.obj
 0002:0000d05c       $chain$0$?recreate@?$Array@URTreeNodeQ@Gu@physx@@V?$ReflectionAllocator@URTreeNodeQ@Gu@physx@@@shdfnd@3@@shdfnd@physx@@IEAAXI@Z 000000018005305c     RTreeCooking.obj
 0002:0000d070       $chain$1$?recreate@?$Array@URTreeNodeQ@Gu@physx@@V?$ReflectionAllocator@URTreeNodeQ@Gu@physx@@@shdfnd@3@@shdfnd@physx@@IEAAXI@Z 0000000180053070     RTreeCooking.obj
 0002:0000d080       $unwind$??$sort@IU?$Less@I@shdfnd@physx@@V?$ReflectionAllocator@I@23@@shdfnd@physx@@YAXPEAIIAEBU?$Less@I@01@AEBV?$ReflectionAllocator@I@01@I@Z 0000000180053080     RTreeCooking.obj
 0002:0000d0a0       $unwind$??$sort@IUSortBoundsPredicate@physx@@V?$ReflectionAllocator@I@shdfnd@2@@shdfnd@physx@@YAXPEAIIAEBUSortBoundsPredicate@1@AEBV?$ReflectionAllocator@I@01@I@Z 00000001800530a0     RTreeCooking.obj
 0002:0000d0bc       $unwind$??$smallSort@I$$CBUSortBoundsPredicate@physx@@@internal@shdfnd@physx@@YAXPEAIHHAEBUSortBoundsPredicate@2@@Z 00000001800530bc     RTreeCooking.obj
 0002:0000d0c8       $chain$6$??$smallSort@I$$CBUSortBoundsPredicate@physx@@@internal@shdfnd@physx@@YAXPEAIHHAEBUSortBoundsPredicate@2@@Z 00000001800530c8     RTreeCooking.obj
 0002:0000d0f4       $chain$7$??$smallSort@I$$CBUSortBoundsPredicate@physx@@@internal@shdfnd@physx@@YAXPEAIHHAEBUSortBoundsPredicate@2@@Z 00000001800530f4     RTreeCooking.obj
 0002:0000d104       $unwind$??0QuickHullConvexHullLib@physx@@QEAA@AEBVPxConvexMeshDesc@1@AEBUPxCookingParams@1@@Z 0000000180053104     QuickHullConvexHullLib.obj
 0002:0000d104       $unwind$?allocateTriangles@TriangleMeshData@Gu@physx@@QEAAPEAXI_NI@Z 0000000180053104     TriangleMeshBuilder.obj
 0002:0000d11c       $chain$0$??$?_UG@@YAPEAX_KV?$ReflectionAllocator@G@shdfnd@physx@@PEBDH@Z 000000018005311c     TriangleMeshBuilder.obj
 0002:0000d130       $chain$1$??$?_UG@@YAPEAX_KV?$ReflectionAllocator@G@shdfnd@physx@@PEBDH@Z 0000000180053130     TriangleMeshBuilder.obj
 0002:0000d140       $chain$0$??1RTreeTriangleData@Gu@physx@@UEAA@XZ 0000000180053140     TriangleMeshBuilder.obj
 0002:0000d154       $chain$1$??1RTreeTriangleData@Gu@physx@@UEAA@XZ 0000000180053154     TriangleMeshBuilder.obj
 0002:0000d164       $unwind$?cleanMesh@TriangleMeshBuilder@physx@@QEAA_N_NPEAW4Enum@PxTriangleMeshCookingResult@2@@Z 0000000180053164     TriangleMeshBuilder.obj
 0002:0000d178       $chain$0$?cleanMesh@TriangleMeshBuilder@physx@@QEAA_N_NPEAW4Enum@PxTriangleMeshCookingResult@2@@Z 0000000180053178     TriangleMeshBuilder.obj
 0002:0000d18c       $chain$1$?cleanMesh@TriangleMeshBuilder@physx@@QEAA_N_NPEAW4Enum@PxTriangleMeshCookingResult@2@@Z 000000018005318c     TriangleMeshBuilder.obj
 0002:0000d1a0       $chain$2$?cleanMesh@TriangleMeshBuilder@physx@@QEAA_N_NPEAW4Enum@PxTriangleMeshCookingResult@2@@Z 00000001800531a0     TriangleMeshBuilder.obj
 0002:0000d1b4       $chain$3$?cleanMesh@TriangleMeshBuilder@physx@@QEAA_N_NPEAW4Enum@PxTriangleMeshCookingResult@2@@Z 00000001800531b4     TriangleMeshBuilder.obj
 0002:0000d1c4       $chain$7$?cleanMesh@TriangleMeshBuilder@physx@@QEAA_N_NPEAW4Enum@PxTriangleMeshCookingResult@2@@Z 00000001800531c4     TriangleMeshBuilder.obj
 0002:0000d1e0       $chain$4$?cleanMesh@TriangleMeshBuilder@physx@@QEAA_N_NPEAW4Enum@PxTriangleMeshCookingResult@2@@Z 00000001800531e0     TriangleMeshBuilder.obj
 0002:0000d1f0       $chain$8$?cleanMesh@TriangleMeshBuilder@physx@@QEAA_N_NPEAW4Enum@PxTriangleMeshCookingResult@2@@Z 00000001800531f0     TriangleMeshBuilder.obj
 0002:0000d200       $unwind$?remapTopology@TriangleMeshBuilder@physx@@QEAAXPEBI@Z 0000000180053200     TriangleMeshBuilder.obj
 0002:0000d20c       $chain$4$?remapTopology@TriangleMeshBuilder@physx@@QEAAXPEBI@Z 000000018005320c     TriangleMeshBuilder.obj
 0002:0000d230       $chain$5$?remapTopology@TriangleMeshBuilder@physx@@QEAAXPEBI@Z 0000000180053230     TriangleMeshBuilder.obj
 0002:0000d250       $chain$6$?remapTopology@TriangleMeshBuilder@physx@@QEAAXPEBI@Z 0000000180053250     TriangleMeshBuilder.obj
 0002:0000d260       $unwind$?createSharedEdgeData@TriangleMeshBuilder@physx@@QEAAX_N0@Z 0000000180053260     TriangleMeshBuilder.obj
 0002:0000d26c       $chain$3$?createSharedEdgeData@TriangleMeshBuilder@physx@@QEAAX_N0@Z 000000018005326c     TriangleMeshBuilder.obj
 0002:0000d28c       $chain$4$?createSharedEdgeData@TriangleMeshBuilder@physx@@QEAAX_N0@Z 000000018005328c     TriangleMeshBuilder.obj
 0002:0000d2a0       $chain$5$?createSharedEdgeData@TriangleMeshBuilder@physx@@QEAAX_N0@Z 00000001800532a0     TriangleMeshBuilder.obj
 0002:0000d2b0       $chain$6$?createSharedEdgeData@TriangleMeshBuilder@physx@@QEAAX_N0@Z 00000001800532b0     TriangleMeshBuilder.obj
 0002:0000d2c0       $unwind$?createGRBMidPhaseAndData@TriangleMeshBuilder@physx@@QEAAXI@Z 00000001800532c0     TriangleMeshBuilder.obj
 0002:0000d2cc       $chain$0$?createGRBMidPhaseAndData@TriangleMeshBuilder@physx@@QEAAXI@Z 00000001800532cc     TriangleMeshBuilder.obj
 0002:0000d2e0       $chain$4$?createGRBMidPhaseAndData@TriangleMeshBuilder@physx@@QEAAXI@Z 00000001800532e0     TriangleMeshBuilder.obj
 0002:0000d300       $chain$5$?createGRBMidPhaseAndData@TriangleMeshBuilder@physx@@QEAAXI@Z 0000000180053300     TriangleMeshBuilder.obj
 0002:0000d31c       $chain$6$?createGRBMidPhaseAndData@TriangleMeshBuilder@physx@@QEAAXI@Z 000000018005331c     TriangleMeshBuilder.obj
 0002:0000d330       $chain$7$?createGRBMidPhaseAndData@TriangleMeshBuilder@physx@@QEAAXI@Z 0000000180053330     TriangleMeshBuilder.obj
 0002:0000d344       $chain$8$?createGRBMidPhaseAndData@TriangleMeshBuilder@physx@@QEAAXI@Z 0000000180053344     TriangleMeshBuilder.obj
 0002:0000d354       $unwind$?loadFromDesc@TriangleMeshBuilder@physx@@QEAA_NAEBVPxTriangleMeshDesc@2@PEAW4Enum@PxTriangleMeshCookingResult@2@_N@Z 0000000180053354     TriangleMeshBuilder.obj
 0002:0000d364       $chain$2$?loadFromDesc@TriangleMeshBuilder@physx@@QEAA_NAEBVPxTriangleMeshDesc@2@PEAW4Enum@PxTriangleMeshCookingResult@2@_N@Z 0000000180053364     TriangleMeshBuilder.obj
 0002:0000d380       $chain$4$?loadFromDesc@TriangleMeshBuilder@physx@@QEAA_NAEBVPxTriangleMeshDesc@2@PEAW4Enum@PxTriangleMeshCookingResult@2@_N@Z 0000000180053380     TriangleMeshBuilder.obj
 0002:0000d39c       $chain$5$?loadFromDesc@TriangleMeshBuilder@physx@@QEAA_NAEBVPxTriangleMeshDesc@2@PEAW4Enum@PxTriangleMeshCookingResult@2@_N@Z 000000018005339c     TriangleMeshBuilder.obj
 0002:0000d3ac       $unwind$?save@TriangleMeshBuilder@physx@@QEBA_NAEAVPxOutputStream@2@_NAEBUPxCookingParams@2@@Z 00000001800533ac     TriangleMeshBuilder.obj
 0002:0000d3c8       $chain$3$?save@TriangleMeshBuilder@physx@@QEBA_NAEAVPxOutputStream@2@_NAEBUPxCookingParams@2@@Z 00000001800533c8     TriangleMeshBuilder.obj
 0002:0000d3dc       $unwind$?checkMeshIndicesSize@TriangleMeshBuilder@physx@@QEAAXXZ 00000001800533dc     TriangleMeshBuilder.obj
 0002:0000d3e8       $chain$1$?checkMeshIndicesSize@TriangleMeshBuilder@physx@@QEAAXXZ 00000001800533e8     TriangleMeshBuilder.obj
 0002:0000d400       $chain$2$?checkMeshIndicesSize@TriangleMeshBuilder@physx@@QEAAXXZ 0000000180053400     TriangleMeshBuilder.obj
 0002:0000d414       $chain$3$?checkMeshIndicesSize@TriangleMeshBuilder@physx@@QEAAXXZ 0000000180053414     TriangleMeshBuilder.obj
 0002:0000d424       $chain$4$?checkMeshIndicesSize@TriangleMeshBuilder@physx@@QEAAXXZ 0000000180053424     TriangleMeshBuilder.obj
 0002:0000d434       $unwind$?importMesh@TriangleMeshBuilder@physx@@IEAA_NAEBVPxTriangleMeshDesc@2@AEBUPxCookingParams@2@PEAW4Enum@PxTriangleMeshCookingResult@2@_N@Z 0000000180053434     TriangleMeshBuilder.obj
 0002:0000d450       $unwind$?createMidPhaseStructure@RTreeTriangleMeshBuilder@physx@@UEAAXXZ 0000000180053450     TriangleMeshBuilder.obj
 0002:0000d458       $unwind$?saveMidPhaseStructure@RTreeTriangleMeshBuilder@physx@@UEBAXAEAVPxOutputStream@2@_N@Z 0000000180053458     TriangleMeshBuilder.obj
 0002:0000d468       $chain$0$?saveMidPhaseStructure@RTreeTriangleMeshBuilder@physx@@UEBAXAEAVPxOutputStream@2@_N@Z 0000000180053468     TriangleMeshBuilder.obj
 0002:0000d47c       $chain$1$?saveMidPhaseStructure@RTreeTriangleMeshBuilder@physx@@UEBAXAEAVPxOutputStream@2@_N@Z 000000018005347c     TriangleMeshBuilder.obj
 0002:0000d48c       $unwind$?createMidPhaseStructure@BV4TriangleMeshBuilder@physx@@UEAAXXZ 000000018005348c     TriangleMeshBuilder.obj
 0002:0000d498       $chain$2$?createMidPhaseStructure@BV4TriangleMeshBuilder@physx@@UEAAXXZ 0000000180053498     TriangleMeshBuilder.obj
 0002:0000d4b4       $chain$3$?createMidPhaseStructure@BV4TriangleMeshBuilder@physx@@UEAAXXZ 00000001800534b4     TriangleMeshBuilder.obj
 0002:0000d4c8       $chain$4$?createMidPhaseStructure@BV4TriangleMeshBuilder@physx@@UEAAXXZ 00000001800534c8     TriangleMeshBuilder.obj
 0002:0000d4d8       $chain$5$?createMidPhaseStructure@BV4TriangleMeshBuilder@physx@@UEAAXXZ 00000001800534d8     TriangleMeshBuilder.obj
 0002:0000d4ec       $unwind$?createMidPhaseStructure@BV32TriangleMeshBuilder@physx@@SAXAEBUPxCookingParams@2@AEAVTriangleMeshData@Gu@2@AEAVBV32Tree@52@@Z 00000001800534ec     TriangleMeshBuilder.obj
 0002:0000d4fc       $chain$0$?createMidPhaseStructure@BV32TriangleMeshBuilder@physx@@SAXAEBUPxCookingParams@2@AEAVTriangleMeshData@Gu@2@AEAVBV32Tree@52@@Z 00000001800534fc     TriangleMeshBuilder.obj
 0002:0000d510       $chain$1$?createMidPhaseStructure@BV32TriangleMeshBuilder@physx@@SAXAEBUPxCookingParams@2@AEAVTriangleMeshData@Gu@2@AEAVBV32Tree@52@@Z 0000000180053510     TriangleMeshBuilder.obj
 0002:0000d524       $chain$2$?createMidPhaseStructure@BV32TriangleMeshBuilder@physx@@SAXAEBUPxCookingParams@2@AEAVTriangleMeshData@Gu@2@AEAVBV32Tree@52@@Z 0000000180053524     TriangleMeshBuilder.obj
 0002:0000d534       $chain$3$?createMidPhaseStructure@BV32TriangleMeshBuilder@physx@@SAXAEBUPxCookingParams@2@AEAVTriangleMeshData@Gu@2@AEAVBV32Tree@52@@Z 0000000180053534     TriangleMeshBuilder.obj
 0002:0000d544       $unwind$?findAdjacent@physx@@YAIPEBVPxVec3@1@0PEBUuint3@1@IIIAEBVPxPlane@1@PEAUEdgeTriLookup@1@I@Z 0000000180053544     TriangleMeshBuilder.obj
 0002:0000d568       $unwind$?buildAdjacencies@physx@@YAXPEAUuint4@1@PEAVPxVec3@1@PEBV31@PEBUuint3@1@I@Z 0000000180053568     TriangleMeshBuilder.obj
 0002:0000d574       $chain$3$?buildAdjacencies@physx@@YAXPEAUuint4@1@PEAVPxVec3@1@PEBV31@PEBUuint3@1@I@Z 0000000180053574     TriangleMeshBuilder.obj
 0002:0000d594       $chain$7$?buildAdjacencies@physx@@YAXPEAUuint4@1@PEAVPxVec3@1@PEBV31@PEBUuint3@1@I@Z 0000000180053594     TriangleMeshBuilder.obj
 0002:0000d5b4       $chain$11$?buildAdjacencies@physx@@YAXPEAUuint4@1@PEAVPxVec3@1@PEBV31@PEBUuint3@1@I@Z 00000001800535b4     TriangleMeshBuilder.obj
 0002:0000d5d4       $chain$12$?buildAdjacencies@physx@@YAXPEAUuint4@1@PEAVPxVec3@1@PEBV31@PEBUuint3@1@I@Z 00000001800535d4     TriangleMeshBuilder.obj
 0002:0000d5e4       $chain$13$?buildAdjacencies@physx@@YAXPEAUuint4@1@PEAVPxVec3@1@PEBV31@PEBUuint3@1@I@Z 00000001800535e4     TriangleMeshBuilder.obj
 0002:0000d5f4       $chain$14$?buildAdjacencies@physx@@YAXPEAUuint4@1@PEAVPxVec3@1@PEBV31@PEBUuint3@1@I@Z 00000001800535f4     TriangleMeshBuilder.obj
 0002:0000d604       $unwind$??$sort@UEdgeTriLookup@physx@@U?$Less@UEdgeTriLookup@physx@@@shdfnd@2@V?$ReflectionAllocator@UEdgeTriLookup@physx@@@42@@shdfnd@physx@@YAXPEAUEdgeTriLookup@1@IAEBU?$Less@UEdgeTriLookup@physx@@@01@AEBV?$ReflectionAllocator@UEdgeTriLookup@physx@@@01@I@Z 0000000180053604     TriangleMeshBuilder.obj
 0002:0000d624       $unwind$?precompute@BigConvexDataBuilder@physx@@QEAA_NI@Z 0000000180053624     BigConvexDataBuilder.obj
 0002:0000d63c       $chain$10$?precompute@BigConvexDataBuilder@physx@@QEAA_NI@Z 000000018005363c     BigConvexDataBuilder.obj
 0002:0000d678       $chain$11$?precompute@BigConvexDataBuilder@physx@@QEAA_NI@Z 0000000180053678     BigConvexDataBuilder.obj
 0002:0000d688       $unwind$?save@BigConvexDataBuilder@physx@@QEBA_NAEAVPxOutputStream@2@_N@Z 0000000180053688     BigConvexDataBuilder.obj
 0002:0000d698       $chain$0$?save@BigConvexDataBuilder@physx@@QEBA_NAEAVPxOutputStream@2@_N@Z 0000000180053698     BigConvexDataBuilder.obj
 0002:0000d6ac       $chain$1$?save@BigConvexDataBuilder@physx@@QEBA_NAEAVPxOutputStream@2@_N@Z 00000001800536ac     BigConvexDataBuilder.obj
 0002:0000d6c0       $chain$2$?save@BigConvexDataBuilder@physx@@QEBA_NAEAVPxOutputStream@2@_N@Z 00000001800536c0     BigConvexDataBuilder.obj
 0002:0000d6d0       $chain$3$?save@BigConvexDataBuilder@physx@@QEBA_NAEAVPxOutputStream@2@_N@Z 00000001800536d0     BigConvexDataBuilder.obj
 0002:0000d6e0       $unwind$?computeValencies@BigConvexDataBuilder@physx@@QEAA_NAEBVConvexHullBuilder@2@@Z 00000001800536e0     BigConvexDataBuilder.obj
 0002:0000d6f4       $chain$2$?computeValencies@BigConvexDataBuilder@physx@@QEAA_NAEBVConvexHullBuilder@2@@Z 00000001800536f4     BigConvexDataBuilder.obj
 0002:0000d710       $chain$3$?computeValencies@BigConvexDataBuilder@physx@@QEAA_NAEBVConvexHullBuilder@2@@Z 0000000180053710     BigConvexDataBuilder.obj
 0002:0000d720       $unwind$?init@ConvexHullBuilder@physx@@QEAA_NIPEBVPxVec3@2@PEBIIIPEBUPxHullPolygon@2@_NPEAVConvexHullLib@2@@Z 0000000180053720     ConvexHullBuilder.obj
 0002:0000d738       $chain$0$?init@ConvexHullBuilder@physx@@QEAA_NIPEBVPxVec3@2@PEBIIIPEBUPxHullPolygon@2@_NPEAVConvexHullLib@2@@Z 0000000180053738     ConvexHullBuilder.obj
 0002:0000d74c       $chain$2$?init@ConvexHullBuilder@physx@@QEAA_NIPEBVPxVec3@2@PEBIIIPEBUPxHullPolygon@2@_NPEAVConvexHullLib@2@@Z 000000018005374c     ConvexHullBuilder.obj
 0002:0000d764       $chain$7$?init@ConvexHullBuilder@physx@@QEAA_NIPEBVPxVec3@2@PEBIIIPEBUPxHullPolygon@2@_NPEAVConvexHullLib@2@@Z 0000000180053764     ConvexHullBuilder.obj
 0002:0000d788       $chain$9$?init@ConvexHullBuilder@physx@@QEAA_NIPEBVPxVec3@2@PEBIIIPEBUPxHullPolygon@2@_NPEAVConvexHullLib@2@@Z 0000000180053788     ConvexHullBuilder.obj
 0002:0000d7a0       $chain$10$?init@ConvexHullBuilder@physx@@QEAA_NIPEBVPxVec3@2@PEBIIIPEBUPxHullPolygon@2@_NPEAVConvexHullLib@2@@Z 00000001800537a0     ConvexHullBuilder.obj
 0002:0000d7b4       $chain$11$?init@ConvexHullBuilder@physx@@QEAA_NIPEBVPxVec3@2@PEBIIIPEBUPxHullPolygon@2@_NPEAVConvexHullLib@2@@Z 00000001800537b4     ConvexHullBuilder.obj
 0002:0000d7c4       $chain$12$?init@ConvexHullBuilder@physx@@QEAA_NIPEBVPxVec3@2@PEBIIIPEBUPxHullPolygon@2@_NPEAVConvexHullLib@2@@Z 00000001800537c4     ConvexHullBuilder.obj
 0002:0000d7d4       $chain$13$?init@ConvexHullBuilder@physx@@QEAA_NIPEBVPxVec3@2@PEBIIIPEBUPxHullPolygon@2@_NPEAVConvexHullLib@2@@Z 00000001800537d4     ConvexHullBuilder.obj
 0002:0000d7e4       $chain$14$?init@ConvexHullBuilder@physx@@QEAA_NIPEBVPxVec3@2@PEBIIIPEBUPxHullPolygon@2@_NPEAVConvexHullLib@2@@Z 00000001800537e4     ConvexHullBuilder.obj
 0002:0000d7f4       $chain$15$?init@ConvexHullBuilder@physx@@QEAA_NIPEBVPxVec3@2@PEBIIIPEBUPxHullPolygon@2@_NPEAVConvexHullLib@2@@Z 00000001800537f4     ConvexHullBuilder.obj
 0002:0000d804       $chain$16$?init@ConvexHullBuilder@physx@@QEAA_NIPEBVPxVec3@2@PEBIIIPEBUPxHullPolygon@2@_NPEAVConvexHullLib@2@@Z 0000000180053804     ConvexHullBuilder.obj
 0002:0000d820       $chain$17$?init@ConvexHullBuilder@physx@@QEAA_NIPEBVPxVec3@2@PEBIIIPEBUPxHullPolygon@2@_NPEAVConvexHullLib@2@@Z 0000000180053820     ConvexHullBuilder.obj
 0002:0000d834       $unwind$?save@ConvexHullBuilder@physx@@QEBA_NAEAVPxOutputStream@2@_N@Z 0000000180053834     ConvexHullBuilder.obj
 0002:0000d844       $chain$0$?save@ConvexHullBuilder@physx@@QEBA_NAEAVPxOutputStream@2@_N@Z 0000000180053844     ConvexHullBuilder.obj
 0002:0000d858       $chain$3$?save@ConvexHullBuilder@physx@@QEBA_NAEAVPxOutputStream@2@_N@Z 0000000180053858     ConvexHullBuilder.obj
 0002:0000d874       $chain$4$?save@ConvexHullBuilder@physx@@QEBA_NAEAVPxOutputStream@2@_N@Z 0000000180053874     ConvexHullBuilder.obj
 0002:0000d888       $chain$5$?save@ConvexHullBuilder@physx@@QEBA_NAEAVPxOutputStream@2@_N@Z 0000000180053888     ConvexHullBuilder.obj
 0002:0000d898       $unwind$?copy@ConvexHullBuilder@physx@@QEAA_NAEAUConvexHullData@Gu@2@AEAI@Z 0000000180053898     ConvexHullBuilder.obj
 0002:0000d898       $unwind$??$copy_and_add_argument_to_buffer@D@@YAHQEBD0_KAEAV?$argument_list@D@?A0x5f5c8891@@@Z 0000000180053898     libucrt:argv_wildcards.obj
 0002:0000d8b4       $unwind$?createEdgeList@ConvexHullBuilder@physx@@QEAA_N_NI@Z 00000001800538b4     ConvexHullBuilder.obj
 0002:0000d8c4       $chain$4$?createEdgeList@ConvexHullBuilder@physx@@QEAA_N_NI@Z 00000001800538c4     ConvexHullBuilder.obj
 0002:0000d8e8       $chain$6$?createEdgeList@ConvexHullBuilder@physx@@QEAA_N_NI@Z 00000001800538e8     ConvexHullBuilder.obj
 0002:0000d90c       $unwind$?checkHullPolygons@ConvexHullBuilder@physx@@QEBA_NXZ 000000018005390c     ConvexHullBuilder.obj
 0002:0000d918       $chain$14$?checkHullPolygons@ConvexHullBuilder@physx@@QEBA_NXZ 0000000180053918     ConvexHullBuilder.obj
 0002:0000d964       $chain$16$?checkHullPolygons@ConvexHullBuilder@physx@@QEBA_NXZ 0000000180053964     ConvexHullBuilder.obj
 0002:0000d9b0       $chain$17$?checkHullPolygons@ConvexHullBuilder@physx@@QEBA_NXZ 00000001800539b0     ConvexHullBuilder.obj
 0002:0000d9c0       $unwind$?calculateVertexMapTable@ConvexHullBuilder@physx@@QEAA_NI_N@Z 00000001800539c0     ConvexHullBuilder.obj
 0002:0000d9dc       $unwind$?computeGeomCenter@ConvexHullBuilder@physx@@IEBA_NAEAVPxVec3@2@IPEAUHullTriangleData@2@@Z 00000001800539dc     ConvexHullBuilder.obj
 0002:0000d9e4       $chain$1$?computeGeomCenter@ConvexHullBuilder@physx@@IEBA_NAEAVPxVec3@2@IPEAUHullTriangleData@2@@Z 00000001800539e4     ConvexHullBuilder.obj
 0002:0000d9fc       $chain$10$?computeGeomCenter@ConvexHullBuilder@physx@@IEBA_NAEAVPxVec3@2@IPEAUHullTriangleData@2@@Z 00000001800539fc     ConvexHullBuilder.obj
 0002:0000da30       $chain$11$?computeGeomCenter@ConvexHullBuilder@physx@@IEBA_NAEAVPxVec3@2@IPEAUHullTriangleData@2@@Z 0000000180053a30     ConvexHullBuilder.obj
 0002:0000da40       $chain$12$?computeGeomCenter@ConvexHullBuilder@physx@@IEBA_NAEAVPxVec3@2@IPEAUHullTriangleData@2@@Z 0000000180053a40     ConvexHullBuilder.obj
 0002:0000da50       $chain$0$??$?_UE@@YAPEAX_KV?$ReflectionAllocator@E@shdfnd@physx@@PEBDH@Z 0000000180053a50     ConvexHullBuilder.obj
 0002:0000da64       $chain$1$??$?_UE@@YAPEAX_KV?$ReflectionAllocator@E@shdfnd@physx@@PEBDH@Z 0000000180053a64     ConvexHullBuilder.obj
 0002:0000da74       $unwind$?cleanupVertices@ConvexHullLib@physx@@IEAA_NIPEBVPxVec3@2@IAEAIPEAV32@AEAV32@3@Z 0000000180053a74     ConvexHullLib.obj
 0002:0000da9c       $chain$6$?cleanupVertices@ConvexHullLib@physx@@IEAA_NIPEBVPxVec3@2@IAEAIPEAV32@AEAV32@3@Z 0000000180053a9c     ConvexHullLib.obj
 0002:0000dab4       $chain$12$?cleanupVertices@ConvexHullLib@physx@@IEAA_NIPEBVPxVec3@2@IAEAIPEAV32@AEAV32@3@Z 0000000180053ab4     ConvexHullLib.obj
 0002:0000dadc       $chain$13$?cleanupVertices@ConvexHullLib@physx@@IEAA_NIPEBVPxVec3@2@IAEAIPEAV32@AEAV32@3@Z 0000000180053adc     ConvexHullLib.obj
 0002:0000daec       $chain$14$?cleanupVertices@ConvexHullLib@physx@@IEAA_NIPEBVPxVec3@2@IAEAIPEAV32@AEAV32@3@Z 0000000180053aec     ConvexHullLib.obj
 0002:0000dafc       $unwind$?shiftAndcleanupVertices@ConvexHullLib@physx@@IEAA_NIPEBVPxVec3@2@IAEAIPEAV32@AEAV32@3@Z 0000000180053afc     ConvexHullLib.obj
 0002:0000db0c       $chain$6$?shiftAndcleanupVertices@ConvexHullLib@physx@@IEAA_NIPEBVPxVec3@2@IAEAIPEAV32@AEAV32@3@Z 0000000180053b0c     ConvexHullLib.obj
 0002:0000db38       $chain$7$?shiftAndcleanupVertices@ConvexHullLib@physx@@IEAA_NIPEBVPxVec3@2@IAEAIPEAV32@AEAV32@3@Z 0000000180053b38     ConvexHullLib.obj
 0002:0000db5c       $chain$12$?shiftAndcleanupVertices@ConvexHullLib@physx@@IEAA_NIPEBVPxVec3@2@IAEAIPEAV32@AEAV32@3@Z 0000000180053b5c     ConvexHullLib.obj
 0002:0000db80       $chain$13$?shiftAndcleanupVertices@ConvexHullLib@physx@@IEAA_NIPEBVPxVec3@2@IAEAIPEAV32@AEAV32@3@Z 0000000180053b80     ConvexHullLib.obj
 0002:0000db90       $chain$14$?shiftAndcleanupVertices@ConvexHullLib@physx@@IEAA_NIPEBVPxVec3@2@IAEAIPEAV32@AEAV32@3@Z 0000000180053b90     ConvexHullLib.obj
 0002:0000dba0       $unwind$?swapLargestFace@ConvexHullLib@physx@@IEAAXAEAVPxConvexMeshDesc@2@@Z 0000000180053ba0     ConvexHullLib.obj
 0002:0000dbb0       $chain$1$?swapLargestFace@ConvexHullLib@physx@@IEAAXAEAVPxConvexMeshDesc@2@@Z 0000000180053bb0     ConvexHullLib.obj
 0002:0000dbc8       $chain$2$?swapLargestFace@ConvexHullLib@physx@@IEAAXAEAVPxConvexMeshDesc@2@@Z 0000000180053bc8     ConvexHullLib.obj
 0002:0000dbdc       $chain$3$?swapLargestFace@ConvexHullLib@physx@@IEAAXAEAVPxConvexMeshDesc@2@@Z 0000000180053bdc     ConvexHullLib.obj
 0002:0000dbec       $chain$4$?swapLargestFace@ConvexHullLib@physx@@IEAAXAEAVPxConvexMeshDesc@2@@Z 0000000180053bec     ConvexHullLib.obj
 0002:0000dbfc       $unwind$?checkPointsAABBValidity@local@@YA_NIPEBVPxVec3@physx@@IMMAEAV23@1AEAIPEAV23@_N@Z 0000000180053bfc     ConvexHullLib.obj
 0002:0000dc18       $chain$5$?checkPointsAABBValidity@local@@YA_NIPEBVPxVec3@physx@@IMMAEAV23@1AEAIPEAV23@_N@Z 0000000180053c18     ConvexHullLib.obj
 0002:0000dc40       $chain$6$?checkPointsAABBValidity@local@@YA_NIPEBVPxVec3@physx@@IMMAEAV23@1AEAIPEAV23@_N@Z 0000000180053c40     ConvexHullLib.obj
 0002:0000dc50       $unwind$??0PxQuat@physx@@QEAA@AEBVPxMat33@1@@Z 0000000180053c50     ConvexHullUtils.obj
 0002:0000dc50       $unwind$?UScore@UnDecorator@@SA?AUStringLiteral@@W4Tokens@@@Z 0000000180053c50     libvcruntime:undname.obj
 0002:0000dc58       $chain$0$??0PxQuat@physx@@QEAA@AEBVPxMat33@1@@Z 0000000180053c58     ConvexHullUtils.obj
 0002:0000dc6c       $chain$1$??0PxQuat@physx@@QEAA@AEBVPxMat33@1@@Z 0000000180053c6c     ConvexHullUtils.obj
 0002:0000dc7c       $unwind$?getInverse@PxMat33@physx@@QEBA?BV12@XZ 0000000180053c7c     ConvexHullUtils.obj
 0002:0000dc9c       $chain$1$?getInverse@PxMat33@physx@@QEBA?BV12@XZ 0000000180053c9c     ConvexHullUtils.obj
 0002:0000dcb4       $chain$2$?getInverse@PxMat33@physx@@QEBA?BV12@XZ 0000000180053cb4     ConvexHullUtils.obj
 0002:0000dcc4       $unwind$??0ConvexHull@physx@@QEAA@AEBVPxVec3@1@AEBVPxTransform@1@AEBV?$Array@VPxPlane@physx@@V?$ReflectionAllocator@VPxPlane@physx@@@shdfnd@2@@shdfnd@1@@Z 0000000180053cc4     ConvexHullUtils.obj
 0002:0000dcfc       $unwind$?findCandidatePlane@ConvexHull@physx@@QEBAHMM@Z 0000000180053cfc     ConvexHullUtils.obj
 0002:0000dd14       $chain$11$?findCandidatePlane@ConvexHull@physx@@QEBAHMM@Z 0000000180053d14     ConvexHullUtils.obj
 0002:0000dd54       $chain$12$?findCandidatePlane@ConvexHull@physx@@QEBAHMM@Z 0000000180053d54     ConvexHullUtils.obj
 0002:0000dd64       $chain$13$?findCandidatePlane@ConvexHull@physx@@QEBAHMM@Z 0000000180053d64     ConvexHullUtils.obj
 0002:0000dda4       $unwind$?assertIntact@ConvexHull@physx@@QEBA_NM@Z 0000000180053da4     ConvexHullUtils.obj
 0002:0000dde8       $unwind$?maxNumVertsPerFace@ConvexHull@physx@@QEBAIXZ 0000000180053de8     ConvexHullUtils.obj
 0002:0000ddf4       $chain$0$?maxNumVertsPerFace@ConvexHull@physx@@QEBAIXZ 0000000180053df4     ConvexHullUtils.obj
 0002:0000de08       $chain$1$?maxNumVertsPerFace@ConvexHull@physx@@QEBAIXZ 0000000180053e08     ConvexHullUtils.obj
 0002:0000de18       $chain$1$?allocate@?$Array@VHalfEdge@ConvexHull@physx@@V?$ReflectionAllocator@VHalfEdge@ConvexHull@physx@@@shdfnd@3@@shdfnd@physx@@IEAAPEAVHalfEdge@ConvexHull@3@I@Z 0000000180053e18     ConvexHullUtils.obj
 0002:0000de30       $chain$3$?allocate@?$Array@VHalfEdge@ConvexHull@physx@@V?$ReflectionAllocator@VHalfEdge@ConvexHull@physx@@@shdfnd@3@@shdfnd@physx@@IEAAPEAVHalfEdge@ConvexHull@3@I@Z 0000000180053e30     ConvexHullUtils.obj
 0002:0000de44       $chain$4$?allocate@?$Array@VHalfEdge@ConvexHull@physx@@V?$ReflectionAllocator@VHalfEdge@ConvexHull@physx@@@shdfnd@3@@shdfnd@physx@@IEAAPEAVHalfEdge@ConvexHull@3@I@Z 0000000180053e44     ConvexHullUtils.obj
 0002:0000de54       $chain$0$?recreate@?$Array@VHalfEdge@ConvexHull@physx@@V?$ReflectionAllocator@VHalfEdge@ConvexHull@physx@@@shdfnd@3@@shdfnd@physx@@IEAAXI@Z 0000000180053e54     ConvexHullUtils.obj
 0002:0000de68       $chain$1$?recreate@?$Array@VHalfEdge@ConvexHull@physx@@V?$ReflectionAllocator@VHalfEdge@ConvexHull@physx@@@shdfnd@3@@shdfnd@physx@@IEAAXI@Z 0000000180053e68     ConvexHullUtils.obj
 0002:0000de78       $chain$1$?allocate@?$Array@VPxPlane@physx@@V?$ReflectionAllocator@VPxPlane@physx@@@shdfnd@2@@shdfnd@physx@@IEAAPEAVPxPlane@3@I@Z 0000000180053e78     ConvexHullUtils.obj
 0002:0000de90       $chain$3$?allocate@?$Array@VPxPlane@physx@@V?$ReflectionAllocator@VPxPlane@physx@@@shdfnd@2@@shdfnd@physx@@IEAAPEAVPxPlane@3@I@Z 0000000180053e90     ConvexHullUtils.obj
 0002:0000dea4       $chain$4$?allocate@?$Array@VPxPlane@physx@@V?$ReflectionAllocator@VPxPlane@physx@@@shdfnd@2@@shdfnd@physx@@IEAAPEAVPxPlane@3@I@Z 0000000180053ea4     ConvexHullUtils.obj
 0002:0000deb4       $chain$0$?recreate@?$Array@VPxPlane@physx@@V?$ReflectionAllocator@VPxPlane@physx@@@shdfnd@2@@shdfnd@physx@@IEAAXI@Z 0000000180053eb4     ConvexHullUtils.obj
 0002:0000dec8       $chain$1$?recreate@?$Array@VPxPlane@physx@@V?$ReflectionAllocator@VPxPlane@physx@@@shdfnd@2@@shdfnd@physx@@IEAAXI@Z 0000000180053ec8     ConvexHullUtils.obj
 0002:0000ded8       $unwind$?convexHullCrop@physx@@YAPEAVConvexHull@1@AEBV21@AEBVPxPlane@1@M@Z 0000000180053ed8     ConvexHullUtils.obj
 0002:0000dee8       $chain$5$?convexHullCrop@physx@@YAPEAVConvexHull@1@AEBV21@AEBVPxPlane@1@M@Z 0000000180053ee8     ConvexHullUtils.obj
 0002:0000df10       $chain$6$?convexHullCrop@physx@@YAPEAVConvexHull@1@AEBV21@AEBVPxPlane@1@M@Z 0000000180053f10     ConvexHullUtils.obj
 0002:0000df24       $chain$7$?convexHullCrop@physx@@YAPEAVConvexHull@1@AEBV21@AEBVPxPlane@1@M@Z 0000000180053f24     ConvexHullUtils.obj
 0002:0000df24       $chain$9$?convexHullCrop@physx@@YAPEAVConvexHull@1@AEBV21@AEBVPxPlane@1@M@Z 0000000180053f24     ConvexHullUtils.obj
 0002:0000df34       $chain$8$?convexHullCrop@physx@@YAPEAVConvexHull@1@AEBV21@AEBVPxPlane@1@M@Z 0000000180053f34     ConvexHullUtils.obj
 0002:0000df48       $chain$10$?convexHullCrop@physx@@YAPEAVConvexHull@1@AEBV21@AEBVPxPlane@1@M@Z 0000000180053f48     ConvexHullUtils.obj
 0002:0000df58       $unwind$?computeOBBFromConvex@physx@@YA_NAEBVPxConvexMeshDesc@1@AEAVPxVec3@1@AEAVPxTransform@1@@Z 0000000180053f58     ConvexHullUtils.obj
 0002:0000df7c       $chain$4$?computeOBBFromConvex@physx@@YA_NAEBVPxConvexMeshDesc@1@AEAVPxVec3@1@AEAVPxTransform@1@@Z 0000000180053f7c     ConvexHullUtils.obj
 0002:0000dfa0       $chain$5$?computeOBBFromConvex@physx@@YA_NAEBVPxConvexMeshDesc@1@AEAVPxVec3@1@AEAVPxTransform@1@@Z 0000000180053fa0     ConvexHullUtils.obj
 0002:0000dfb0       $unwind$?rotate@Box@Gu@physx@@QEBA?AVPxVec3@3@AEBV43@@Z 0000000180053fb0     ConvexHullUtils.obj
 0002:0000dfbc       $unwind$?rotateInv@Box@Gu@physx@@QEBA?AVPxVec3@3@AEBV43@@Z 0000000180053fbc     ConvexHullUtils.obj
 0002:0000dfbc       $unwind$?transform@Box@Gu@physx@@QEBA?AVPxVec3@3@AEBV43@@Z 0000000180053fbc     ConvexHullUtils.obj
 0002:0000dfc8       $unwind$?computeAABBExtent@Box@Gu@physx@@QEBA?AVPxVec3@3@XZ 0000000180053fc8     ConvexHullUtils.obj
 0002:0000dfd4       $unwind$?computeOBBSIMD@local@@YAXIPEBT__m128@@AEAT2@AEBT2@1@Z 0000000180053fd4     ConvexHullUtils.obj
 0002:0000e000       $chain$1$?computeOBBSIMD@local@@YAXIPEBT__m128@@AEAT2@AEBT2@1@Z 0000000180054000     ConvexHullUtils.obj
 0002:0000e018       $chain$2$?computeOBBSIMD@local@@YAXIPEBT__m128@@AEAT2@AEBT2@1@Z 0000000180054018     ConvexHullUtils.obj
 0002:0000e028       $unwind$?build@ConvexMeshBuilder@physx@@QEAA_NAEBVPxConvexMeshDesc@2@I_NPEAVConvexHullLib@2@@Z 0000000180054028     ConvexMeshBuilder.obj
 0002:0000e038       $chain$0$?build@ConvexMeshBuilder@physx@@QEAA_NAEBVPxConvexMeshDesc@2@I_NPEAVConvexHullLib@2@@Z 0000000180054038     ConvexMeshBuilder.obj
 0002:0000e04c       $chain$2$?build@ConvexMeshBuilder@physx@@QEAA_NAEBVPxConvexMeshDesc@2@I_NPEAVConvexHullLib@2@@Z 000000018005404c     ConvexMeshBuilder.obj
 0002:0000e064       $chain$3$?build@ConvexMeshBuilder@physx@@QEAA_NAEBVPxConvexMeshDesc@2@I_NPEAVConvexHullLib@2@@Z 0000000180054064     ConvexMeshBuilder.obj
 0002:0000e074       $chain$4$?build@ConvexMeshBuilder@physx@@QEAA_NAEBVPxConvexMeshDesc@2@I_NPEAVConvexHullLib@2@@Z 0000000180054074     ConvexMeshBuilder.obj
 0002:0000e084       $unwind$?save@ConvexMeshBuilder@physx@@QEBA_NAEAVPxOutputStream@2@_N@Z 0000000180054084     ConvexMeshBuilder.obj
 0002:0000e094       $chain$0$?save@ConvexMeshBuilder@physx@@QEBA_NAEAVPxOutputStream@2@_N@Z 0000000180054094     ConvexMeshBuilder.obj
 0002:0000e0a8       $chain$1$?save@ConvexMeshBuilder@physx@@QEBA_NAEAVPxOutputStream@2@_N@Z 00000001800540a8     ConvexMeshBuilder.obj
 0002:0000e0b8       $unwind$?loadConvexHull@ConvexMeshBuilder@physx@@QEAA_NAEBVPxConvexMeshDesc@2@PEAVConvexHullLib@2@@Z 00000001800540b8     ConvexMeshBuilder.obj
 0002:0000e0d8       $unwind$?computeHullPolygons@ConvexMeshBuilder@physx@@QEAA_NAEBIPEBVPxVec3@2@0PEBIAEAVPxAllocatorCallback@2@AEAIAEAPEAV32@4AEAPEAI4AEAPEAUPxHullPolygon@2@@Z 00000001800540d8     ConvexMeshBuilder.obj
 0002:0000e0e4       $chain$3$?computeHullPolygons@ConvexMeshBuilder@physx@@QEAA_NAEBIPEBVPxVec3@2@0PEBIAEAVPxAllocatorCallback@2@AEAIAEAPEAV32@4AEAPEAI4AEAPEAUPxHullPolygon@2@@Z 00000001800540e4     ConvexMeshBuilder.obj
 0002:0000e100       $chain$4$?computeHullPolygons@ConvexMeshBuilder@physx@@QEAA_NAEBIPEBVPxVec3@2@0PEBIAEAVPxAllocatorCallback@2@AEAIAEAPEAV32@4AEAPEAI4AEAPEAUPxHullPolygon@2@@Z 0000000180054100     ConvexMeshBuilder.obj
 0002:0000e114       $unwind$?computeMassInfo@ConvexMeshBuilder@physx@@QEAAX_N@Z 0000000180054114     ConvexMeshBuilder.obj
 0002:0000e124       $chain$0$?computeMassInfo@ConvexMeshBuilder@physx@@QEAAX_N@Z 0000000180054124     ConvexMeshBuilder.obj
 0002:0000e138       $chain$1$?computeMassInfo@ConvexMeshBuilder@physx@@QEAAX_N@Z 0000000180054138     ConvexMeshBuilder.obj
 0002:0000e14c       $chain$5$?computeMassInfo@ConvexMeshBuilder@physx@@QEAAX_N@Z 000000018005414c     ConvexMeshBuilder.obj
 0002:0000e16c       $chain$6$?computeMassInfo@ConvexMeshBuilder@physx@@QEAAX_N@Z 000000018005416c     ConvexMeshBuilder.obj
 0002:0000e17c       $chain$7$?computeMassInfo@ConvexMeshBuilder@physx@@QEAAX_N@Z 000000018005417c     ConvexMeshBuilder.obj
 0002:0000e18c       $chain$8$?computeMassInfo@ConvexMeshBuilder@physx@@QEAAX_N@Z 000000018005418c     ConvexMeshBuilder.obj
 0002:0000e19c       $unwind$?ComputeInternalExtent@@YAXAEAUConvexHullData@Gu@physx@@PEBUHullPolygonData@23@@Z 000000018005419c     ConvexMeshBuilder.obj
 0002:0000e1c8       $chain$0$?ComputeInternalExtent@@YAXAEAUConvexHullData@Gu@physx@@PEBUHullPolygonData@23@@Z 00000001800541c8     ConvexMeshBuilder.obj
 0002:0000e1dc       $chain$1$?ComputeInternalExtent@@YAXAEAUConvexHullData@Gu@physx@@PEBUHullPolygonData@23@@Z 00000001800541dc     ConvexMeshBuilder.obj
 0002:0000e1ec       $unwind$?computeHullPolygons@ConvexPolygonsBuilder@physx@@QEAA_NAEBIPEBVPxVec3@2@0PEBI@Z 00000001800541ec     ConvexPolygonsBuilder.obj
 0002:0000e210       $chain$0$?computeHullPolygons@ConvexPolygonsBuilder@physx@@QEAA_NAEBIPEBVPxVec3@2@0PEBI@Z 0000000180054210     ConvexPolygonsBuilder.obj
 0002:0000e224       $chain$8$?computeHullPolygons@ConvexPolygonsBuilder@physx@@QEAA_NAEBIPEBVPxVec3@2@0PEBI@Z 0000000180054224     ConvexPolygonsBuilder.obj
 0002:0000e254       $chain$9$?computeHullPolygons@ConvexPolygonsBuilder@physx@@QEAA_NAEBIPEBVPxVec3@2@0PEBI@Z 0000000180054254     ConvexPolygonsBuilder.obj
 0002:0000e284       $unwind$?createPolygonData@ConvexPolygonsBuilder@physx@@AEAA_NXZ 0000000180054284     ConvexPolygonsBuilder.obj
 0002:0000e294       $chain$0$?createPolygonData@ConvexPolygonsBuilder@physx@@AEAA_NXZ 0000000180054294     ConvexPolygonsBuilder.obj
 0002:0000e2a8       $chain$6$?createPolygonData@ConvexPolygonsBuilder@physx@@AEAA_NXZ 00000001800542a8     ConvexPolygonsBuilder.obj
 0002:0000e2d0       $chain$7$?createPolygonData@ConvexPolygonsBuilder@physx@@AEAA_NXZ 00000001800542d0     ConvexPolygonsBuilder.obj
 0002:0000e2e0       $chain$8$?createPolygonData@ConvexPolygonsBuilder@physx@@AEAA_NXZ 00000001800542e0     ConvexPolygonsBuilder.obj
 0002:0000e2f0       $chain$9$?createPolygonData@ConvexPolygonsBuilder@physx@@AEAA_NXZ 00000001800542f0     ConvexPolygonsBuilder.obj
 0002:0000e31c       $chain$17$?createPolygonData@ConvexPolygonsBuilder@physx@@AEAA_NXZ 000000018005431c     ConvexPolygonsBuilder.obj
 0002:0000e34c       $chain$18$?createPolygonData@ConvexPolygonsBuilder@physx@@AEAA_NXZ 000000018005434c     ConvexPolygonsBuilder.obj
 0002:0000e35c       $unwind$?createTrianglesFromPolygons@ConvexPolygonsBuilder@physx@@AEAA_NXZ 000000018005435c     ConvexPolygonsBuilder.obj
 0002:0000e380       $chain$3$?createTrianglesFromPolygons@ConvexPolygonsBuilder@physx@@AEAA_NXZ 0000000180054380     ConvexPolygonsBuilder.obj
 0002:0000e3a0       $chain$4$?createTrianglesFromPolygons@ConvexPolygonsBuilder@physx@@AEAA_NXZ 00000001800543a0     ConvexPolygonsBuilder.obj
 0002:0000e3b0       $unwind$?findLineStrip@@YA_NAEAV?$Array@IV?$ReflectionAllocator@I@shdfnd@physx@@@shdfnd@physx@@AEBV?$Array@VPair@@V?$ReflectionAllocator@VPair@@@shdfnd@physx@@@23@@Z 00000001800543b0     ConvexPolygonsBuilder.obj
 0002:0000e3bc       $chain$3$?findLineStrip@@YA_NAEAV?$Array@IV?$ReflectionAllocator@I@shdfnd@physx@@@shdfnd@physx@@AEBV?$Array@VPair@@V?$ReflectionAllocator@VPair@@@shdfnd@physx@@@23@@Z 00000001800543bc     ConvexPolygonsBuilder.obj
 0002:0000e3dc       $chain$5$?findLineStrip@@YA_NAEAV?$Array@IV?$ReflectionAllocator@I@shdfnd@physx@@@shdfnd@physx@@AEBV?$Array@VPair@@V?$ReflectionAllocator@VPair@@@shdfnd@physx@@@23@@Z 00000001800543dc     ConvexPolygonsBuilder.obj
 0002:0000e3f4       $chain$6$?findLineStrip@@YA_NAEAV?$Array@IV?$ReflectionAllocator@I@shdfnd@physx@@@shdfnd@physx@@AEBV?$Array@VPair@@V?$ReflectionAllocator@VPair@@@shdfnd@physx@@@23@@Z 00000001800543f4     ConvexPolygonsBuilder.obj
 0002:0000e404       $chain$7$?findLineStrip@@YA_NAEAV?$Array@IV?$ReflectionAllocator@I@shdfnd@physx@@@shdfnd@physx@@AEBV?$Array@VPair@@V?$ReflectionAllocator@VPair@@@shdfnd@physx@@@23@@Z 0000000180054404     ConvexPolygonsBuilder.obj
 0002:0000e42c       $chain$1$?allocate@?$Array@VPair@@V?$ReflectionAllocator@VPair@@@shdfnd@physx@@@shdfnd@physx@@IEAAPEAVPair@@I@Z 000000018005442c     ConvexPolygonsBuilder.obj
 0002:0000e444       $chain$3$?allocate@?$Array@VPair@@V?$ReflectionAllocator@VPair@@@shdfnd@physx@@@shdfnd@physx@@IEAAPEAVPair@@I@Z 0000000180054444     ConvexPolygonsBuilder.obj
 0002:0000e458       $chain$4$?allocate@?$Array@VPair@@V?$ReflectionAllocator@VPair@@@shdfnd@physx@@@shdfnd@physx@@IEAAPEAVPair@@I@Z 0000000180054458     ConvexPolygonsBuilder.obj
 0002:0000e468       $unwind$?TestDuplicateTriangles@@YA_NAEAIPEAU?$TriangleT@I@Gu@physx@@_N@Z 0000000180054468     ConvexPolygonsBuilder.obj
 0002:0000e484       $unwind$?checkRedundantVertices@@YAXAEAIAEAV?$Array@IV?$ReflectionAllocator@I@shdfnd@physx@@@shdfnd@physx@@AEBVConvexPolygonsBuilder@3@11@Z 0000000180054484     ConvexPolygonsBuilder.obj
 0002:0000e4a0       $unwind$?extractHullPolygons@@YA_NAEAIAEAV?$Array@IV?$ReflectionAllocator@I@shdfnd@physx@@@shdfnd@physx@@AEBVConvexPolygonsBuilder@3@PEAV123@1@Z 00000001800544a0     ConvexPolygonsBuilder.obj
 0002:0000e4bc       $unwind$?FloodFill@Local@?7??extractHullPolygons@@YA_NAEAIAEAV?$Array@IV?$ReflectionAllocator@I@shdfnd@physx@@@shdfnd@physx@@AEBVConvexPolygonsBuilder@5@PEAV345@1@Z@SAX1PEBVAdjTriangle@5@IPEA_N@Z 00000001800544bc     ConvexPolygonsBuilder.obj
 0002:0000e4cc       $chain$0$?FloodFill@Local@?7??extractHullPolygons@@YA_NAEAIAEAV?$Array@IV?$ReflectionAllocator@I@shdfnd@physx@@@shdfnd@physx@@AEBVConvexPolygonsBuilder@5@PEAV345@1@Z@SAX1PEBVAdjTriangle@5@IPEA_N@Z 00000001800544cc     ConvexPolygonsBuilder.obj
 0002:0000e4e0       $chain$1$?FloodFill@Local@?7??extractHullPolygons@@YA_NAEAIAEAV?$Array@IV?$ReflectionAllocator@I@shdfnd@physx@@@shdfnd@physx@@AEBVConvexPolygonsBuilder@5@PEAV345@1@Z@SAX1PEBVAdjTriangle@5@IPEA_N@Z 00000001800544e0     ConvexPolygonsBuilder.obj
 0002:0000e4f0       $unwind$?CheckFloodFillFace@Local@?7??extractHullPolygons@@YA_NAEAIAEAV?$Array@IV?$ReflectionAllocator@I@shdfnd@physx@@@shdfnd@physx@@AEBVConvexPolygonsBuilder@5@PEAV345@1@Z@SA_NIPEBVAdjTriangle@5@PEBI@Z 00000001800544f0     ConvexPolygonsBuilder.obj
 0002:0000e508       $unwind$?createConvexHull@QuickHullConvexHullLib@physx@@UEAA?AW4Enum@PxConvexMeshCookingResult@2@XZ 0000000180054508     QuickHullConvexHullLib.obj
 0002:0000e520       $unwind$?createEdgeList@QuickHullConvexHullLib@physx@@UEAA_NIPEBEPEAPEAEPEAPEAG2@Z 0000000180054520     QuickHullConvexHullLib.obj
 0002:0000e540       $unwind$?expandHullOBB@QuickHullConvexHullLib@physx@@IEAA?AW4Enum@PxConvexMeshCookingResult@2@XZ 0000000180054540     QuickHullConvexHullLib.obj
 0002:0000e54c       $chain$4$?expandHullOBB@QuickHullConvexHullLib@physx@@IEAA?AW4Enum@PxConvexMeshCookingResult@2@XZ 000000018005454c     QuickHullConvexHullLib.obj
 0002:0000e570       $chain$5$?expandHullOBB@QuickHullConvexHullLib@physx@@IEAA?AW4Enum@PxConvexMeshCookingResult@2@XZ 0000000180054570     QuickHullConvexHullLib.obj
 0002:0000e584       $chain$6$?expandHullOBB@QuickHullConvexHullLib@physx@@IEAA?AW4Enum@PxConvexMeshCookingResult@2@XZ 0000000180054584     QuickHullConvexHullLib.obj
 0002:0000e594       $chain$7$?expandHullOBB@QuickHullConvexHullLib@physx@@IEAA?AW4Enum@PxConvexMeshCookingResult@2@XZ 0000000180054594     QuickHullConvexHullLib.obj
 0002:0000e5a4       $unwind$?expandHull@QuickHullConvexHullLib@physx@@IEAA?AW4Enum@PxConvexMeshCookingResult@2@XZ 00000001800545a4     QuickHullConvexHullLib.obj
 0002:0000e5c8       $unwind$?cleanupForSimplex@QuickHullConvexHullLib@physx@@IEAA_NPEAVPxVec3@2@IPEAUQuickHullVertex@local@@1AEAM2@Z 00000001800545c8     QuickHullConvexHullLib.obj
 0002:0000e5ec       $chain$4$?cleanupForSimplex@QuickHullConvexHullLib@physx@@IEAA_NPEAVPxVec3@2@IPEAUQuickHullVertex@local@@1AEAM2@Z 00000001800545ec     QuickHullConvexHullLib.obj
 0002:0000e610       $chain$6$?cleanupForSimplex@QuickHullConvexHullLib@physx@@IEAA_NPEAVPxVec3@2@IPEAUQuickHullVertex@local@@1AEAM2@Z 0000000180054610     QuickHullConvexHullLib.obj
 0002:0000e628       $chain$7$?cleanupForSimplex@QuickHullConvexHullLib@physx@@IEAA_NPEAVPxVec3@2@IPEAUQuickHullVertex@local@@1AEAM2@Z 0000000180054628     QuickHullConvexHullLib.obj
 0002:0000e63c       $chain$8$?cleanupForSimplex@QuickHullConvexHullLib@physx@@IEAA_NPEAVPxVec3@2@IPEAUQuickHullVertex@local@@1AEAM2@Z 000000018005463c     QuickHullConvexHullLib.obj
 0002:0000e650       $chain$9$?cleanupForSimplex@QuickHullConvexHullLib@physx@@IEAA_NPEAVPxVec3@2@IPEAUQuickHullVertex@local@@1AEAM2@Z 0000000180054650     QuickHullConvexHullLib.obj
 0002:0000e660       $chain$10$?cleanupForSimplex@QuickHullConvexHullLib@physx@@IEAA_NPEAVPxVec3@2@IPEAUQuickHullVertex@local@@1AEAM2@Z 0000000180054660     QuickHullConvexHullLib.obj
 0002:0000e670       $chain$11$?cleanupForSimplex@QuickHullConvexHullLib@physx@@IEAA_NPEAVPxVec3@2@IPEAUQuickHullVertex@local@@1AEAM2@Z 0000000180054670     QuickHullConvexHullLib.obj
 0002:0000e680       $chain$12$?cleanupForSimplex@QuickHullConvexHullLib@physx@@IEAA_NPEAVPxVec3@2@IPEAUQuickHullVertex@local@@1AEAM2@Z 0000000180054680     QuickHullConvexHullLib.obj
 0002:0000e690       $unwind$?fillConvexMeshDescFromQuickHull@QuickHullConvexHullLib@physx@@IEAAXAEAVPxConvexMeshDesc@2@@Z 0000000180054690     QuickHullConvexHullLib.obj
 0002:0000e6a8       $unwind$?fillConvexMeshDescFromCroppedHull@QuickHullConvexHullLib@physx@@IEAAXAEAVPxConvexMeshDesc@2@@Z 00000001800546a8     QuickHullConvexHullLib.obj
 0002:0000e6c0       $chain$0$??_GConvexHull@physx@@QEAAPEAXI@Z 00000001800546c0     QuickHullConvexHullLib.obj
 0002:0000e6d4       $chain$1$??_GConvexHull@physx@@QEAAPEAXI@Z 00000001800546d4     QuickHullConvexHullLib.obj
 0002:0000e6e4       $unwind$?mergeAdjacentFace@QuickHullFace@local@@QEAA_NPEAUQuickHullHalfEdge@2@AEAV?$Array@PEAUQuickHullFace@local@@V?$ReflectionAllocator@PEAUQuickHullFace@local@@@shdfnd@physx@@@shdfnd@physx@@@Z 00000001800546e4     QuickHullConvexHullLib.obj
 0002:0000e6fc       $chain$4$?mergeAdjacentFace@QuickHullFace@local@@QEAA_NPEAUQuickHullHalfEdge@2@AEAV?$Array@PEAUQuickHullFace@local@@V?$ReflectionAllocator@PEAUQuickHullFace@local@@@shdfnd@physx@@@shdfnd@physx@@@Z 00000001800546fc     QuickHullConvexHullLib.obj
 0002:0000e720       $chain$5$?mergeAdjacentFace@QuickHullFace@local@@QEAA_NPEAUQuickHullHalfEdge@2@AEAV?$Array@PEAUQuickHullFace@local@@V?$ReflectionAllocator@PEAUQuickHullFace@local@@@shdfnd@physx@@@shdfnd@physx@@@Z 0000000180054720     QuickHullConvexHullLib.obj
 0002:0000e720       $chain$8$?mergeAdjacentFace@QuickHullFace@local@@QEAA_NPEAUQuickHullHalfEdge@2@AEAV?$Array@PEAUQuickHullFace@local@@V?$ReflectionAllocator@PEAUQuickHullFace@local@@@shdfnd@physx@@@shdfnd@physx@@@Z 0000000180054720     QuickHullConvexHullLib.obj
 0002:0000e730       $chain$6$?mergeAdjacentFace@QuickHullFace@local@@QEAA_NPEAUQuickHullHalfEdge@2@AEAV?$Array@PEAUQuickHullFace@local@@V?$ReflectionAllocator@PEAUQuickHullFace@local@@@shdfnd@physx@@@shdfnd@physx@@@Z 0000000180054730     QuickHullConvexHullLib.obj
 0002:0000e754       $chain$7$?mergeAdjacentFace@QuickHullFace@local@@QEAA_NPEAUQuickHullHalfEdge@2@AEAV?$Array@PEAUQuickHullFace@local@@V?$ReflectionAllocator@PEAUQuickHullFace@local@@@shdfnd@physx@@@shdfnd@physx@@@Z 0000000180054754     QuickHullConvexHullLib.obj
 0002:0000e768       $unwind$?connectHalfEdges@QuickHullFace@local@@AEAAPEAU12@PEAUQuickHullHalfEdge@2@0@Z 0000000180054768     QuickHullConvexHullLib.obj
 0002:0000e770       $chain$0$?connectHalfEdges@QuickHullFace@local@@AEAAPEAU12@PEAUQuickHullHalfEdge@2@0@Z 0000000180054770     QuickHullConvexHullLib.obj
 0002:0000e784       $chain$4$?connectHalfEdges@QuickHullFace@local@@AEAAPEAU12@PEAUQuickHullHalfEdge@2@0@Z 0000000180054784     QuickHullConvexHullLib.obj
 0002:0000e7a4       $chain$5$?connectHalfEdges@QuickHullFace@local@@AEAAPEAU12@PEAUQuickHullHalfEdge@2@0@Z 00000001800547a4     QuickHullConvexHullLib.obj
 0002:0000e7b4       $chain$6$?connectHalfEdges@QuickHullFace@local@@AEAAPEAU12@PEAUQuickHullHalfEdge@2@0@Z 00000001800547b4     QuickHullConvexHullLib.obj
 0002:0000e7c4       $unwind$?parseInputVertices@QuickHull@local@@QEAAXPEBVPxVec3@physx@@I@Z 00000001800547c4     QuickHullConvexHullLib.obj
 0002:0000e7d4       $chain$0$?parseInputVertices@QuickHull@local@@QEAAXPEBVPxVec3@physx@@I@Z 00000001800547d4     QuickHullConvexHullLib.obj
 0002:0000e7e8       $chain$1$?parseInputVertices@QuickHull@local@@QEAAXPEBVPxVec3@physx@@I@Z 00000001800547e8     QuickHullConvexHullLib.obj
 0002:0000e7f8       $unwind$?buildHull@QuickHull@local@@QEAA?AW4Enum@QuickHullResult@2@XZ 00000001800547f8     QuickHullConvexHullLib.obj
 0002:0000e80c       $unwind$?computeMinMaxVerts@QuickHull@local@@IEAAXXZ 000000018005480c     QuickHullConvexHullLib.obj
 0002:0000e818       $unwind$?findSimplex@QuickHull@local@@IEAA_NXZ 0000000180054818     QuickHullConvexHullLib.obj
 0002:0000e82c       $chain$8$?findSimplex@QuickHull@local@@IEAA_NXZ 000000018005482c     QuickHullConvexHullLib.obj
 0002:0000e860       $chain$12$?findSimplex@QuickHull@local@@IEAA_NXZ 0000000180054860     QuickHullConvexHullLib.obj
 0002:0000e880       $chain$13$?findSimplex@QuickHull@local@@IEAA_NXZ 0000000180054880     QuickHullConvexHullLib.obj
 0002:0000e880       $chain$15$?findSimplex@QuickHull@local@@IEAA_NXZ 0000000180054880     QuickHullConvexHullLib.obj
 0002:0000e8b4       $chain$14$?findSimplex@QuickHull@local@@IEAA_NXZ 00000001800548b4     QuickHullConvexHullLib.obj
 0002:0000e8f8       $chain$16$?findSimplex@QuickHull@local@@IEAA_NXZ 00000001800548f8     QuickHullConvexHullLib.obj
 0002:0000e908       $unwind$?addSimplex@QuickHull@local@@IEAAXPEAUQuickHullVertex@2@_N@Z 0000000180054908     QuickHullConvexHullLib.obj
 0002:0000e91c       $chain$2$?addSimplex@QuickHull@local@@IEAAXPEAUQuickHullVertex@2@_N@Z 000000018005491c     QuickHullConvexHullLib.obj
 0002:0000e938       $chain$8$?addSimplex@QuickHull@local@@IEAAXPEAUQuickHullVertex@2@_N@Z 0000000180054938     QuickHullConvexHullLib.obj
 0002:0000e95c       $chain$3$?addSimplex@QuickHull@local@@IEAAXPEAUQuickHullVertex@2@_N@Z 000000018005495c     QuickHullConvexHullLib.obj
 0002:0000e96c       $unwind$?nextPointToAdd@QuickHull@local@@IEAAPEAUQuickHullVertex@2@AEAPEAUQuickHullFace@2@@Z 000000018005496c     QuickHullConvexHullLib.obj
 0002:0000e980       $unwind$?addPointToHull@QuickHull@local@@IEAA_NPEBUQuickHullVertex@2@AEAUQuickHullFace@2@AEA_N@Z 0000000180054980     QuickHullConvexHullLib.obj
 0002:0000e994       $chain$1$?addPointToHull@QuickHull@local@@IEAA_NPEBUQuickHullVertex@2@AEAUQuickHullFace@2@AEA_N@Z 0000000180054994     QuickHullConvexHullLib.obj
 0002:0000e9ac       $chain$2$?addPointToHull@QuickHull@local@@IEAA_NPEBUQuickHullVertex@2@AEAUQuickHullFace@2@AEA_N@Z 00000001800549ac     QuickHullConvexHullLib.obj
 0002:0000e9c0       $unwind$?createTriangle@QuickHull@local@@IEAAPEAUQuickHullFace@2@AEBUQuickHullVertex@2@00@Z 00000001800549c0     QuickHullConvexHullLib.obj
 0002:0000e9e8       $unwind$?calculateHorizon@QuickHull@local@@IEAAXAEBVPxVec3@physx@@PEAUQuickHullHalfEdge@2@AEAUQuickHullFace@2@AEAV?$Array@PEAUQuickHullHalfEdge@local@@V?$ReflectionAllocator@PEAUQuickHullHalfEdge@local@@@shdfnd@physx@@@shdfnd@4@AEAV?$Array@PEAUQuickHullFace@local@@V?$ReflectionAllocator@PEAUQuickHullFace@local@@@shdfnd@physx@@@84@@Z 00000001800549e8     QuickHullConvexHullLib.obj
 0002:0000ea00       $unwind$?doAdjacentMerge@QuickHull@local@@IEAA_NAEAUQuickHullFace@2@_NAEA_N@Z 0000000180054a00     QuickHullConvexHullLib.obj
 0002:0000ea10       $chain$1$?doAdjacentMerge@QuickHull@local@@IEAA_NAEAUQuickHullFace@2@_NAEA_N@Z 0000000180054a10     QuickHullConvexHullLib.obj
 0002:0000ea28       $chain$2$?doAdjacentMerge@QuickHull@local@@IEAA_NAEAUQuickHullFace@2@_NAEA_N@Z 0000000180054a28     QuickHullConvexHullLib.obj
 0002:0000ea3c       $chain$3$?doAdjacentMerge@QuickHull@local@@IEAA_NAEAUQuickHullFace@2@_NAEA_N@Z 0000000180054a3c     QuickHullConvexHullLib.obj
 0002:0000ea4c       $unwind$?resolveUnclaimedPoints@QuickHull@local@@IEAAXAEBV?$Array@PEAUQuickHullFace@local@@V?$ReflectionAllocator@PEAUQuickHullFace@local@@@shdfnd@physx@@@shdfnd@physx@@@Z 0000000180054a4c     QuickHullConvexHullLib.obj
 0002:0000ea5c       $chain$1$?resolveUnclaimedPoints@QuickHull@local@@IEAAXAEBV?$Array@PEAUQuickHullFace@local@@V?$ReflectionAllocator@PEAUQuickHullFace@local@@@shdfnd@physx@@@shdfnd@physx@@@Z 0000000180054a5c     QuickHullConvexHullLib.obj
 0002:0000ea74       $chain$2$?resolveUnclaimedPoints@QuickHull@local@@IEAAXAEBV?$Array@PEAUQuickHullFace@local@@V?$ReflectionAllocator@PEAUQuickHullFace@local@@@shdfnd@physx@@@shdfnd@physx@@@Z 0000000180054a74     QuickHullConvexHullLib.obj
 0002:0000ea84       $unwind$?postMergeHull@QuickHull@local@@IEAAXXZ 0000000180054a84     QuickHullConvexHullLib.obj
 0002:0000ea90       $chain$5$?postMergeHull@QuickHull@local@@IEAAXXZ 0000000180054a90     QuickHullConvexHullLib.obj
 0002:0000eab8       $chain$6$?postMergeHull@QuickHull@local@@IEAAXXZ 0000000180054ab8     QuickHullConvexHullLib.obj
 0002:0000eac8       $chain$7$?postMergeHull@QuickHull@local@@IEAAXXZ 0000000180054ac8     QuickHullConvexHullLib.obj
 0002:0000eaf0       $unwind$?canMergeFaces@QuickHull@local@@IEAA_NAEBUQuickHullHalfEdge@2@@Z 0000000180054af0     QuickHullConvexHullLib.obj
 0002:0000eb34       $unwind$?init@?$MemBlock@UQuickHullHalfEdge@local@@$0A@@local@@QEAAXI@Z 0000000180054b34     QuickHullConvexHullLib.obj
 0002:0000eb40       $unwind$??1?$MemBlock@UQuickHullFace@local@@$00@local@@QEAA@XZ 0000000180054b40     QuickHullConvexHullLib.obj
 0002:0000eb40       $unwind$??1?$MemBlock@UQuickHullHalfEdge@local@@$0A@@local@@QEAA@XZ 0000000180054b40     QuickHullConvexHullLib.obj
 0002:0000eb4c       $chain$0$??1?$MemBlock@UQuickHullFace@local@@$00@local@@QEAA@XZ 0000000180054b4c     QuickHullConvexHullLib.obj
 0002:0000eb4c       $chain$0$??1?$MemBlock@UQuickHullHalfEdge@local@@$0A@@local@@QEAA@XZ 0000000180054b4c     QuickHullConvexHullLib.obj
 0002:0000eb60       $chain$1$??1?$MemBlock@UQuickHullFace@local@@$00@local@@QEAA@XZ 0000000180054b60     QuickHullConvexHullLib.obj
 0002:0000eb60       $chain$1$??1?$MemBlock@UQuickHullHalfEdge@local@@$0A@@local@@QEAA@XZ 0000000180054b60     QuickHullConvexHullLib.obj
 0002:0000eb70       $unwind$?getFreeItem@?$MemBlock@UQuickHullHalfEdge@local@@$0A@@local@@QEAAPEAUQuickHullHalfEdge@2@XZ 0000000180054b70     QuickHullConvexHullLib.obj
 0002:0000eb7c       $chain$1$?allocate@?$Array@PEAUQuickHullHalfEdge@local@@V?$ReflectionAllocator@PEAUQuickHullHalfEdge@local@@@shdfnd@physx@@@shdfnd@physx@@IEAAPEAPEAUQuickHullHalfEdge@local@@I@Z 0000000180054b7c     QuickHullConvexHullLib.obj
 0002:0000eb94       $chain$3$?allocate@?$Array@PEAUQuickHullHalfEdge@local@@V?$ReflectionAllocator@PEAUQuickHullHalfEdge@local@@@shdfnd@physx@@@shdfnd@physx@@IEAAPEAPEAUQuickHullHalfEdge@local@@I@Z 0000000180054b94     QuickHullConvexHullLib.obj
 0002:0000eba8       $chain$4$?allocate@?$Array@PEAUQuickHullHalfEdge@local@@V?$ReflectionAllocator@PEAUQuickHullHalfEdge@local@@@shdfnd@physx@@@shdfnd@physx@@IEAAPEAPEAUQuickHullHalfEdge@local@@I@Z 0000000180054ba8     QuickHullConvexHullLib.obj
 0002:0000ebb8       $chain$0$?recreate@?$Array@PEAUQuickHullHalfEdge@local@@V?$ReflectionAllocator@PEAUQuickHullHalfEdge@local@@@shdfnd@physx@@@shdfnd@physx@@IEAAXI@Z 0000000180054bb8     QuickHullConvexHullLib.obj
 0002:0000ebcc       $chain$1$?recreate@?$Array@PEAUQuickHullHalfEdge@local@@V?$ReflectionAllocator@PEAUQuickHullHalfEdge@local@@@shdfnd@physx@@@shdfnd@physx@@IEAAXI@Z 0000000180054bcc     QuickHullConvexHullLib.obj
 0002:0000ebdc       $unwind$?init@?$MemBlock@UQuickHullFace@local@@$00@local@@QEAAXI@Z 0000000180054bdc     QuickHullConvexHullLib.obj
 0002:0000ebec       $unwind$?getFreeItem@?$MemBlock@UQuickHullFace@local@@$00@local@@QEAAPEAUQuickHullFace@2@XZ 0000000180054bec     QuickHullConvexHullLib.obj
 0002:0000ebfc       $chain$1$?allocate@?$Array@PEAUQuickHullFace@local@@V?$ReflectionAllocator@PEAUQuickHullFace@local@@@shdfnd@physx@@@shdfnd@physx@@IEAAPEAPEAUQuickHullFace@local@@I@Z 0000000180054bfc     QuickHullConvexHullLib.obj
 0002:0000ec14       $chain$3$?allocate@?$Array@PEAUQuickHullFace@local@@V?$ReflectionAllocator@PEAUQuickHullFace@local@@@shdfnd@physx@@@shdfnd@physx@@IEAAPEAPEAUQuickHullFace@local@@I@Z 0000000180054c14     QuickHullConvexHullLib.obj
 0002:0000ec28       $chain$4$?allocate@?$Array@PEAUQuickHullFace@local@@V?$ReflectionAllocator@PEAUQuickHullFace@local@@@shdfnd@physx@@@shdfnd@physx@@IEAAPEAPEAUQuickHullFace@local@@I@Z 0000000180054c28     QuickHullConvexHullLib.obj
 0002:0000ec38       $chain$0$?recreate@?$Array@PEAUQuickHullFace@local@@V?$ReflectionAllocator@PEAUQuickHullFace@local@@@shdfnd@physx@@@shdfnd@physx@@IEAAXI@Z 0000000180054c38     QuickHullConvexHullLib.obj
 0002:0000ec4c       $chain$1$?recreate@?$Array@PEAUQuickHullFace@local@@V?$ReflectionAllocator@PEAUQuickHullFace@local@@@shdfnd@physx@@@shdfnd@physx@@IEAAXI@Z 0000000180054c4c     QuickHullConvexHullLib.obj
 0002:0000ec5c       $chain$1$?allocate@?$Array@PEAUQuickHullVertex@local@@V?$ReflectionAllocator@PEAUQuickHullVertex@local@@@shdfnd@physx@@@shdfnd@physx@@IEAAPEAPEAUQuickHullVertex@local@@I@Z 0000000180054c5c     QuickHullConvexHullLib.obj
 0002:0000ec74       $chain$3$?allocate@?$Array@PEAUQuickHullVertex@local@@V?$ReflectionAllocator@PEAUQuickHullVertex@local@@@shdfnd@physx@@@shdfnd@physx@@IEAAPEAPEAUQuickHullVertex@local@@I@Z 0000000180054c74     QuickHullConvexHullLib.obj
 0002:0000ec88       $chain$4$?allocate@?$Array@PEAUQuickHullVertex@local@@V?$ReflectionAllocator@PEAUQuickHullVertex@local@@@shdfnd@physx@@@shdfnd@physx@@IEAAPEAPEAUQuickHullVertex@local@@I@Z 0000000180054c88     QuickHullConvexHullLib.obj
 0002:0000ec98       $chain$0$?recreate@?$Array@PEAUQuickHullVertex@local@@V?$ReflectionAllocator@PEAUQuickHullVertex@local@@@shdfnd@physx@@@shdfnd@physx@@IEAAXI@Z 0000000180054c98     QuickHullConvexHullLib.obj
 0002:0000ecac       $chain$1$?recreate@?$Array@PEAUQuickHullVertex@local@@V?$ReflectionAllocator@PEAUQuickHullVertex@local@@@shdfnd@physx@@@shdfnd@physx@@IEAAXI@Z 0000000180054cac     QuickHullConvexHullLib.obj
 0002:0000ecbc       $chain$1$?allocate@?$Array@UExpandPoint@local@@V?$ReflectionAllocator@UExpandPoint@local@@@shdfnd@physx@@@shdfnd@physx@@IEAAPEAUExpandPoint@local@@I@Z 0000000180054cbc     QuickHullConvexHullLib.obj
 0002:0000ecd4       $chain$3$?allocate@?$Array@UExpandPoint@local@@V?$ReflectionAllocator@UExpandPoint@local@@@shdfnd@physx@@@shdfnd@physx@@IEAAPEAUExpandPoint@local@@I@Z 0000000180054cd4     QuickHullConvexHullLib.obj
 0002:0000ece8       $chain$4$?allocate@?$Array@UExpandPoint@local@@V?$ReflectionAllocator@UExpandPoint@local@@@shdfnd@physx@@@shdfnd@physx@@IEAAPEAUExpandPoint@local@@I@Z 0000000180054ce8     QuickHullConvexHullLib.obj
 0002:0000ecf8       $chain$0$?recreate@?$Array@UExpandPoint@local@@V?$ReflectionAllocator@UExpandPoint@local@@@shdfnd@physx@@@shdfnd@physx@@IEAAXI@Z 0000000180054cf8     QuickHullConvexHullLib.obj
 0002:0000ed0c       $chain$1$?recreate@?$Array@UExpandPoint@local@@V?$ReflectionAllocator@UExpandPoint@local@@@shdfnd@physx@@@shdfnd@physx@@IEAAXI@Z 0000000180054d0c     QuickHullConvexHullLib.obj
 0002:0000ed1c       $unwind$?computeVolumeIntegralsEberly@physx@@YA_NAEBVPxConvexMeshDesc@1@MAEAUPxIntegrals@1@AEBVPxVec3@1@@Z 0000000180054d1c     VolumeIntegration.obj
 0002:0000ed1c       $unwind$?computeVolumeIntegralsEberlySIMD@physx@@YA_NAEBVPxConvexMeshDesc@1@MAEAUPxIntegrals@1@AEBVPxVec3@1@@Z 0000000180054d1c     VolumeIntegration.obj
 0002:0000ed1c       $unwind$__unDName          0000000180054d1c     libvcruntime:undname.obj
 0002:0000ed1c       $unwind$_raise_exc         0000000180054d1c     libucrt:fpexcept.obj
 0002:0000ed1c       $unwind$_raise_excf        0000000180054d1c     libucrt:fpexcept.obj
 0002:0000ed24       $unwind$?computeVolumeIntegralsSIMD@VolumeIntegratorEberly@?A0x9236742b@physx@@QEAA_NAEAUPxIntegrals@3@AEBVPxVec3@3@@Z 0000000180054d24     VolumeIntegration.obj
 0002:0000ed5c       $chain$1$?computeVolumeIntegralsSIMD@VolumeIntegratorEberly@?A0x9236742b@physx@@QEAA_NAEAUPxIntegrals@3@AEBVPxVec3@3@@Z 0000000180054d5c     VolumeIntegration.obj
 0002:0000ed74       $chain$2$?computeVolumeIntegralsSIMD@VolumeIntegratorEberly@?A0x9236742b@physx@@QEAA_NAEAUPxIntegrals@3@AEBVPxVec3@3@@Z 0000000180054d74     VolumeIntegration.obj
 0002:0000ed84       $unwind$?computeVolumeIntegrals@VolumeIntegratorEberly@?A0x9236742b@physx@@QEAA_NAEAUPxIntegrals@3@AEBVPxVec3@3@@Z 0000000180054d84     VolumeIntegration.obj
 0002:0000edbc       $chain$0$?computeVolumeIntegrals@VolumeIntegratorEberly@?A0x9236742b@physx@@QEAA_NAEAUPxIntegrals@3@AEBVPxVec3@3@@Z 0000000180054dbc     VolumeIntegration.obj
 0002:0000edd0       $chain$3$?computeVolumeIntegrals@VolumeIntegratorEberly@?A0x9236742b@physx@@QEAA_NAEAUPxIntegrals@3@AEBVPxVec3@3@@Z 0000000180054dd0     VolumeIntegration.obj
 0002:0000edec       $chain$4$?computeVolumeIntegrals@VolumeIntegratorEberly@?A0x9236742b@physx@@QEAA_NAEAUPxIntegrals@3@AEBVPxVec3@3@@Z 0000000180054dec     VolumeIntegration.obj
 0002:0000edfc       $chain$5$?computeVolumeIntegrals@VolumeIntegratorEberly@?A0x9236742b@physx@@QEAA_NAEAUPxIntegrals@3@AEBVPxVec3@3@@Z 0000000180054dfc     VolumeIntegration.obj
 0002:0000ee0c       $chain$1$?cookingDelayHook@@YAP6A_JXZIPEAUDelayLoadInfo@@@Z 0000000180054e0c     WindowsCookingDelayLoadHook.obj
 0002:0000ee24       $chain$3$?cookingDelayHook@@YAP6A_JXZIPEAUDelayLoadInfo@@@Z 0000000180054e24     WindowsCookingDelayLoadHook.obj
 0002:0000ee24       $chain$5$?cookingDelayHook@@YAP6A_JXZIPEAUDelayLoadInfo@@@Z 0000000180054e24     WindowsCookingDelayLoadHook.obj
 0002:0000ee3c       $chain$6$?cookingDelayHook@@YAP6A_JXZIPEAUDelayLoadInfo@@@Z 0000000180054e3c     WindowsCookingDelayLoadHook.obj
 0002:0000ee4c       xdata                      0000000180054e4c     PhysXCommon_64:PhysXCommon_64.dll
 0002:0000ee54       xdata                      0000000180054e54     PhysXFoundation_64:PhysXFoundation_64.dll
 0002:0000ee5c       $unwind$?DloadObtainSection@@YAPEAXPEAK0@Z 0000000180054e5c     Delayimp:delayhlp.obj
 0002:0000ee5c       $unwind$strstr             0000000180054e5c     libvcruntime:strstr.obj
 0002:0000ee6c       $unwind$?DloadProtectSection@@YAXKPEAK@Z 0000000180054e6c     Delayimp:delayhlp.obj
 0002:0000ee7c       $unwind$__delayLoadHelper2 0000000180054e7c     Delayimp:delayhlp.obj
 0002:0000ee98       $xdatasym                  0000000180054e98     LIBCMT:chkstk.obj
 0002:0000eea0       $unwind$?dllmain_crt_process_attach@@YAHQEAUHINSTANCE__@@QEAX@Z 0000000180054ea0     LIBCMT:dll_dllmain.obj
 0002:0000eedc       $unwind$?fin$0@?0??dllmain_crt_process_attach@@YAHQEAUHINSTANCE__@@QEAX@Z@4HA 0000000180054edc     LIBCMT:dll_dllmain.obj
 0002:0000eedc       $unwind$?fin$0@?0??dllmain_crt_process_detach@@YAH_N@Z@4HA 0000000180054edc     LIBCMT:dll_dllmain.obj
 0002:0000eedc       $unwind$?fin$1@?0??dllmain_crt_process_detach@@YAH_N@Z@4HA 0000000180054edc     LIBCMT:dll_dllmain.obj
 0002:0000eedc       $unwind$_IsNonwritableInCurrentImage$filt$0 0000000180054edc     LIBCMT:pesect.obj
 0002:0000eedc       $unwind$?filt$0@?0??CxxCallCatchBlock@__FrameHandler4@@SAPEAXPEAU_EXCEPTION_RECORD@@@Z@4HA 0000000180054edc     libvcruntime:frame.obj
 0002:0000eedc       $unwind$__unDNameEx$fin$0  0000000180054edc     libvcruntime:undname.obj
 0002:0000eedc       $unwind$_query_new_handler$fin$0 0000000180054edc     libucrt:new_handler.obj
 0002:0000eedc       $unwind$?fin$0@?0???$?RV<lambda_0ae27a3a962d80f24befdcbee591983d>@@AEAV<lambda_8d0ee55de4b1038c4002e0adecdf1839>@@V<lambda_dc504788e8f1664fe9b84e20bfb512f2>@@@?$__crt_seh_guarded_call@X@@QEAAX$$QEAV<lambda_0ae27a3a962d80f24befdcbee591983d>@@AEAV<lambda_8d0ee55de4b1038c4002e0adecdf1839>@@$$QEAV<lambda_dc504788e8f1664fe9b84e20bfb512f2>@@@Z@4HA 0000000180054edc     libucrt:per_thread_data.obj
 0002:0000eedc       $unwind$?fin$0@?0???$?RV<lambda_2d41944a1d46af3157314b8a01080d33>@@AEAV<lambda_8f455de75cd7d7f24b4096f044d8b9e6>@@V<lambda_aa500f224e6afead328df44964fe2772>@@@?$__crt_seh_guarded_call@X@@QEAAX$$QEAV<lambda_2d41944a1d46af3157314b8a01080d33>@@AEAV<lambda_8f455de75cd7d7f24b4096f044d8b9e6>@@$$QEAV<lambda_aa500f224e6afead328df44964fe2772>@@@Z@4HA 0000000180054edc     libucrt:per_thread_data.obj
 0002:0000eedc       $unwind$?fin$0@?0???$?RV<lambda_aa87e3671a710a21b5dc78c0bdf72e11>@@AEAV<lambda_92619d2358a28f41a33ba319515a20b9>@@V<lambda_6992ecaafeb10aed2b74cb1fae11a551>@@@?$__crt_seh_guarded_call@X@@QEAAX$$QEAV<lambda_aa87e3671a710a21b5dc78c0bdf72e11>@@AEAV<lambda_92619d2358a28f41a33ba319515a20b9>@@$$QEAV<lambda_6992ecaafeb10aed2b74cb1fae11a551>@@@Z@4HA 0000000180054edc     libucrt:per_thread_data.obj
 0002:0000eedc       $unwind$?fin$0@?0???$?RV<lambda_f2e299630e499de9f9a165e60fcd3db5>@@AEAV<lambda_2ae9d31cdba2644fcbeaf08da7c24588>@@V<lambda_40d01ff24d0e7b3814fdbdcee8eab3c7>@@@?$__crt_seh_guarded_call@X@@QEAAX$$QEAV<lambda_f2e299630e499de9f9a165e60fcd3db5>@@AEAV<lambda_2ae9d31cdba2644fcbeaf08da7c24588>@@$$QEAV<lambda_40d01ff24d0e7b3814fdbdcee8eab3c7>@@@Z@4HA 0000000180054edc     libucrt:per_thread_data.obj
 0002:0000eedc       $unwind$__acrt_update_thread_locale_data$fin$0 0000000180054edc     libucrt:locale_refcounting.obj
 0002:0000eedc       $unwind$?fin$0@?0???$?RV<lambda_410d79af7f07d98d83a3f525b3859a53>@@AEAV<lambda_3e16ef9562a7dcce91392c22ab16ea36>@@V<lambda_38119f0e861e05405d8a144b9b982f0a>@@@?$__crt_seh_guarded_call@X@@QEAAX$$QEAV<lambda_410d79af7f07d98d83a3f525b3859a53>@@AEAV<lambda_3e16ef9562a7dcce91392c22ab16ea36>@@$$QEAV<lambda_38119f0e861e05405d8a144b9b982f0a>@@@Z@4HA 0000000180054edc     libucrt:wsetlocale.obj
 0002:0000eedc       $unwind$?fin$0@?0???$?RV<lambda_751a882b2c74d4b022dec766aa51a29a>@@AEAV<lambda_628dfdc04ba53c8bfc02c9951375f3f5>@@V<lambda_f6c7be5f7998530c34de24c7437d6b54>@@@?$__crt_seh_guarded_call@H@@QEAAH$$QEAV<lambda_751a882b2c74d4b022dec766aa51a29a>@@AEAV<lambda_628dfdc04ba53c8bfc02c9951375f3f5>@@$$QEAV<lambda_f6c7be5f7998530c34de24c7437d6b54>@@@Z@4HA 0000000180054edc     libucrt:close.obj
 0002:0000eedc       $unwind$?fin$0@?0???$?RV<lambda_a37b2b86f63e897a80ea819b0eb08c01>@@AEAV<lambda_38ce7e780aa69e748d6df282ebc68efe>@@V<lambda_99fb1378e971ab6e7edea83e3a7a83a2>@@@?$__crt_seh_guarded_call@H@@QEAAH$$QEAV<lambda_a37b2b86f63e897a80ea819b0eb08c01>@@AEAV<lambda_38ce7e780aa69e748d6df282ebc68efe>@@$$QEAV<lambda_99fb1378e971ab6e7edea83e3a7a83a2>@@@Z@4HA 0000000180054edc     libucrt:commit.obj
 0002:0000eedc       $unwind$__acrt_initialize_lowio$fin$0 0000000180054edc     libucrt:ioinit.obj
 0002:0000eedc       $unwind$__acrt_lowio_ensure_fh_exists$fin$0 0000000180054edc     libucrt:osfinfo.obj
 0002:0000eedc       $unwind$_write$fin$0       0000000180054edc     libucrt:write.obj
 0002:0000eedc       $unwind$?fin$0@?0???$?RV<lambda_efdfa57d1f175319df784efa44bb7b81>@@AEAV<lambda_5f0a4c1567f8adc6734073e5d1e1b35c>@@V<lambda_2e8a7d3640ea6ccb4c2413664c2db6fd>@@@?$__crt_seh_guarded_call@X@@QEAAX$$QEAV<lambda_efdfa57d1f175319df784efa44bb7b81>@@AEAV<lambda_5f0a4c1567f8adc6734073e5d1e1b35c>@@$$QEAV<lambda_2e8a7d3640ea6ccb4c2413664c2db6fd>@@@Z@4HA 0000000180054edc     libucrt:mbctype.obj
 0002:0000eedc       $unwind$?fin$0@?0??update_thread_multibyte_data_internal@@YAPEAU__crt_multibyte_data@@QEAU__acrt_ptd@@QEAPEAU1@@Z@4HA 0000000180054edc     libucrt:mbctype.obj
 0002:0000eedc       $unwind$?fin$0@?0???$?RV<lambda_450d765d439847d4c735a33c368b5fc0>@@AEAV<lambda_44731a7d0e6d81c3e6aa82d741081786>@@V<lambda_601a2a7da3b7a96e9554ac7215c4b07c>@@@?$__crt_seh_guarded_call@P6AXH@Z@@QEAAP6AXH@Z$$QEAV<lambda_450d765d439847d4c735a33c368b5fc0>@@AEAV<lambda_44731a7d0e6d81c3e6aa82d741081786>@@$$QEAV<lambda_601a2a7da3b7a96e9554ac7215c4b07c>@@@Z@4HA 0000000180054edc     libucrt:signal.obj
 0002:0000eedc       $unwind$raise$fin$0        0000000180054edc     libucrt:signal.obj
 0002:0000eedc       $unwind$?filt$0@?0???R<lambda_6e4b09c48022b2350581041d5f6b0c4c>@@QEBA@XZ@4HA 0000000180054edc     libucrt:exit.obj
 0002:0000eedc       $unwind$?fin$0@?0???$?RV<lambda_d80eeec6fff315bfe5c115232f3240e3>@@AEAV<lambda_6e4b09c48022b2350581041d5f6b0c4c>@@V<lambda_2358e3775559c9db80273638284d5e45>@@@?$__crt_seh_guarded_call@X@@QEAAX$$QEAV<lambda_d80eeec6fff315bfe5c115232f3240e3>@@AEAV<lambda_6e4b09c48022b2350581041d5f6b0c4c>@@$$QEAV<lambda_2358e3775559c9db80273638284d5e45>@@@Z@4HA 0000000180054edc     libucrt:exit.obj
 0002:0000eedc       $unwind$?fin$0@?0???$?RV<lambda_7777bce6b2f8c936911f934f8298dc43>@@AEAV<lambda_f03950bc5685219e0bcd2087efbe011e>@@V<lambda_3883c3dff614d5e0c5f61bb1ac94921c>@@@?$__crt_seh_guarded_call@H@@QEAAH$$QEAV<lambda_7777bce6b2f8c936911f934f8298dc43>@@AEAV<lambda_f03950bc5685219e0bcd2087efbe011e>@@$$QEAV<lambda_3883c3dff614d5e0c5f61bb1ac94921c>@@@Z@4HA 0000000180054edc     libucrt:onexit.obj
 0002:0000eedc       $unwind$_fcloseall$fin$0   0000000180054edc     libucrt:closeall.obj
 0002:0000eedc       $unwind$fclose$fin$0       0000000180054edc     libucrt:fclose.obj
 0002:0000eedc       $unwind$?fin$0@?0???$?RV<lambda_842d9ff0dc9ef11c61343bbaebe7f885>@@AEAV<lambda_c5860995281e5c4ce005b3de8f5874ee>@@V<lambda_d90129c13df834fdcbf8d2b88dafcf2d>@@@?$__crt_seh_guarded_call@X@@QEAAX$$QEAV<lambda_842d9ff0dc9ef11c61343bbaebe7f885>@@AEAV<lambda_c5860995281e5c4ce005b3de8f5874ee>@@$$QEAV<lambda_d90129c13df834fdcbf8d2b88dafcf2d>@@@Z@4HA 0000000180054edc     libucrt:fflush.obj
 0002:0000eedc       $unwind$?fin$0@?0???$?RV<lambda_886d6c58226a84441f68b9f2b8217b83>@@AEAV<lambda_ab61a845afdef5b7c387490eaf3616ee>@@V<lambda_f7f22ab5edc0698d5f6905b0d3f44752>@@@?$__crt_seh_guarded_call@X@@QEAAX$$QEAV<lambda_886d6c58226a84441f68b9f2b8217b83>@@AEAV<lambda_ab61a845afdef5b7c387490eaf3616ee>@@$$QEAV<lambda_f7f22ab5edc0698d5f6905b0d3f44752>@@@Z@4HA 0000000180054edc     libucrt:fflush.obj
 0002:0000eedc       $unwind$_ctrlfp$filt$0     0000000180054edc     libucrt:fpctrl.obj
 0002:0000eedc       $unwind$common_control87$filt$0 0000000180054edc     libucrt:ieee.obj
 0002:0000eee4       $unwind$?dllmain_crt_process_detach@@YAH_N@Z 0000000180054ee4     LIBCMT:dll_dllmain.obj
 0002:0000ef38       $unwind$?dllmain_dispatch@@YAHQEAUHINSTANCE__@@KQEAX@Z 0000000180054f38     LIBCMT:dll_dllmain.obj
 0002:0000ef60       $unwind$?filt$0@?0??dllmain_dispatch@@YAHQEAUHINSTANCE__@@KQEAX@Z@4HA 0000000180054f60     LIBCMT:dll_dllmain.obj
 0002:0000ef60       $unwind$?filt$0@?0??FrameUnwindToState@__FrameHandler4@@SAXPEA_KPEAU_xDISPATCHER_CONTEXT@@PEAUFuncInfo4@FH4@@H@Z@4HA 0000000180054f60     libvcruntime:frame.obj
 0002:0000ef60       $unwind$?fin$1@?0??FrameUnwindToState@__FrameHandler4@@SAXPEA_KPEAU_xDISPATCHER_CONTEXT@@PEAUFuncInfo4@FH4@@H@Z@4HA 0000000180054f60     libvcruntime:frame.obj
 0002:0000ef68       $unwind$__isa_available_init 0000000180054f68     LIBCMT:cpu_disp.obj
 0002:0000ef78       $xdatasym                  0000000180054f78     LIBCMT:svml_ssinf4_sse2.obj
 0002:0000efb0       $xdatasym                  0000000180054fb0     LIBCMT:svml_ssinf4_sse4.obj
 0002:0000efe4       $unwind$__security_init_cookie 0000000180054fe4     LIBCMT:gs_support.obj
 0002:0000eff0       $unwind$__scrt_is_nonwritable_in_current_image 0000000180054ff0     LIBCMT:utility.obj
 0002:0000f010       $unwind$__scrt_is_nonwritable_in_current_image$filt$0 0000000180055010     LIBCMT:utility.obj
 0002:0000f018       $unwind$__scrt_fastfail    0000000180055018     LIBCMT:utility_desktop.obj
 0002:0000f028       $xdatasym                  0000000180055028     LIBCMT:guard_dispatch.obj
 0002:0000f030       $xdatasym                  0000000180055030     LIBCMT:guard_xfg_dispatch.obj
 0002:0000f038       $xdatasym                  0000000180055038     LIBCMT:svml_s_sin_cout.obj
 0002:0000f040       $unwind$__C_specific_handler 0000000180055040     libvcruntime:riscchandler.obj
 0002:0000f040       $unwind$__std_type_info_name 0000000180055040     libvcruntime:std_type_info.obj
 0002:0000f060       $xdatasym                  0000000180055060     libvcruntime:memset.obj
 0002:0000f070       $xdatasym                  0000000180055070     libvcruntime:memcpy.obj
 0002:0000f080       $unwind$__DestructExceptionObject 0000000180055080     libvcruntime:ehhelpers.obj
 0002:0000f0a0       $unwind$__DestructExceptionObject$filt$0 00000001800550a0     libvcruntime:ehhelpers.obj
 0002:0000f0a0       $unwind$?fin$1@?0??CxxCallCatchBlock@__FrameHandler4@@SAPEAXPEAU_EXCEPTION_RECORD@@@Z@4HA 00000001800550a0     libvcruntime:frame.obj
 0002:0000f0ac       $unwind$__unDNameEx        00000001800550ac     libvcruntime:undname.obj
 0002:0000f0dc       $unwind$sprintf_s          00000001800550dc     libvcruntime:undname.obj
 0002:0000f0ec       $unwind$??0DName@@QEAA@_J@Z 00000001800550ec     libvcruntime:undname.obj
 0002:0000f0ec       $unwind$??0DName@@QEAA@_K@Z 00000001800550ec     libvcruntime:undname.obj
 0002:0000f0fc       $unwind$?doPchar@DName@@AEAAXD@Z 00000001800550fc     libvcruntime:undname.obj
 0002:0000f108       $unwind$?getDecoratedName@UnDecorator@@CA?AVDName@@XZ 0000000180055108     libvcruntime:undname.obj
 0002:0000f128       $cppxdata$?getDecoratedName@UnDecorator@@CA?AVDName@@XZ 0000000180055128     libvcruntime:undname.obj
 0002:0000f131       $stateUnwindMap$?getDecoratedName@UnDecorator@@CA?AVDName@@XZ 0000000180055131     libvcruntime:undname.obj
 0002:0000f138       $ip2state$?getDecoratedName@UnDecorator@@CA?AVDName@@XZ 0000000180055138     libvcruntime:undname.obj
 0002:0000f140       $unwind$?getZName@UnDecorator@@CA?AVDName@@_N0@Z 0000000180055140     libvcruntime:undname.obj
 0002:0000f164       $unwind$?getOperatorName@UnDecorator@@CA?AVDName@@_NPEA_N@Z 0000000180055164     libvcruntime:undname.obj
 0002:0000f180       $unwind$?getScope@UnDecorator@@CA?AVDName@@XZ 0000000180055180     libvcruntime:undname.obj
 0002:0000f19c       $unwind$?getScopedName@UnDecorator@@CA?AVDName@@XZ 000000018005519c     libvcruntime:undname.obj
 0002:0000f1ac       $unwind$?getSignedDimension@UnDecorator@@CA?AVDName@@XZ 00000001800551ac     libvcruntime:undname.obj
 0002:0000f1ac       $unwind$_mbsdec_l          00000001800551ac     libucrt:mbsdec.obj
 0002:0000f1b8       $unwind$?getDimension@UnDecorator@@CA?AVDName@@_N@Z 00000001800551b8     libvcruntime:undname.obj
 0002:0000f1d0       $unwind$?getFloatingPoint@UnDecorator@@CA?AVDName@@H@Z 00000001800551d0     libvcruntime:undname.obj
 0002:0000f1ec       $unwind$?getValueObject@UnDecorator@@CA?AVDName@@XZ 00000001800551ec     libvcruntime:undname.obj
 0002:0000f1f8       $unwind$?getPointerToMember@UnDecorator@@CA?AVDName@@XZ 00000001800551f8     libvcruntime:undname.obj
 0002:0000f204       $unwind$?getTemplateName@UnDecorator@@CA?AVDName@@_N@Z 0000000180055204     libvcruntime:undname.obj
 0002:0000f220       $unwind$?getTemplateArgumentList@UnDecorator@@CA?AVDName@@XZ 0000000180055220     libvcruntime:undname.obj
 0002:0000f240       $unwind$?getTemplateNonTypeArgument@UnDecorator@@CA?AVDName@@XZ 0000000180055240     libvcruntime:undname.obj
 0002:0000f260       $unwind$?getTemplateTypeArgument@UnDecorator@@CA?AVDName@@XZ 0000000180055260     libvcruntime:undname.obj
 0002:0000f278       $unwind$?composeDeclaration@UnDecorator@@CA?AVDName@@AEBV2@@Z 0000000180055278     libvcruntime:undname.obj
 0002:0000f294       $unwind$?getArgumentTypes@UnDecorator@@CA?AVDName@@XZ 0000000180055294     libvcruntime:undname.obj
 0002:0000f294       $unwind$?getBasedType@UnDecorator@@CA?AVDName@@XZ 0000000180055294     libvcruntime:undname.obj
 0002:0000f294       $unwind$?getEnumType@UnDecorator@@CA?AVDName@@XZ 0000000180055294     libvcruntime:undname.obj
 0002:0000f2a0       $unwind$?getCallingConvention@UnDecorator@@CA?AVDName@@XZ 00000001800552a0     libvcruntime:undname.obj
 0002:0000f2b0       $unwind$?getDataType@UnDecorator@@CA?AVDName@@PEAV2@@Z 00000001800552b0     libvcruntime:undname.obj
 0002:0000f2bc       $unwind$?getExtendedDataIndirectType@UnDecorator@@CA?AVDName@@AEAW4IndirectionKind@@AEA_NH@Z 00000001800552bc     libvcruntime:undname.obj
 0002:0000f2bc       $unwind$?getPrimaryDataType@UnDecorator@@CA?AVDName@@AEBV2@@Z 00000001800552bc     libvcruntime:undname.obj
 0002:0000f2bc       $unwind$?getPtrRefDataType@UnDecorator@@CA?AVDName@@AEBV2@H@Z 00000001800552bc     libvcruntime:undname.obj
 0002:0000f2cc       $unwind$?getDataIndirectType@UnDecorator@@CA?AVDName@@AEBV2@W4IndirectionKind@@0H@Z 00000001800552cc     libvcruntime:undname.obj
 0002:0000f2ec       $unwind$?getBasicDataType@UnDecorator@@CA?AVDName@@AEBV2@@Z 00000001800552ec     libvcruntime:undname.obj
 0002:0000f304       $unwind$?getECSUDataType@UnDecorator@@CA?AVDName@@XZ 0000000180055304     libvcruntime:undname.obj
 0002:0000f314       $unwind$?getPtrRefType@UnDecorator@@CA?AVDName@@AEBV2@0W4IndirectionKind@@@Z 0000000180055314     libvcruntime:undname.obj
 0002:0000f32c       $unwind$?getArrayType@UnDecorator@@CA?AVDName@@AEBV2@@Z 000000018005532c     libvcruntime:undname.obj
 0002:0000f344       $unwind$?getFunctionIndirectType@UnDecorator@@CA?AVDName@@AEBV2@@Z 0000000180055344     libvcruntime:undname.obj
 0002:0000f364       $unwind$?getArgumentList@UnDecorator@@CA?AVDName@@XZ 0000000180055364     libvcruntime:undname.obj
 0002:0000f364       $unwind$?fp_format_e@@YAHQEBNQEAD_K12H_NIQEAU__crt_locale_pointers@@W4__acrt_rounding_mode@@@Z 0000000180055364     libucrt:cvt.obj
 0002:0000f364       $unwind$_mbtowc_l          0000000180055364     libucrt:mbtowc.obj
 0002:0000f364       $unwind$__acrt_LCMapStringEx 0000000180055364     libucrt:winapi_thunks.obj
 0002:0000f378       $unwind$?getRestrictionSpec@UnDecorator@@CA?AVDName@@XZ 0000000180055378     libvcruntime:undname.obj
 0002:0000f38c       $unwind$?getLexicalFrame@UnDecorator@@CA?AVDName@@XZ 000000018005538c     libvcruntime:undname.obj
 0002:0000f38c       $unwind$?parseDecoratedName@UnDecorator@@CA?AVDName@@XZ 000000018005538c     libvcruntime:undname.obj
 0002:0000f398       $unwind$?getExternalDataType@UnDecorator@@CA?AVDName@@AEBV2@@Z 0000000180055398     libvcruntime:undname.obj
 0002:0000f3a8       $unwind$?getVfTableType@UnDecorator@@CA?AVDName@@AEBV2@@Z 00000001800553a8     libvcruntime:undname.obj
 0002:0000f3c0       $xdatasym                  00000001800553c0     libvcruntime:notify.obj
 0002:0000f3cc       $unwind$?DecompFuncInfo@FH4@@YA_JPEAEAEAUFuncInfo4@1@_KH_N@Z 00000001800553cc     libvcruntime:risctrnsctrl.obj
 0002:0000f3e4       $unwind$?UnwindNestedFrames@__FrameHandler4@@SAXPEA_KPEAUEHExceptionRecord@@PEAU_CONTEXT@@0PEAXPEAUFuncInfo4@FH4@@HHPEAUHandlerType4@5@PEAU_xDISPATCHER_CONTEXT@@E@Z 00000001800553e4     libvcruntime:risctrnsctrl.obj
 0002:0000f3f8       $unwind$?GetRangeOfTrysToCheck@__FrameHandler4@@SA?AU?$pair@Viterator@TryBlockMap4@FH4@@V123@@std@@AEAVTryBlockMap4@FH4@@HPEAU_xDISPATCHER_CONTEXT@@PEAUFuncInfo4@5@H@Z 00000001800553f8     libvcruntime:risctrnsctrl.obj
 0002:0000f414       $unwind$__CxxFrameHandler4 0000000180055414     libvcruntime:risctrnsctrl.obj
 0002:0000f428       $unwind$??$_CallSETranslator@V__FrameHandler4@@@@YAHPEAUEHExceptionRecord@@PEA_KPEAU_CONTEXT@@PEAU_xDISPATCHER_CONTEXT@@PEAUFuncInfo4@FH4@@K1H@Z 0000000180055428     libvcruntime:risctrnsctrl.obj
 0002:0000f448       $unwind$?filt$0@?0???$_CallSETranslator@V__FrameHandler4@@@@YAHPEAUEHExceptionRecord@@PEA_KPEAU_CONTEXT@@PEAU_xDISPATCHER_CONTEXT@@PEAUFuncInfo4@FH4@@K1H@Z@4HA 0000000180055448     libvcruntime:risctrnsctrl.obj
 0002:0000f454       $unwind$?try_get_function@@YAPEAXW4function_id@?A0xf6f43728@@QEBDQEBW4module_id@2@2@Z 0000000180055454     libvcruntime:winapi_downlevel.obj
 0002:0000f454       $unwind$?try_get_function@@YAPEAXW4function_id@?A0x391cf84c@@QEBDQEBW4module_id@2@2@Z 0000000180055454     libucrt:winapi_thunks.obj
 0002:0000f470       $unwind$?StateFromIp@__FrameHandler4@@SAHPEAUFuncInfo4@FH4@@PEAU_xDISPATCHER_CONTEXT@@_K@Z 0000000180055470     libvcruntime:ehstate.obj
 0002:0000f484       $unwind$?getStartStop@UWMap4@FH4@@QEAAXHHAEAViterator@12@0@Z 0000000180055484     libvcruntime:frame.obj
 0002:0000f49c       $unwind$?FrameUnwindToState@__FrameHandler4@@SAXPEA_KPEAU_xDISPATCHER_CONTEXT@@PEAUFuncInfo4@FH4@@H@Z 000000018005549c     libvcruntime:frame.obj
 0002:0000f4e4       $unwind$?CxxCallCatchBlock@__FrameHandler4@@SAPEAXPEAU_EXCEPTION_RECORD@@@Z 00000001800554e4     libvcruntime:frame.obj
 0002:0000f540       $unwind$?IsInExceptionSpec@@YAEPEAUEHExceptionRecord@@PEBU_s_ESTypeList@@@Z 0000000180055540     libvcruntime:frame.obj
 0002:0000f55c       $unwind$??$__InternalCxxFrameHandler@V__FrameHandler4@@@@YA?AW4_EXCEPTION_DISPOSITION@@PEAUEHExceptionRecord@@PEA_KPEAU_CONTEXT@@PEAU_xDISPATCHER_CONTEXT@@PEAUFuncInfo4@FH4@@H1E@Z 000000018005555c     libvcruntime:frame.obj
 0002:0000f574       $unwind$__GSHandlerCheck_SEH 0000000180055574     LIBCMT:gshandlerseh.obj
 0002:0000f574       $unwind$??$TypeMatchHelper@V__FrameHandler3@@@@YAHPEBU_s_HandlerType@@PEBU_s_CatchableType@@PEBU_s_ThrowInfo@@@Z 0000000180055574     libvcruntime:frame.obj
 0002:0000f574       $unwind$??$TypeMatchHelper@V__FrameHandler4@@@@YAHPEAUHandlerType4@FH4@@PEBU_s_CatchableType@@PEBU_s_ThrowInfo@@@Z 0000000180055574     libvcruntime:frame.obj
 0002:0000f574       $unwind$?initialize_stdio_handles_nolock@@YAXXZ 0000000180055574     libucrt:ioinit.obj
 0002:0000f574       $unwind$__acrt_initialize_stdio 0000000180055574     libucrt:_file.obj
 0002:0000f574       $unwind$?type_case_integer@?$output_processor@DV?$string_output_adapter@D@__crt_stdio_output@@V?$format_validation_base@DV?$string_output_adapter@D@__crt_stdio_output@@@2@@__crt_stdio_output@@AEAA_NI_N@Z 0000000180055574     libucrt:output.obj
 0002:0000f58c       $unwind$??$BuildCatchObjectHelperInternal@V__FrameHandler4@@@@YAHPEAUEHExceptionRecord@@PEAXPEAUHandlerType4@FH4@@PEBU_s_CatchableType@@@Z 000000018005558c     libvcruntime:frame.obj
 0002:0000f5cc       $unwind$??$BuildCatchObjectInternal@V__FrameHandler4@@@@YAXPEAUEHExceptionRecord@@PEAXPEAUHandlerType4@FH4@@PEBU_s_CatchableType@@@Z 00000001800555cc     libvcruntime:frame.obj
 0002:0000f5f8       $unwind$??$FindHandler@V__FrameHandler4@@@@YAXPEAUEHExceptionRecord@@PEA_KPEAU_CONTEXT@@PEAU_xDISPATCHER_CONTEXT@@PEAUFuncInfo4@FH4@@EH1@Z 00000001800555f8     libvcruntime:frame.obj
 0002:0000f618       $unwind$??$CatchIt@V__FrameHandler4@@@@YAXPEAUEHExceptionRecord@@PEA_KPEAU_CONTEXT@@PEAU_xDISPATCHER_CONTEXT@@PEAUFuncInfo4@FH4@@PEAUHandlerType4@4@PEBU_s_CatchableType@@PEAUTryBlockMapEntry4@4@H1EE@Z 0000000180055618     libvcruntime:frame.obj
 0002:0000f630       $unwind$??$FindHandlerForForeignException@V__FrameHandler4@@@@YAXPEAUEHExceptionRecord@@PEA_KPEAU_CONTEXT@@PEAU_xDISPATCHER_CONTEXT@@PEAUFuncInfo4@FH4@@HH1@Z 0000000180055630     libvcruntime:frame.obj
 0002:0000f650       $xdatasym                  0000000180055650     libvcruntime:handlers.obj
 0002:0000f670       $unwind$_CxxThrowException 0000000180055670     libvcruntime:throw.obj
 0002:0000f680       $xdatasym                  0000000180055680     libucrt:strcmp.obj
 0002:0000f684       $unwind$atan2f             0000000180055684     libucrt:atan2f.obj
 0002:0000f6a8       $xdatasym                  00000001800556a8     libucrt:cosf.obj
 0002:0000f6b0       $xdatasym                  00000001800556b0     libucrt:sinf.obj
 0002:0000f6b8       $unwind$?common_exit@@YAXHW4_crt_exit_cleanup_mode@@W4_crt_exit_return_mode@@@Z 00000001800556b8     libucrt:exit.obj
 0002:0000f6c4       $unwind$??R<lambda_6e4b09c48022b2350581041d5f6b0c4c>@@QEBA@XZ 00000001800556c4     libucrt:exit.obj
 0002:0000f6e4       $unwind$??$?RV<lambda_d80eeec6fff315bfe5c115232f3240e3>@@AEAV<lambda_6e4b09c48022b2350581041d5f6b0c4c>@@V<lambda_2358e3775559c9db80273638284d5e45>@@@?$__crt_seh_guarded_call@X@@QEAAX$$QEAV<lambda_d80eeec6fff315bfe5c115232f3240e3>@@AEAV<lambda_6e4b09c48022b2350581041d5f6b0c4c>@@$$QEAV<lambda_2358e3775559c9db80273638284d5e45>@@@Z 00000001800556e4     libucrt:exit.obj
 0002:0000f708       $unwind$_configure_narrow_argv 0000000180055708     libucrt:argv_parsing.obj
 0002:0000f71c       $unwind$?should_round_up@@YA_NQEBN_KFW4__acrt_rounding_mode@@@Z 000000018005571c     libucrt:cvt.obj
 0002:0000f71c       $unwind$??$parse_command_line@D@@YAXPEADPEAPEAD0PEA_K2@Z 000000018005571c     libucrt:argv_parsing.obj
 0002:0000f738       $unwind$??$free_environment@D@@YAXQEAPEAD@Z 0000000180055738     libucrt:environment_initialization.obj
 0002:0000f738       $unwind$??$free_environment@_W@@YAXQEAPEA_W@Z 0000000180055738     libucrt:environment_initialization.obj
 0002:0000f744       $unwind$??$create_environment@D@@YAQEAPEADQEAD@Z 0000000180055744     libucrt:environment_initialization.obj
 0002:0000f75c       $unwind$_execute_onexit_table 000000018005575c     libucrt:onexit.obj
 0002:0000f764       $unwind$__acrt_fp_strflt_to_string 0000000180055764     libucrt:_fptostr.obj
 0002:0000f764       $unwind$__acrt_DownlevelLocaleNameToLCID 0000000180055764     libucrt:lcidtoname_downlevel.obj
 0002:0000f764       $unwind$??R<lambda_f03950bc5685219e0bcd2087efbe011e>@@QEBAHXZ 0000000180055764     libucrt:onexit.obj
 0002:0000f77c       $unwind$??$?RV<lambda_7777bce6b2f8c936911f934f8298dc43>@@AEAV<lambda_f03950bc5685219e0bcd2087efbe011e>@@V<lambda_3883c3dff614d5e0c5f61bb1ac94921c>@@@?$__crt_seh_guarded_call@H@@QEAAH$$QEAV<lambda_7777bce6b2f8c936911f934f8298dc43>@@AEAV<lambda_f03950bc5685219e0bcd2087efbe011e>@@$$QEAV<lambda_3883c3dff614d5e0c5f61bb1ac94921c>@@@Z 000000018005577c     libucrt:onexit.obj
 0002:0000f7a0       $unwind$terminate          00000001800557a0     libucrt:terminate.obj
 0002:0000f7c0       $unwind$?write_string@?$string_output_adapter@D@__crt_stdio_output@@QEBAXQEBDHQEAHAEAV__crt_deferred_errno_cache@@@Z 00000001800557c0     libucrt:output.obj
 0002:0000f7d8       $unwind$??$common_vsprintf@Vformat_validation_base@__crt_stdio_output@@D@@YAH_KQEAD0QEBDQEAU__crt_locale_pointers@@1@Z 00000001800557d8     libucrt:output.obj
 0002:0000f7f8       $unwind$??$write_multiple_characters@V?$string_output_adapter@D@__crt_stdio_output@@D@__crt_stdio_output@@YAXAEBV?$string_output_adapter@D@0@DHQEAH@Z 00000001800557f8     libucrt:output.obj
 0002:0000f804       $unwind$?parse_int_from_format_string@?$output_processor@DV?$string_output_adapter@D@__crt_stdio_output@@V?$format_validation_base@DV?$string_output_adapter@D@__crt_stdio_output@@@2@@__crt_stdio_output@@AEAA_NQEAH@Z 0000000180055804     libucrt:output.obj
 0002:0000f818       $unwind$?state_case_type@?$output_processor@DV?$string_output_adapter@D@__crt_stdio_output@@V?$format_validation_base@DV?$string_output_adapter@D@__crt_stdio_output@@@2@@__crt_stdio_output@@AEAA_NXZ 0000000180055818     libucrt:output.obj
 0002:0000f830       $unwind$?type_case_a@?$output_processor@DV?$string_output_adapter@D@__crt_stdio_output@@V?$format_validation_base@DV?$string_output_adapter@D@__crt_stdio_output@@@2@@__crt_stdio_output@@AEAA_NXZ 0000000180055830     libucrt:output.obj
 0002:0000f83c       $unwind$?write_stored_string_tchar@?$output_processor@DV?$string_output_adapter@D@__crt_stdio_output@@V?$format_validation_base@DV?$string_output_adapter@D@__crt_stdio_output@@@2@@__crt_stdio_output@@AEAA_ND@Z 000000018005583c     libucrt:output.obj
 0002:0000f854       $unwind$??$type_case_integer_parse_into_buffer@I@?$output_processor@DV?$string_output_adapter@D@__crt_stdio_output@@V?$format_validation_base@DV?$string_output_adapter@D@__crt_stdio_output@@@2@@__crt_stdio_output@@AEAAXII_N@Z 0000000180055854     libucrt:output.obj
 0002:0000f854       $unwind$??$type_case_integer_parse_into_buffer@_K@?$output_processor@DV?$string_output_adapter@D@__crt_stdio_output@@V?$format_validation_base@DV?$string_output_adapter@D@__crt_stdio_output@@@2@@__crt_stdio_output@@AEAAX_KI_N@Z 0000000180055854     libucrt:output.obj
 0002:0000f85c       $unwind$??$parse_integer@KV?$c_string_character_source@D@__crt_strtox@@@__crt_strtox@@YAKQEAU__crt_locale_pointers@@V?$c_string_character_source@D@0@H_N@Z 000000018005585c     libucrt:atox.obj
 0002:0000f878       $xdatasym                  0000000180055878     libucrt:strncmp.obj
 0002:0000f87c       $unwind$_ctrlfp            000000018005587c     libucrt:fpctrl.obj
 0002:0000f8a4       $unwind$_call_matherr      00000001800558a4     libucrt:libm_error.obj
 0002:0000f8ac       $unwind$_handle_error      00000001800558ac     libucrt:libm_error.obj
 0002:0000f8ac       $unwind$_handle_errorf     00000001800558ac     libucrt:libm_error.obj
 0002:0000f8d0       $xdatasym                  00000001800558d0     libucrt:remainder_piby2f_forasm.obj
 0002:0000f8d8       $xdatasym                  00000001800558d8     libucrt:remainder_piby2_forfma3.obj
 0002:0000f8e4       $unwind$_sincosf_special   00000001800558e4     libucrt:sincos_special.obj
 0002:0000f8ec       $unwind$__acrt_initialize_fma3 00000001800558ec     libucrt:fma3_available.obj
 0002:0000f8f8       $xdatasym                  00000001800558f8     libucrt:remainder_piby2f_forc.obj
 0002:0000f908       $unwind$_free_base         0000000180055908     libucrt:free_base.obj
 0002:0000f908       $unwind$?destroy_fls@@YAXPEAX@Z 0000000180055908     libucrt:per_thread_data.obj
 0002:0000f908       $unwind$__acrt_locale_free_numeric 0000000180055908     libucrt:initnum.obj
 0002:0000f908       $unwind$__acrt_locale_free_lc_time_if_unreferenced 0000000180055908     libucrt:locale_refcounting.obj
 0002:0000f910       $unwind$?construct_ptd_array@@YAXQEAU__acrt_ptd@@@Z 0000000180055910     libucrt:per_thread_data.obj
 0002:0000f918       $unwind$?destroy_ptd_array@@YAXQEAU__acrt_ptd@@@Z 0000000180055918     libucrt:per_thread_data.obj
 0002:0000f920       $unwind$??$?RV<lambda_0ae27a3a962d80f24befdcbee591983d>@@AEAV<lambda_8d0ee55de4b1038c4002e0adecdf1839>@@V<lambda_dc504788e8f1664fe9b84e20bfb512f2>@@@?$__crt_seh_guarded_call@X@@QEAAX$$QEAV<lambda_0ae27a3a962d80f24befdcbee591983d>@@AEAV<lambda_8d0ee55de4b1038c4002e0adecdf1839>@@$$QEAV<lambda_dc504788e8f1664fe9b84e20bfb512f2>@@@Z 0000000180055920     libucrt:per_thread_data.obj
 0002:0000f944       $unwind$??$?RV<lambda_aa87e3671a710a21b5dc78c0bdf72e11>@@AEAV<lambda_92619d2358a28f41a33ba319515a20b9>@@V<lambda_6992ecaafeb10aed2b74cb1fae11a551>@@@?$__crt_seh_guarded_call@X@@QEAAX$$QEAV<lambda_aa87e3671a710a21b5dc78c0bdf72e11>@@AEAV<lambda_92619d2358a28f41a33ba319515a20b9>@@$$QEAV<lambda_6992ecaafeb10aed2b74cb1fae11a551>@@@Z 0000000180055944     libucrt:per_thread_data.obj
 0002:0000f968       $unwind$??$?RV<lambda_f2e299630e499de9f9a165e60fcd3db5>@@AEAV<lambda_2ae9d31cdba2644fcbeaf08da7c24588>@@V<lambda_40d01ff24d0e7b3814fdbdcee8eab3c7>@@@?$__crt_seh_guarded_call@X@@QEAAX$$QEAV<lambda_f2e299630e499de9f9a165e60fcd3db5>@@AEAV<lambda_2ae9d31cdba2644fcbeaf08da7c24588>@@$$QEAV<lambda_40d01ff24d0e7b3814fdbdcee8eab3c7>@@@Z 0000000180055968     libucrt:per_thread_data.obj
 0002:0000f98c       $unwind$??$?RV<lambda_2d41944a1d46af3157314b8a01080d33>@@AEAV<lambda_8f455de75cd7d7f24b4096f044d8b9e6>@@V<lambda_aa500f224e6afead328df44964fe2772>@@@?$__crt_seh_guarded_call@X@@QEAAX$$QEAV<lambda_2d41944a1d46af3157314b8a01080d33>@@AEAV<lambda_8f455de75cd7d7f24b4096f044d8b9e6>@@$$QEAV<lambda_aa500f224e6afead328df44964fe2772>@@@Z 000000018005598c     libucrt:per_thread_data.obj
 0002:0000f9b0       $unwind$__acrt_call_reportfault 00000001800559b0     libucrt:invalid_parameter.obj
 0002:0000f9d0       $unwind$_invalid_parameter 00000001800559d0     libucrt:invalid_parameter.obj
 0002:0000f9e4       $unwind$??$__acrt_mbs_to_wcs_cp@U__crt_win32_buffer_internal_dynamic_resizing@@@@YAHQEBDAEAV?$__crt_win32_buffer@_WU__crt_win32_buffer_internal_dynamic_resizing@@@@I@Z 00000001800559e4     libucrt:argv_wildcards.obj
 0002:0000f9fc       $unwind$__dcrt_get_narrow_environment_from_os 00000001800559fc     libucrt:get_environment_from_os.obj
 0002:0000f9fc       $unwind$?fp_format_f_internal@@YAHQEAD_KHQEAU_strflt@@_NQEAU__crt_locale_pointers@@@Z 00000001800559fc     libucrt:cvt.obj
 0002:0000f9fc       $unwind$??$__acrt_wcs_to_mbs_cp@U__crt_win32_buffer_internal_dynamic_resizing@@@@YAHQEB_WAEAV?$__crt_win32_buffer@DU__crt_win32_buffer_internal_dynamic_resizing@@@@I@Z 00000001800559fc     libucrt:argv_wildcards.obj
 0002:0000fa14       $unwind$??$common_expand_argv_wildcards@D@@YAHQEAPEADQEAPEAPEAD@Z 0000000180055a14     libucrt:argv_wildcards.obj
 0002:0000fa2c       $unwind$??$expand_argument_wildcards@D@@YAHQEAD0AEAV?$argument_list@D@?A0x5f5c8891@@@Z 0000000180055a2c     libucrt:argv_wildcards.obj
 0002:0000fa50       $unwind$__acrt_GetModuleFileNameA 0000000180055a50     libucrt:getmodulefilenamea.obj
 0002:0000fa6c       $unwind$__dcrt_write_console 0000000180055a6c     libucrt:initcon.obj
 0002:0000fa6c       $unwind$??$__acrt_wcs_to_mbs_cp@U__crt_win32_buffer_no_resizing@@@@YAHQEB_WAEAV?$__crt_win32_buffer@DU__crt_win32_buffer_no_resizing@@@@I@Z 0000000180055a6c     libucrt:getmodulefilenamea.obj
 0002:0000fa80       $unwind$_setmbcp_nolock    0000000180055a80     libucrt:mbctype.obj
 0002:0000faa0       $unwind$?update_thread_multibyte_data_internal@@YAPEAU__crt_multibyte_data@@QEAU__acrt_ptd@@QEAPEAU1@@Z 0000000180055aa0     libucrt:mbctype.obj
 0002:0000fac8       $unwind$?setmbcp_internal@@YAHH_NQEAU__acrt_ptd@@QEAPEAU__crt_multibyte_data@@@Z 0000000180055ac8     libucrt:mbctype.obj
 0002:0000fad8       $unwind$?setSBUpLow@@YAXPEAU__crt_multibyte_data@@@Z 0000000180055ad8     libucrt:mbctype.obj
 0002:0000faf4       $unwind$??$?RV<lambda_efdfa57d1f175319df784efa44bb7b81>@@AEAV<lambda_5f0a4c1567f8adc6734073e5d1e1b35c>@@V<lambda_2e8a7d3640ea6ccb4c2413664c2db6fd>@@@?$__crt_seh_guarded_call@X@@QEAAX$$QEAV<lambda_efdfa57d1f175319df784efa44bb7b81>@@AEAV<lambda_5f0a4c1567f8adc6734073e5d1e1b35c>@@$$QEAV<lambda_2e8a7d3640ea6ccb4c2413664c2db6fd>@@@Z 0000000180055af4     libucrt:mbctype.obj
 0002:0000fb18       $unwind$?x_ismbbtype_l@@YAHPEAU__crt_locale_pointers@@IHH@Z 0000000180055b18     libucrt:ismbbyte.obj
 0002:0000fb28       $unwind$__acrt_WideCharToMultiByte 0000000180055b28     libucrt:widechartomultibyte.obj
 0002:0000fb34       $unwind$__acrt_initialize_winapi_thunks 0000000180055b34     libucrt:winapi_thunks.obj
 0002:0000fb3c       $unwind$__acrt_initialize_lowio 0000000180055b3c     libucrt:ioinit.obj
 0002:0000fb5c       $unwind$?initialize_inherited_file_handles_nolock@@YAXXZ 0000000180055b5c     libucrt:ioinit.obj
 0002:0000fb78       $unwind$_query_new_handler 0000000180055b78     libucrt:new_handler.obj
 0002:0000fb98       $unwind$__acrt_uninitialize_locale 0000000180055b98     libucrt:wsetlocale.obj
 0002:0000fb98       $unwind$__acrt_get_sigabrt_handler 0000000180055b98     libucrt:signal.obj
 0002:0000fba0       $unwind$raise              0000000180055ba0     libucrt:signal.obj
 0002:0000fbdc       $unwind$??$?RV<lambda_450d765d439847d4c735a33c368b5fc0>@@AEAV<lambda_44731a7d0e6d81c3e6aa82d741081786>@@V<lambda_601a2a7da3b7a96e9554ac7215c4b07c>@@@?$__crt_seh_guarded_call@P6AXH@Z@@QEAAP6AXH@Z$$QEAV<lambda_450d765d439847d4c735a33c368b5fc0>@@AEAV<lambda_44731a7d0e6d81c3e6aa82d741081786>@@$$QEAV<lambda_601a2a7da3b7a96e9554ac7215c4b07c>@@@Z 0000000180055bdc     libucrt:signal.obj
 0002:0000fc00       $unwind$?common_flush_all@@YAH_N@Z 0000000180055c00     libucrt:fflush.obj
 0002:0000fc08       $unwind$??$?RV<lambda_842d9ff0dc9ef11c61343bbaebe7f885>@@AEAV<lambda_c5860995281e5c4ce005b3de8f5874ee>@@V<lambda_d90129c13df834fdcbf8d2b88dafcf2d>@@@?$__crt_seh_guarded_call@X@@QEAAX$$QEAV<lambda_842d9ff0dc9ef11c61343bbaebe7f885>@@AEAV<lambda_c5860995281e5c4ce005b3de8f5874ee>@@$$QEAV<lambda_d90129c13df834fdcbf8d2b88dafcf2d>@@@Z 0000000180055c08     libucrt:fflush.obj
 0002:0000fc2c       $unwind$??$?RV<lambda_886d6c58226a84441f68b9f2b8217b83>@@AEAV<lambda_ab61a845afdef5b7c387490eaf3616ee>@@V<lambda_f7f22ab5edc0698d5f6905b0d3f44752>@@@?$__crt_seh_guarded_call@X@@QEAAX$$QEAV<lambda_886d6c58226a84441f68b9f2b8217b83>@@AEAV<lambda_ab61a845afdef5b7c387490eaf3616ee>@@$$QEAV<lambda_f7f22ab5edc0698d5f6905b0d3f44752>@@@Z 0000000180055c2c     libucrt:fflush.obj
 0002:0000fc54       $unwind$_wctomb_s_l        0000000180055c54     libucrt:wctomb.obj
 0002:0000fc64       $unwind$__acrt_fp_format   0000000180055c64     libucrt:cvt.obj
 0002:0000fc7c       $unwind$?fp_format_e_internal@@YAHQEAD_KH_NIQEAU_strflt@@2QEAU__crt_locale_pointers@@@Z 0000000180055c7c     libucrt:cvt.obj
 0002:0000fc94       $unwind$?fp_format_a@@YAHQEBNPEAD_KQEAD2H_NIQEAU__crt_locale_pointers@@W4__acrt_rounding_mode@@@Z 0000000180055c94     libucrt:cvt.obj
 0002:0000fcb0       $unwind$?fp_format_g@@YAHQEBNQEAD_K12H_NIW4__acrt_rounding_mode@@QEAU__crt_locale_pointers@@@Z 0000000180055cb0     libucrt:cvt.obj
 0002:0000fcc4       $unwind$??$?RV<lambda_410d79af7f07d98d83a3f525b3859a53>@@AEAV<lambda_3e16ef9562a7dcce91392c22ab16ea36>@@V<lambda_38119f0e861e05405d8a144b9b982f0a>@@@?$__crt_seh_guarded_call@X@@QEAAX$$QEAV<lambda_410d79af7f07d98d83a3f525b3859a53>@@AEAV<lambda_3e16ef9562a7dcce91392c22ab16ea36>@@$$QEAV<lambda_38119f0e861e05405d8a144b9b982f0a>@@@Z 0000000180055cc4     libucrt:wsetlocale.obj
 0002:0000fcec       $unwind$_isctype_l         0000000180055cec     libucrt:isctype.obj
 0002:0000fd08       $xdatasym                  0000000180055d08     libucrt:fpsr.obj
 0002:0000fd10       $unwind$_raise_exc_ex      0000000180055d10     libucrt:fpexcept.obj
 0002:0000fd24       $unwind$__acrt_update_thread_locale_data 0000000180055d24     libucrt:locale_refcounting.obj
 0002:0000fd48       $unwind$qsort              0000000180055d48     libucrt:qsort.obj
 0002:0000fd60       $chain$4$qsort             0000000180055d60     libucrt:qsort.obj
 0002:0000fd84       $chain$5$qsort             0000000180055d84     libucrt:qsort.obj
 0002:0000fd94       $unwind$strpbrk            0000000180055d94     libucrt:strpbrk.obj
 0002:0000fda4       $unwind$fallbackMethod     0000000180055da4     libucrt:strpbrk.obj
 0002:0000fdb4       $unwind$__acrt_GetStringTypeA 0000000180055db4     libucrt:getstringtypea.obj
 0002:0000fddc       $unwind$__acrt_LCMapStringA 0000000180055ddc     libucrt:lcmapstringa.obj
 0002:0000fdec       $unwind$?__acrt_LCMapStringA_stat@@YAHPEAU__crt_locale_pointers@@PEB_WKPEBDHPEADHHH@Z 0000000180055dec     libucrt:lcmapstringa.obj
 0002:0000fe14       $unwind$__acrt_lowio_destroy_handle_array 0000000180055e14     libucrt:osfinfo.obj
 0002:0000fe24       $unwind$__acrt_lowio_ensure_fh_exists 0000000180055e24     libucrt:osfinfo.obj
 0002:0000fe50       $unwind$_close             0000000180055e50     libucrt:close.obj
 0002:0000fe50       $unwind$_commit            0000000180055e50     libucrt:commit.obj
 0002:0000fe58       $unwind$??$?RV<lambda_a37b2b86f63e897a80ea819b0eb08c01>@@AEAV<lambda_38ce7e780aa69e748d6df282ebc68efe>@@V<lambda_99fb1378e971ab6e7edea83e3a7a83a2>@@@?$__crt_seh_guarded_call@H@@QEAAH$$QEAV<lambda_a37b2b86f63e897a80ea819b0eb08c01>@@AEAV<lambda_38ce7e780aa69e748d6df282ebc68efe>@@$$QEAV<lambda_99fb1378e971ab6e7edea83e3a7a83a2>@@@Z 0000000180055e58     libucrt:commit.obj
 0002:0000fe7c       $unwind$_write             0000000180055e7c     libucrt:write.obj
 0002:0000feac       $unwind$_write_nolock      0000000180055eac     libucrt:write.obj
 0002:0000fec4       $unwind$?write_double_translated_ansi_nolock@@YA?AUwrite_result@?A0x17268360@@HQEBDI@Z 0000000180055ec4     libucrt:write.obj
 0002:0000fee8       $unwind$?write_text_ansi_nolock@@YA?AUwrite_result@?A0x17268360@@HQEBDI@Z 0000000180055ee8     libucrt:write.obj
 0002:0000fee8       $unwind$?write_text_utf16le_nolock@@YA?AUwrite_result@?A0x17268360@@HQEBDI@Z 0000000180055ee8     libucrt:write.obj
 0002:0000ff08       $unwind$?write_text_utf8_nolock@@YA?AUwrite_result@?A0x17268360@@HQEBDI@Z 0000000180055f08     libucrt:write.obj
 0002:0000ff2c       $unwind$_fcloseall         0000000180055f2c     libucrt:closeall.obj
 0002:0000ff50       $unwind$?__mbsrtowcs_utf8@__crt_mbstring@@YA_KPEA_WPEAPEBD_KPEAU_Mbstatet@@@Z 0000000180055f50     libucrt:mbrtowc.obj
 0002:0000ff68       $unwind$__acrt_fltout      0000000180055f68     libucrt:cfout.obj
 0002:0000ff88       $unwind$?divide@__crt_strtox@@YA_KAEAUbig_integer@1@AEBU21@@Z 0000000180055f88     libucrt:cfout.obj
 0002:0000ffa0       $chain$0$?divide@__crt_strtox@@YA_KAEAUbig_integer@1@AEBU21@@Z 0000000180055fa0     libucrt:cfout.obj
 0002:0000ffb4       $chain$1$?divide@__crt_strtox@@YA_KAEAUbig_integer@1@AEBU21@@Z 0000000180055fb4     libucrt:cfout.obj
 0002:0000ffc4       $unwind$__acrt_locale_free_monetary 0000000180055fc4     libucrt:initmon.obj
 0002:0000ffcc       $unwind$__acrt_locale_free_time 0000000180055fcc     libucrt:inittime.obj
 0002:0000ffdc       $unwind$_putwch_nolock     0000000180055fdc     libucrt:putwch.obj
 0002:0000ffe4       $unwind$fclose             0000000180055fe4     libucrt:fclose.obj
 0002:00010008       $unwind$?__mbrtoc32_utf8@__crt_mbstring@@YA_KPEA_UPEBD_KPEAU_Mbstatet@@@Z 0000000180056008     libucrt:mbrtoc32.obj
 0002:00010028       $xdatasym                  0000000180056028     libucrt:log10.obj
 0002:00010034       $unwind$__acrt_fenv_set_control 0000000180056034     libucrt:_fenvutils.obj
 0002:00010044       $unwind$??$?RV<lambda_751a882b2c74d4b022dec766aa51a29a>@@AEAV<lambda_628dfdc04ba53c8bfc02c9951375f3f5>@@V<lambda_f6c7be5f7998530c34de24c7437d6b54>@@@?$__crt_seh_guarded_call@H@@QEAAH$$QEAV<lambda_751a882b2c74d4b022dec766aa51a29a>@@AEAV<lambda_628dfdc04ba53c8bfc02c9951375f3f5>@@$$QEAV<lambda_f6c7be5f7998530c34de24c7437d6b54>@@@Z 0000000180056044     libucrt:close.obj
 0002:00010068       $unwind$common_control87   0000000180056068     libucrt:ieee.obj
 0002:00010094       $unwind$_log_special_common 0000000180056094     libucrt:log_special.obj
 0002:000100a0       $unwind$_IsNonwritableInCurrentImage 00000001800560a0     LIBCMT:pesect.obj
 0002:000100c4       $unwind$__GSHandlerCheckCommon 00000001800560c4     LIBCMT:gshandler.obj
 0002:000100d0       $xdatasym                  00000001800560d0     LIBCMT:amdsecgs.obj
 0002:000100d4       $unwind$__report_securityfailure 00000001800560d4     LIBCMT:gs_report.obj
 0002:000100dc       $unwind$__report_gsfailure 00000001800560dc     LIBCMT:gs_report.obj
 0002:000100e4       $unwind$capture_current_context 00000001800560e4     LIBCMT:gs_report.obj
 0002:000100f0       $unwind$capture_previous_context 00000001800560f0     LIBCMT:gs_report.obj
 0002:00010100       $xdatasym                  0000000180056100     libvcruntime:memcmp.obj
 0002:00010e50       .edata                     0000000180056e50     PhysXCooking_64.exp
 0002:00010e78       rgpv                       0000000180056e78     PhysXCooking_64.exp
 0002:00011060       rgszName                   0000000180057060     PhysXCooking_64.exp
 0002:00011248       rgwOrd                     0000000180057248     PhysXCooking_64.exp
 0002:0001133c       szName                     000000018005733c     PhysXCooking_64.exp
 0002:00011350       $N00001                    0000000180057350     PhysXCooking_64.exp
 0002:0001137f       $N00002                    000000018005737f     PhysXCooking_64.exp
 0002:000113a6       $N00003                    00000001800573a6     PhysXCooking_64.exp
 0002:000113e1       $N00004                    00000001800573e1     PhysXCooking_64.exp
 0002:00011408       $N00005                    0000000180057408     PhysXCooking_64.exp
 0002:00011434       $N00006                    0000000180057434     PhysXCooking_64.exp
 0002:00011455       $N00007                    0000000180057455     PhysXCooking_64.exp
 0002:0001148a       $N00008                    000000018005748a     PhysXCooking_64.exp
 0002:000114a3       $N00009                    00000001800574a3     PhysXCooking_64.exp
 0002:000114c3       $N00010                    00000001800574c3     PhysXCooking_64.exp
 0002:000114ec       $N00011                    00000001800574ec     PhysXCooking_64.exp
 0002:00011513       $N00012                    0000000180057513     PhysXCooking_64.exp
 0002:00011542       $N00013                    0000000180057542     PhysXCooking_64.exp
 0002:0001156f       $N00014                    000000018005756f     PhysXCooking_64.exp
 0002:000115a0       $N00015                    00000001800575a0     PhysXCooking_64.exp
 0002:000115c5       $N00016                    00000001800575c5     PhysXCooking_64.exp
 0002:000115f0       $N00017                    00000001800575f0     PhysXCooking_64.exp
 0002:00011616       $N00018                    0000000180057616     PhysXCooking_64.exp
 0002:00011635       $N00019                    0000000180057635     PhysXCooking_64.exp
 0002:0001166b       $N00020                    000000018005766b     PhysXCooking_64.exp
 0002:00011695       $N00021                    0000000180057695     PhysXCooking_64.exp
 0002:000116bc       $N00022                    00000001800576bc     PhysXCooking_64.exp
 0002:000116e5       $N00023                    00000001800576e5     PhysXCooking_64.exp
 0002:000116fe       $N00024                    00000001800576fe     PhysXCooking_64.exp
 0002:00011723       $N00025                    0000000180057723     PhysXCooking_64.exp
 0002:00011742       $N00026                    0000000180057742     PhysXCooking_64.exp
 0002:00011761       $N00027                    0000000180057761     PhysXCooking_64.exp
 0002:00011781       $N00028                    0000000180057781     PhysXCooking_64.exp
 0002:000117b7       $N00029                    00000001800577b7     PhysXCooking_64.exp
 0002:000117ef       $N00030                    00000001800577ef     PhysXCooking_64.exp
 0002:00011823       $N00031                    0000000180057823     PhysXCooking_64.exp
 0002:00011855       $N00032                    0000000180057855     PhysXCooking_64.exp
 0002:00011882       $N00033                    0000000180057882     PhysXCooking_64.exp
 0002:000118aa       $N00034                    00000001800578aa     PhysXCooking_64.exp
 0002:000118db       $N00035                    00000001800578db     PhysXCooking_64.exp
 0002:0001190a       $N00036                    000000018005790a     PhysXCooking_64.exp
 0002:0001193a       $N00037                    000000018005793a     PhysXCooking_64.exp
 0002:00011968       $N00038                    0000000180057968     PhysXCooking_64.exp
 0002:00011999       $N00039                    0000000180057999     PhysXCooking_64.exp
 0002:000119cf       $N00040                    00000001800579cf     PhysXCooking_64.exp
 0002:00011a03       $N00041                    0000000180057a03     PhysXCooking_64.exp
 0002:00011a35       $N00042                    0000000180057a35     PhysXCooking_64.exp
 0002:00011a67       $N00043                    0000000180057a67     PhysXCooking_64.exp
 0002:00011a93       $N00044                    0000000180057a93     PhysXCooking_64.exp
 0002:00011aaf       $N00045                    0000000180057aaf     PhysXCooking_64.exp
 0002:00011ad9       $N00046                    0000000180057ad9     PhysXCooking_64.exp
 0002:00011afd       $N00047                    0000000180057afd     PhysXCooking_64.exp
 0002:00011b2f       $N00048                    0000000180057b2f     PhysXCooking_64.exp
